Archive member included to satisfy reference by file (symbol)

external/rtt/librtt_nrf52840_xxAA.a(SEGGER_RTT.c.obj)
                              examples/light_switch/server/CMakeFiles/light_switch_server_nrf52840_xxAA_s140_6.0.0.dir/__/__/__/mesh/core/src/log.c.obj (SEGGER_RTT_Write)
external/rtt/librtt_nrf52840_xxAA.a(SEGGER_RTT_printf.c.obj)
                              examples/light_switch/server/CMakeFiles/light_switch_server_nrf52840_xxAA_s140_6.0.0.dir/__/__/__/mesh/core/src/log.c.obj (SEGGER_RTT_vprintf)
external/micro-ecc/libuECC_nrf52840_xxAA.a(uECC.c.obj)
                              examples/light_switch/server/CMakeFiles/light_switch_server_nrf52840_xxAA_s140_6.0.0.dir/__/__/__/mesh/prov/src/prov_utils.c.obj (uECC_secp256r1)
c:/arm_gcc/bin/../lib/gcc/arm-none-eabi/6.3.1/thumb/v7e-m/fpv4-sp/hard\libgcc.a(_aeabi_uldivmod.o)
                              examples/light_switch/server/CMakeFiles/light_switch_server_nrf52840_xxAA_s140_6.0.0.dir/__/__/common/src/app_onoff.c.obj (__aeabi_uldivmod)
c:/arm_gcc/bin/../lib/gcc/arm-none-eabi/6.3.1/thumb/v7e-m/fpv4-sp/hard\libgcc.a(_udivmoddi4.o)
                              c:/arm_gcc/bin/../lib/gcc/arm-none-eabi/6.3.1/thumb/v7e-m/fpv4-sp/hard\libgcc.a(_aeabi_uldivmod.o) (__udivmoddi4)
c:/arm_gcc/bin/../lib/gcc/arm-none-eabi/6.3.1/thumb/v7e-m/fpv4-sp/hard\libgcc.a(_dvmd_tls.o)
                              c:/arm_gcc/bin/../lib/gcc/arm-none-eabi/6.3.1/thumb/v7e-m/fpv4-sp/hard\libgcc.a(_aeabi_uldivmod.o) (__aeabi_ldiv0)
c:/arm_gcc/bin/../lib/gcc/arm-none-eabi/6.3.1/../../../../arm-none-eabi/lib/thumb/v7e-m/fpv4-sp/hard\libg_nano.a(lib_a-exit.o)
                              c:/arm_gcc/bin/../lib/gcc/arm-none-eabi/6.3.1/../../../../arm-none-eabi/lib/thumb/v7e-m/fpv4-sp/hard/crt0.o (exit)
c:/arm_gcc/bin/../lib/gcc/arm-none-eabi/6.3.1/../../../../arm-none-eabi/lib/thumb/v7e-m/fpv4-sp/hard\libg_nano.a(lib_a-impure.o)
                              c:/arm_gcc/bin/../lib/gcc/arm-none-eabi/6.3.1/../../../../arm-none-eabi/lib/thumb/v7e-m/fpv4-sp/hard\libg_nano.a(lib_a-exit.o) (_global_impure_ptr)
c:/arm_gcc/bin/../lib/gcc/arm-none-eabi/6.3.1/../../../../arm-none-eabi/lib/thumb/v7e-m/fpv4-sp/hard\libg_nano.a(lib_a-init.o)
                              c:/arm_gcc/bin/../lib/gcc/arm-none-eabi/6.3.1/../../../../arm-none-eabi/lib/thumb/v7e-m/fpv4-sp/hard/crt0.o (__libc_init_array)
c:/arm_gcc/bin/../lib/gcc/arm-none-eabi/6.3.1/../../../../arm-none-eabi/lib/thumb/v7e-m/fpv4-sp/hard\libg_nano.a(lib_a-malloc.o)
                              examples/light_switch/server/CMakeFiles/light_switch_server_nrf52840_xxAA_s140_6.0.0.dir/__/__/__/mesh/core/src/transport.c.obj (malloc)
c:/arm_gcc/bin/../lib/gcc/arm-none-eabi/6.3.1/../../../../arm-none-eabi/lib/thumb/v7e-m/fpv4-sp/hard\libg_nano.a(lib_a-memcmp.o)
                              examples/light_switch/server/CMakeFiles/light_switch_server_nrf52840_xxAA_s140_6.0.0.dir/__/__/__/mesh/core/src/cache.c.obj (memcmp)
c:/arm_gcc/bin/../lib/gcc/arm-none-eabi/6.3.1/../../../../arm-none-eabi/lib/thumb/v7e-m/fpv4-sp/hard\libg_nano.a(lib_a-memcpy-stub.o)
                              examples/light_switch/server/CMakeFiles/light_switch_server_nrf52840_xxAA_s140_6.0.0.dir/__/__/common/src/mesh_app_utils.c.obj (memcpy)
c:/arm_gcc/bin/../lib/gcc/arm-none-eabi/6.3.1/../../../../arm-none-eabi/lib/thumb/v7e-m/fpv4-sp/hard\libg_nano.a(lib_a-memset.o)
                              c:/arm_gcc/bin/../lib/gcc/arm-none-eabi/6.3.1/../../../../arm-none-eabi/lib/thumb/v7e-m/fpv4-sp/hard/crt0.o (memset)
c:/arm_gcc/bin/../lib/gcc/arm-none-eabi/6.3.1/../../../../arm-none-eabi/lib/thumb/v7e-m/fpv4-sp/hard\libg_nano.a(lib_a-nano-freer.o)
                              c:/arm_gcc/bin/../lib/gcc/arm-none-eabi/6.3.1/../../../../arm-none-eabi/lib/thumb/v7e-m/fpv4-sp/hard\libg_nano.a(lib_a-malloc.o) (_free_r)
c:/arm_gcc/bin/../lib/gcc/arm-none-eabi/6.3.1/../../../../arm-none-eabi/lib/thumb/v7e-m/fpv4-sp/hard\libg_nano.a(lib_a-nano-mallocr.o)
                              c:/arm_gcc/bin/../lib/gcc/arm-none-eabi/6.3.1/../../../../arm-none-eabi/lib/thumb/v7e-m/fpv4-sp/hard\libg_nano.a(lib_a-malloc.o) (_malloc_r)
c:/arm_gcc/bin/../lib/gcc/arm-none-eabi/6.3.1/../../../../arm-none-eabi/lib/thumb/v7e-m/fpv4-sp/hard\libg_nano.a(lib_a-sbrkr.o)
                              c:/arm_gcc/bin/../lib/gcc/arm-none-eabi/6.3.1/../../../../arm-none-eabi/lib/thumb/v7e-m/fpv4-sp/hard\libg_nano.a(lib_a-nano-mallocr.o) (_sbrk_r)
c:/arm_gcc/bin/../lib/gcc/arm-none-eabi/6.3.1/../../../../arm-none-eabi/lib/thumb/v7e-m/fpv4-sp/hard\libg_nano.a(lib_a-strcpy.o)
                              external/rtt/librtt_nrf52840_xxAA.a(SEGGER_RTT.c.obj) (strcpy)
c:/arm_gcc/bin/../lib/gcc/arm-none-eabi/6.3.1/../../../../arm-none-eabi/lib/thumb/v7e-m/fpv4-sp/hard\libg_nano.a(lib_a-strlen.o)
                              examples/light_switch/server/CMakeFiles/light_switch_server_nrf52840_xxAA_s140_6.0.0.dir/__/__/__/mesh/prov/src/prov_beacon.c.obj (strlen)
c:/arm_gcc/bin/../lib/gcc/arm-none-eabi/6.3.1/../../../../arm-none-eabi/lib/thumb/v7e-m/fpv4-sp/hard\libg_nano.a(lib_a-strrchr.o)
                              examples/light_switch/server/CMakeFiles/light_switch_server_nrf52840_xxAA_s140_6.0.0.dir/src/main.c.obj (strrchr)
c:/arm_gcc/bin/../lib/gcc/arm-none-eabi/6.3.1/../../../../arm-none-eabi/lib/thumb/v7e-m/fpv4-sp/hard\libg_nano.a(lib_a-mlock.o)
                              c:/arm_gcc/bin/../lib/gcc/arm-none-eabi/6.3.1/../../../../arm-none-eabi/lib/thumb/v7e-m/fpv4-sp/hard\libg_nano.a(lib_a-nano-freer.o) (__malloc_lock)
c:/arm_gcc/bin/../lib/gcc/arm-none-eabi/6.3.1/../../../../arm-none-eabi/lib/thumb/v7e-m/fpv4-sp/hard\libg_nano.a(lib_a-reent.o)
                              c:/arm_gcc/bin/../lib/gcc/arm-none-eabi/6.3.1/../../../../arm-none-eabi/lib/thumb/v7e-m/fpv4-sp/hard\libg_nano.a(lib_a-sbrkr.o) (errno)
c:/arm_gcc/bin/../lib/gcc/arm-none-eabi/6.3.1/../../../../arm-none-eabi/lib/thumb/v7e-m/fpv4-sp/hard\libg_nano.a(lib_a-strchr.o)
                              c:/arm_gcc/bin/../lib/gcc/arm-none-eabi/6.3.1/../../../../arm-none-eabi/lib/thumb/v7e-m/fpv4-sp/hard\libg_nano.a(lib_a-strrchr.o) (strchr)
c:/arm_gcc/bin/../lib/gcc/arm-none-eabi/6.3.1/../../../../arm-none-eabi/lib/thumb/v7e-m/fpv4-sp/hard\libnosys.a(sbrk.o)
                              c:/arm_gcc/bin/../lib/gcc/arm-none-eabi/6.3.1/../../../../arm-none-eabi/lib/thumb/v7e-m/fpv4-sp/hard\libg_nano.a(lib_a-sbrkr.o) (_sbrk)
c:/arm_gcc/bin/../lib/gcc/arm-none-eabi/6.3.1/../../../../arm-none-eabi/lib/thumb/v7e-m/fpv4-sp/hard\libnosys.a(_exit.o)
                              c:/arm_gcc/bin/../lib/gcc/arm-none-eabi/6.3.1/../../../../arm-none-eabi/lib/thumb/v7e-m/fpv4-sp/hard\libg_nano.a(lib_a-exit.o) (_exit)

Allocating common symbols
Common symbol       size              file

nrf_nvic_state      0xc               examples/light_switch/server/CMakeFiles/light_switch_server_nrf52840_xxAA_s140_6.0.0.dir/C_/sdks/nRF5_SDK_15.0.0_a53641a/components/libraries/util/app_util_platform.c.obj
m_packet            0x24              examples/light_switch/server/CMakeFiles/light_switch_server_nrf52840_xxAA_s140_6.0.0.dir/__/__/__/mesh/core/src/core_tx.c.obj
errno               0x4               c:/arm_gcc/bin/../lib/gcc/arm-none-eabi/6.3.1/../../../../arm-none-eabi/lib/thumb/v7e-m/fpv4-sp/hard\libg_nano.a(lib_a-reent.o)
_SEGGER_RTT         0x78              external/rtt/librtt_nrf52840_xxAA.a(SEGGER_RTT.c.obj)

Discarded input sections

 .text          0x00000000        0x0 c:/arm_gcc/bin/../lib/gcc/arm-none-eabi/6.3.1/thumb/v7e-m/fpv4-sp/hard/crti.o
 .data          0x00000000        0x0 c:/arm_gcc/bin/../lib/gcc/arm-none-eabi/6.3.1/thumb/v7e-m/fpv4-sp/hard/crti.o
 .bss           0x00000000        0x0 c:/arm_gcc/bin/../lib/gcc/arm-none-eabi/6.3.1/thumb/v7e-m/fpv4-sp/hard/crti.o
 .data          0x00000000        0x4 c:/arm_gcc/bin/../lib/gcc/arm-none-eabi/6.3.1/thumb/v7e-m/fpv4-sp/hard/crtbegin.o
 .data          0x00000000        0x0 c:/arm_gcc/bin/../lib/gcc/arm-none-eabi/6.3.1/../../../../arm-none-eabi/lib/thumb/v7e-m/fpv4-sp/hard/crt0.o
 .bss           0x00000000        0x0 c:/arm_gcc/bin/../lib/gcc/arm-none-eabi/6.3.1/../../../../arm-none-eabi/lib/thumb/v7e-m/fpv4-sp/hard/crt0.o
 .ARM.extab     0x00000000        0x0 c:/arm_gcc/bin/../lib/gcc/arm-none-eabi/6.3.1/../../../../arm-none-eabi/lib/thumb/v7e-m/fpv4-sp/hard/crt0.o
 .text          0x00000000        0x0 examples/light_switch/server/CMakeFiles/light_switch_server_nrf52840_xxAA_s140_6.0.0.dir/src/main.c.obj
 .data          0x00000000        0x0 examples/light_switch/server/CMakeFiles/light_switch_server_nrf52840_xxAA_s140_6.0.0.dir/src/main.c.obj
 .bss           0x00000000        0x0 examples/light_switch/server/CMakeFiles/light_switch_server_nrf52840_xxAA_s140_6.0.0.dir/src/main.c.obj
 .text          0x00000000        0x0 examples/light_switch/server/CMakeFiles/light_switch_server_nrf52840_xxAA_s140_6.0.0.dir/__/__/common/src/app_onoff.c.obj
 .data          0x00000000        0x0 examples/light_switch/server/CMakeFiles/light_switch_server_nrf52840_xxAA_s140_6.0.0.dir/__/__/common/src/app_onoff.c.obj
 .bss           0x00000000        0x0 examples/light_switch/server/CMakeFiles/light_switch_server_nrf52840_xxAA_s140_6.0.0.dir/__/__/common/src/app_onoff.c.obj
 .text          0x00000000        0x0 examples/light_switch/server/CMakeFiles/light_switch_server_nrf52840_xxAA_s140_6.0.0.dir/__/__/__/mesh/stack/src/mesh_stack.c.obj
 .data          0x00000000        0x0 examples/light_switch/server/CMakeFiles/light_switch_server_nrf52840_xxAA_s140_6.0.0.dir/__/__/__/mesh/stack/src/mesh_stack.c.obj
 .bss           0x00000000        0x0 examples/light_switch/server/CMakeFiles/light_switch_server_nrf52840_xxAA_s140_6.0.0.dir/__/__/__/mesh/stack/src/mesh_stack.c.obj
 .text.mesh_stack_persistence_flash_usage
                0x00000000       0x36 examples/light_switch/server/CMakeFiles/light_switch_server_nrf52840_xxAA_s140_6.0.0.dir/__/__/__/mesh/stack/src/mesh_stack.c.obj
 .text          0x00000000        0x0 examples/light_switch/server/CMakeFiles/light_switch_server_nrf52840_xxAA_s140_6.0.0.dir/__/__/common/src/mesh_softdevice_init.c.obj
 .data          0x00000000        0x0 examples/light_switch/server/CMakeFiles/light_switch_server_nrf52840_xxAA_s140_6.0.0.dir/__/__/common/src/mesh_softdevice_init.c.obj
 .bss           0x00000000        0x0 examples/light_switch/server/CMakeFiles/light_switch_server_nrf52840_xxAA_s140_6.0.0.dir/__/__/common/src/mesh_softdevice_init.c.obj
 .text          0x00000000        0x0 examples/light_switch/server/CMakeFiles/light_switch_server_nrf52840_xxAA_s140_6.0.0.dir/__/__/common/src/mesh_provisionee.c.obj
 .data          0x00000000        0x0 examples/light_switch/server/CMakeFiles/light_switch_server_nrf52840_xxAA_s140_6.0.0.dir/__/__/common/src/mesh_provisionee.c.obj
 .bss           0x00000000        0x0 examples/light_switch/server/CMakeFiles/light_switch_server_nrf52840_xxAA_s140_6.0.0.dir/__/__/common/src/mesh_provisionee.c.obj
 .text.mesh_provisionee_prov_listen_stop
                0x00000000        0xc examples/light_switch/server/CMakeFiles/light_switch_server_nrf52840_xxAA_s140_6.0.0.dir/__/__/common/src/mesh_provisionee.c.obj
 .text          0x00000000        0x0 examples/light_switch/server/CMakeFiles/light_switch_server_nrf52840_xxAA_s140_6.0.0.dir/__/__/common/src/rtt_input.c.obj
 .data          0x00000000        0x0 examples/light_switch/server/CMakeFiles/light_switch_server_nrf52840_xxAA_s140_6.0.0.dir/__/__/common/src/rtt_input.c.obj
 .bss           0x00000000        0x0 examples/light_switch/server/CMakeFiles/light_switch_server_nrf52840_xxAA_s140_6.0.0.dir/__/__/common/src/rtt_input.c.obj
 .text.rtt_input_disable
                0x00000000       0x28 examples/light_switch/server/CMakeFiles/light_switch_server_nrf52840_xxAA_s140_6.0.0.dir/__/__/common/src/rtt_input.c.obj
 .text          0x00000000        0x0 examples/light_switch/server/CMakeFiles/light_switch_server_nrf52840_xxAA_s140_6.0.0.dir/__/__/common/src/simple_hal.c.obj
 .data          0x00000000        0x0 examples/light_switch/server/CMakeFiles/light_switch_server_nrf52840_xxAA_s140_6.0.0.dir/__/__/common/src/simple_hal.c.obj
 .bss           0x00000000        0x0 examples/light_switch/server/CMakeFiles/light_switch_server_nrf52840_xxAA_s140_6.0.0.dir/__/__/common/src/simple_hal.c.obj
 .text          0x00000000        0x0 examples/light_switch/server/CMakeFiles/light_switch_server_nrf52840_xxAA_s140_6.0.0.dir/__/__/common/src/mesh_app_utils.c.obj
 .data          0x00000000        0x0 examples/light_switch/server/CMakeFiles/light_switch_server_nrf52840_xxAA_s140_6.0.0.dir/__/__/common/src/mesh_app_utils.c.obj
 .bss           0x00000000        0x0 examples/light_switch/server/CMakeFiles/light_switch_server_nrf52840_xxAA_s140_6.0.0.dir/__/__/common/src/mesh_app_utils.c.obj
 .text          0x00000000        0x0 examples/light_switch/server/CMakeFiles/light_switch_server_nrf52840_xxAA_s140_6.0.0.dir/__/__/nrf_mesh_weak.c.obj
 .data          0x00000000        0x0 examples/light_switch/server/CMakeFiles/light_switch_server_nrf52840_xxAA_s140_6.0.0.dir/__/__/nrf_mesh_weak.c.obj
 .bss           0x00000000        0x0 examples/light_switch/server/CMakeFiles/light_switch_server_nrf52840_xxAA_s140_6.0.0.dir/__/__/nrf_mesh_weak.c.obj
 .text._weak_handler_ptr
                0x00000000        0x4 examples/light_switch/server/CMakeFiles/light_switch_server_nrf52840_xxAA_s140_6.0.0.dir/__/__/nrf_mesh_weak.c.obj
 .text          0x00000000        0x0 examples/light_switch/server/CMakeFiles/light_switch_server_nrf52840_xxAA_s140_6.0.0.dir/__/__/common/src/app_error_weak.c.obj
 .data          0x00000000        0x0 examples/light_switch/server/CMakeFiles/light_switch_server_nrf52840_xxAA_s140_6.0.0.dir/__/__/common/src/app_error_weak.c.obj
 .bss           0x00000000        0x0 examples/light_switch/server/CMakeFiles/light_switch_server_nrf52840_xxAA_s140_6.0.0.dir/__/__/common/src/app_error_weak.c.obj
 .text          0x00000000        0x0 examples/light_switch/server/CMakeFiles/light_switch_server_nrf52840_xxAA_s140_6.0.0.dir/__/__/common/src/assertion_handler_weak.c.obj
 .data          0x00000000        0x0 examples/light_switch/server/CMakeFiles/light_switch_server_nrf52840_xxAA_s140_6.0.0.dir/__/__/common/src/assertion_handler_weak.c.obj
 .bss           0x00000000        0x0 examples/light_switch/server/CMakeFiles/light_switch_server_nrf52840_xxAA_s140_6.0.0.dir/__/__/common/src/assertion_handler_weak.c.obj
 .text          0x00000000        0x0 examples/light_switch/server/CMakeFiles/light_switch_server_nrf52840_xxAA_s140_6.0.0.dir/__/__/__/mesh/core/src/internal_event.c.obj
 .data          0x00000000        0x0 examples/light_switch/server/CMakeFiles/light_switch_server_nrf52840_xxAA_s140_6.0.0.dir/__/__/__/mesh/core/src/internal_event.c.obj
 .bss           0x00000000        0x0 examples/light_switch/server/CMakeFiles/light_switch_server_nrf52840_xxAA_s140_6.0.0.dir/__/__/__/mesh/core/src/internal_event.c.obj
 .debug_info    0x00000000      0x91e examples/light_switch/server/CMakeFiles/light_switch_server_nrf52840_xxAA_s140_6.0.0.dir/__/__/__/mesh/core/src/internal_event.c.obj
 .debug_abbrev  0x00000000      0x192 examples/light_switch/server/CMakeFiles/light_switch_server_nrf52840_xxAA_s140_6.0.0.dir/__/__/__/mesh/core/src/internal_event.c.obj
 .debug_aranges
                0x00000000       0x18 examples/light_switch/server/CMakeFiles/light_switch_server_nrf52840_xxAA_s140_6.0.0.dir/__/__/__/mesh/core/src/internal_event.c.obj
 .debug_line    0x00000000      0x1e5 examples/light_switch/server/CMakeFiles/light_switch_server_nrf52840_xxAA_s140_6.0.0.dir/__/__/__/mesh/core/src/internal_event.c.obj
 .debug_str     0x00000000      0x62f examples/light_switch/server/CMakeFiles/light_switch_server_nrf52840_xxAA_s140_6.0.0.dir/__/__/__/mesh/core/src/internal_event.c.obj
 .comment       0x00000000       0x80 examples/light_switch/server/CMakeFiles/light_switch_server_nrf52840_xxAA_s140_6.0.0.dir/__/__/__/mesh/core/src/internal_event.c.obj
 .ARM.attributes
                0x00000000       0x39 examples/light_switch/server/CMakeFiles/light_switch_server_nrf52840_xxAA_s140_6.0.0.dir/__/__/__/mesh/core/src/internal_event.c.obj
 .text          0x00000000        0x0 examples/light_switch/server/CMakeFiles/light_switch_server_nrf52840_xxAA_s140_6.0.0.dir/__/__/__/mesh/core/src/nrf_mesh_configure.c.obj
 .data          0x00000000        0x0 examples/light_switch/server/CMakeFiles/light_switch_server_nrf52840_xxAA_s140_6.0.0.dir/__/__/__/mesh/core/src/nrf_mesh_configure.c.obj
 .bss           0x00000000        0x0 examples/light_switch/server/CMakeFiles/light_switch_server_nrf52840_xxAA_s140_6.0.0.dir/__/__/__/mesh/core/src/nrf_mesh_configure.c.obj
 .text          0x00000000        0x0 examples/light_switch/server/CMakeFiles/light_switch_server_nrf52840_xxAA_s140_6.0.0.dir/__/__/__/mesh/core/src/aes.c.obj
 .data          0x00000000        0x0 examples/light_switch/server/CMakeFiles/light_switch_server_nrf52840_xxAA_s140_6.0.0.dir/__/__/__/mesh/core/src/aes.c.obj
 .bss           0x00000000        0x0 examples/light_switch/server/CMakeFiles/light_switch_server_nrf52840_xxAA_s140_6.0.0.dir/__/__/__/mesh/core/src/aes.c.obj
 .debug_info    0x00000000       0xb3 examples/light_switch/server/CMakeFiles/light_switch_server_nrf52840_xxAA_s140_6.0.0.dir/__/__/__/mesh/core/src/aes.c.obj
 .debug_abbrev  0x00000000       0x5c examples/light_switch/server/CMakeFiles/light_switch_server_nrf52840_xxAA_s140_6.0.0.dir/__/__/__/mesh/core/src/aes.c.obj
 .debug_aranges
                0x00000000       0x18 examples/light_switch/server/CMakeFiles/light_switch_server_nrf52840_xxAA_s140_6.0.0.dir/__/__/__/mesh/core/src/aes.c.obj
 .debug_line    0x00000000      0x123 examples/light_switch/server/CMakeFiles/light_switch_server_nrf52840_xxAA_s140_6.0.0.dir/__/__/__/mesh/core/src/aes.c.obj
 .debug_str     0x00000000      0x1f4 examples/light_switch/server/CMakeFiles/light_switch_server_nrf52840_xxAA_s140_6.0.0.dir/__/__/__/mesh/core/src/aes.c.obj
 .comment       0x00000000       0x80 examples/light_switch/server/CMakeFiles/light_switch_server_nrf52840_xxAA_s140_6.0.0.dir/__/__/__/mesh/core/src/aes.c.obj
 .ARM.attributes
                0x00000000       0x39 examples/light_switch/server/CMakeFiles/light_switch_server_nrf52840_xxAA_s140_6.0.0.dir/__/__/__/mesh/core/src/aes.c.obj
 .text          0x00000000        0x0 examples/light_switch/server/CMakeFiles/light_switch_server_nrf52840_xxAA_s140_6.0.0.dir/__/__/__/mesh/core/src/msg_cache.c.obj
 .data          0x00000000        0x0 examples/light_switch/server/CMakeFiles/light_switch_server_nrf52840_xxAA_s140_6.0.0.dir/__/__/__/mesh/core/src/msg_cache.c.obj
 .bss           0x00000000        0x0 examples/light_switch/server/CMakeFiles/light_switch_server_nrf52840_xxAA_s140_6.0.0.dir/__/__/__/mesh/core/src/msg_cache.c.obj
 .text.msg_cache_clear
                0x00000000       0x18 examples/light_switch/server/CMakeFiles/light_switch_server_nrf52840_xxAA_s140_6.0.0.dir/__/__/__/mesh/core/src/msg_cache.c.obj
 .text          0x00000000        0x0 examples/light_switch/server/CMakeFiles/light_switch_server_nrf52840_xxAA_s140_6.0.0.dir/__/__/__/mesh/core/src/transport.c.obj
 .data          0x00000000        0x0 examples/light_switch/server/CMakeFiles/light_switch_server_nrf52840_xxAA_s140_6.0.0.dir/__/__/__/mesh/core/src/transport.c.obj
 .bss           0x00000000        0x0 examples/light_switch/server/CMakeFiles/light_switch_server_nrf52840_xxAA_s140_6.0.0.dir/__/__/__/mesh/core/src/transport.c.obj
 .text.transport_sar_mem_funcs_set
                0x00000000       0x44 examples/light_switch/server/CMakeFiles/light_switch_server_nrf52840_xxAA_s140_6.0.0.dir/__/__/__/mesh/core/src/transport.c.obj
 .text.transport_opt_set
                0x00000000       0xd0 examples/light_switch/server/CMakeFiles/light_switch_server_nrf52840_xxAA_s140_6.0.0.dir/__/__/__/mesh/core/src/transport.c.obj
 .text.transport_opt_get
                0x00000000       0x68 examples/light_switch/server/CMakeFiles/light_switch_server_nrf52840_xxAA_s140_6.0.0.dir/__/__/__/mesh/core/src/transport.c.obj
 .text          0x00000000        0x0 examples/light_switch/server/CMakeFiles/light_switch_server_nrf52840_xxAA_s140_6.0.0.dir/__/__/__/mesh/core/src/event.c.obj
 .data          0x00000000        0x0 examples/light_switch/server/CMakeFiles/light_switch_server_nrf52840_xxAA_s140_6.0.0.dir/__/__/__/mesh/core/src/event.c.obj
 .bss           0x00000000        0x0 examples/light_switch/server/CMakeFiles/light_switch_server_nrf52840_xxAA_s140_6.0.0.dir/__/__/__/mesh/core/src/event.c.obj
 .text          0x00000000        0x0 examples/light_switch/server/CMakeFiles/light_switch_server_nrf52840_xxAA_s140_6.0.0.dir/__/__/__/mesh/core/src/packet_buffer.c.obj
 .data          0x00000000        0x0 examples/light_switch/server/CMakeFiles/light_switch_server_nrf52840_xxAA_s140_6.0.0.dir/__/__/__/mesh/core/src/packet_buffer.c.obj
 .bss           0x00000000        0x0 examples/light_switch/server/CMakeFiles/light_switch_server_nrf52840_xxAA_s140_6.0.0.dir/__/__/__/mesh/core/src/packet_buffer.c.obj
 .text.packet_buffer_max_packet_len_get
                0x00000000       0x20 examples/light_switch/server/CMakeFiles/light_switch_server_nrf52840_xxAA_s140_6.0.0.dir/__/__/__/mesh/core/src/packet_buffer.c.obj
 .text          0x00000000        0x0 examples/light_switch/server/CMakeFiles/light_switch_server_nrf52840_xxAA_s140_6.0.0.dir/__/__/__/mesh/core/src/flash_manager_defrag.c.obj
 .data          0x00000000        0x0 examples/light_switch/server/CMakeFiles/light_switch_server_nrf52840_xxAA_s140_6.0.0.dir/__/__/__/mesh/core/src/flash_manager_defrag.c.obj
 .bss           0x00000000        0x0 examples/light_switch/server/CMakeFiles/light_switch_server_nrf52840_xxAA_s140_6.0.0.dir/__/__/__/mesh/core/src/flash_manager_defrag.c.obj
 .text.flash_manager_defragging
                0x00000000       0x38 examples/light_switch/server/CMakeFiles/light_switch_server_nrf52840_xxAA_s140_6.0.0.dir/__/__/__/mesh/core/src/flash_manager_defrag.c.obj
 .text          0x00000000        0x0 examples/light_switch/server/CMakeFiles/light_switch_server_nrf52840_xxAA_s140_6.0.0.dir/__/__/__/mesh/core/src/fifo.c.obj
 .data          0x00000000        0x0 examples/light_switch/server/CMakeFiles/light_switch_server_nrf52840_xxAA_s140_6.0.0.dir/__/__/__/mesh/core/src/fifo.c.obj
 .bss           0x00000000        0x0 examples/light_switch/server/CMakeFiles/light_switch_server_nrf52840_xxAA_s140_6.0.0.dir/__/__/__/mesh/core/src/fifo.c.obj
 .text.fifo_peek_at
                0x00000000       0x50 examples/light_switch/server/CMakeFiles/light_switch_server_nrf52840_xxAA_s140_6.0.0.dir/__/__/__/mesh/core/src/fifo.c.obj
 .text.fifo_peek
                0x00000000        0x6 examples/light_switch/server/CMakeFiles/light_switch_server_nrf52840_xxAA_s140_6.0.0.dir/__/__/__/mesh/core/src/fifo.c.obj
 .text.fifo_flush
                0x00000000        0x6 examples/light_switch/server/CMakeFiles/light_switch_server_nrf52840_xxAA_s140_6.0.0.dir/__/__/__/mesh/core/src/fifo.c.obj
 .text.fifo_get_len
                0x00000000        0x8 examples/light_switch/server/CMakeFiles/light_switch_server_nrf52840_xxAA_s140_6.0.0.dir/__/__/__/mesh/core/src/fifo.c.obj
 .text.fifo_is_full
                0x00000000       0x10 examples/light_switch/server/CMakeFiles/light_switch_server_nrf52840_xxAA_s140_6.0.0.dir/__/__/__/mesh/core/src/fifo.c.obj
 .text.fifo_is_empty
                0x00000000        0xc examples/light_switch/server/CMakeFiles/light_switch_server_nrf52840_xxAA_s140_6.0.0.dir/__/__/__/mesh/core/src/fifo.c.obj
 .text          0x00000000        0x0 examples/light_switch/server/CMakeFiles/light_switch_server_nrf52840_xxAA_s140_6.0.0.dir/__/__/__/mesh/core/src/nrf_flash.c.obj
 .data          0x00000000        0x0 examples/light_switch/server/CMakeFiles/light_switch_server_nrf52840_xxAA_s140_6.0.0.dir/__/__/__/mesh/core/src/nrf_flash.c.obj
 .bss           0x00000000        0x0 examples/light_switch/server/CMakeFiles/light_switch_server_nrf52840_xxAA_s140_6.0.0.dir/__/__/__/mesh/core/src/nrf_flash.c.obj
 .text          0x00000000        0x0 examples/light_switch/server/CMakeFiles/light_switch_server_nrf52840_xxAA_s140_6.0.0.dir/__/__/__/mesh/core/src/packet_mgr.c.obj
 .data          0x00000000        0x0 examples/light_switch/server/CMakeFiles/light_switch_server_nrf52840_xxAA_s140_6.0.0.dir/__/__/__/mesh/core/src/packet_mgr.c.obj
 .bss           0x00000000        0x0 examples/light_switch/server/CMakeFiles/light_switch_server_nrf52840_xxAA_s140_6.0.0.dir/__/__/__/mesh/core/src/packet_mgr.c.obj
 .text.packet_mgr_alloc
                0x00000000      0x17c examples/light_switch/server/CMakeFiles/light_switch_server_nrf52840_xxAA_s140_6.0.0.dir/__/__/__/mesh/core/src/packet_mgr.c.obj
 .text.packet_mgr_free
                0x00000000       0x58 examples/light_switch/server/CMakeFiles/light_switch_server_nrf52840_xxAA_s140_6.0.0.dir/__/__/__/mesh/core/src/packet_mgr.c.obj
 .text.packet_mgr_get_free_space
                0x00000000       0x1c examples/light_switch/server/CMakeFiles/light_switch_server_nrf52840_xxAA_s140_6.0.0.dir/__/__/__/mesh/core/src/packet_mgr.c.obj
 .text.packet_mgr_refcount_get
                0x00000000        0x6 examples/light_switch/server/CMakeFiles/light_switch_server_nrf52840_xxAA_s140_6.0.0.dir/__/__/__/mesh/core/src/packet_mgr.c.obj
 .text.packet_mgr_size_get
                0x00000000        0x6 examples/light_switch/server/CMakeFiles/light_switch_server_nrf52840_xxAA_s140_6.0.0.dir/__/__/__/mesh/core/src/packet_mgr.c.obj
 .text          0x00000000        0x0 examples/light_switch/server/CMakeFiles/light_switch_server_nrf52840_xxAA_s140_6.0.0.dir/__/__/__/mesh/core/src/net_state.c.obj
 .data          0x00000000        0x0 examples/light_switch/server/CMakeFiles/light_switch_server_nrf52840_xxAA_s140_6.0.0.dir/__/__/__/mesh/core/src/net_state.c.obj
 .bss           0x00000000        0x0 examples/light_switch/server/CMakeFiles/light_switch_server_nrf52840_xxAA_s140_6.0.0.dir/__/__/__/mesh/core/src/net_state.c.obj
 .text.net_state_iv_update_test_mode_set
                0x00000000        0xc examples/light_switch/server/CMakeFiles/light_switch_server_nrf52840_xxAA_s140_6.0.0.dir/__/__/__/mesh/core/src/net_state.c.obj
 .text.net_state_test_mode_transition_run
                0x00000000       0x2c examples/light_switch/server/CMakeFiles/light_switch_server_nrf52840_xxAA_s140_6.0.0.dir/__/__/__/mesh/core/src/net_state.c.obj
 .text          0x00000000        0x0 examples/light_switch/server/CMakeFiles/light_switch_server_nrf52840_xxAA_s140_6.0.0.dir/__/__/__/mesh/core/src/mesh_flash.c.obj
 .data          0x00000000        0x0 examples/light_switch/server/CMakeFiles/light_switch_server_nrf52840_xxAA_s140_6.0.0.dir/__/__/__/mesh/core/src/mesh_flash.c.obj
 .bss           0x00000000        0x0 examples/light_switch/server/CMakeFiles/light_switch_server_nrf52840_xxAA_s140_6.0.0.dir/__/__/__/mesh/core/src/mesh_flash.c.obj
 .text.mesh_flash_op_available_slots
                0x00000000       0x2c examples/light_switch/server/CMakeFiles/light_switch_server_nrf52840_xxAA_s140_6.0.0.dir/__/__/__/mesh/core/src/mesh_flash.c.obj
 .text.mesh_flash_in_progress
                0x00000000       0x34 examples/light_switch/server/CMakeFiles/light_switch_server_nrf52840_xxAA_s140_6.0.0.dir/__/__/__/mesh/core/src/mesh_flash.c.obj
 .text.mesh_flash_set_suspended
                0x00000000       0x74 examples/light_switch/server/CMakeFiles/light_switch_server_nrf52840_xxAA_s140_6.0.0.dir/__/__/__/mesh/core/src/mesh_flash.c.obj
 .bss.suspend_count.10501
                0x00000000        0x4 examples/light_switch/server/CMakeFiles/light_switch_server_nrf52840_xxAA_s140_6.0.0.dir/__/__/__/mesh/core/src/mesh_flash.c.obj
 .text          0x00000000        0x0 examples/light_switch/server/CMakeFiles/light_switch_server_nrf52840_xxAA_s140_6.0.0.dir/__/__/__/mesh/core/src/nrf_mesh_utils.c.obj
 .data          0x00000000        0x0 examples/light_switch/server/CMakeFiles/light_switch_server_nrf52840_xxAA_s140_6.0.0.dir/__/__/__/mesh/core/src/nrf_mesh_utils.c.obj
 .bss           0x00000000        0x0 examples/light_switch/server/CMakeFiles/light_switch_server_nrf52840_xxAA_s140_6.0.0.dir/__/__/__/mesh/core/src/nrf_mesh_utils.c.obj
 .text.nrf_mesh_rand_get
                0x00000000       0x10 examples/light_switch/server/CMakeFiles/light_switch_server_nrf52840_xxAA_s140_6.0.0.dir/__/__/__/mesh/core/src/nrf_mesh_utils.c.obj
 .text.nrf_mesh_gap_address_type_get
                0x00000000       0x30 examples/light_switch/server/CMakeFiles/light_switch_server_nrf52840_xxAA_s140_6.0.0.dir/__/__/__/mesh/core/src/nrf_mesh_utils.c.obj
 .text          0x00000000        0x0 examples/light_switch/server/CMakeFiles/light_switch_server_nrf52840_xxAA_s140_6.0.0.dir/__/__/__/mesh/core/src/nrf_mesh.c.obj
 .data          0x00000000        0x0 examples/light_switch/server/CMakeFiles/light_switch_server_nrf52840_xxAA_s140_6.0.0.dir/__/__/__/mesh/core/src/nrf_mesh.c.obj
 .bss           0x00000000        0x0 examples/light_switch/server/CMakeFiles/light_switch_server_nrf52840_xxAA_s140_6.0.0.dir/__/__/__/mesh/core/src/nrf_mesh.c.obj
 .text.nrf_mesh_disable
                0x00000000       0x28 examples/light_switch/server/CMakeFiles/light_switch_server_nrf52840_xxAA_s140_6.0.0.dir/__/__/__/mesh/core/src/nrf_mesh.c.obj
 .text.nrf_mesh_process
                0x00000000        0x4 examples/light_switch/server/CMakeFiles/light_switch_server_nrf52840_xxAA_s140_6.0.0.dir/__/__/__/mesh/core/src/nrf_mesh.c.obj
 .text.nrf_mesh_evt_handler_remove
                0x00000000        0x4 examples/light_switch/server/CMakeFiles/light_switch_server_nrf52840_xxAA_s140_6.0.0.dir/__/__/__/mesh/core/src/nrf_mesh.c.obj
 .text.nrf_mesh_rx_cb_set
                0x00000000        0xc examples/light_switch/server/CMakeFiles/light_switch_server_nrf52840_xxAA_s140_6.0.0.dir/__/__/__/mesh/core/src/nrf_mesh.c.obj
 .text.nrf_mesh_rx_cb_clear
                0x00000000        0xc examples/light_switch/server/CMakeFiles/light_switch_server_nrf52840_xxAA_s140_6.0.0.dir/__/__/__/mesh/core/src/nrf_mesh.c.obj
 .text          0x00000000        0x0 examples/light_switch/server/CMakeFiles/light_switch_server_nrf52840_xxAA_s140_6.0.0.dir/__/__/__/mesh/core/src/queue.c.obj
 .data          0x00000000        0x0 examples/light_switch/server/CMakeFiles/light_switch_server_nrf52840_xxAA_s140_6.0.0.dir/__/__/__/mesh/core/src/queue.c.obj
 .bss           0x00000000        0x0 examples/light_switch/server/CMakeFiles/light_switch_server_nrf52840_xxAA_s140_6.0.0.dir/__/__/__/mesh/core/src/queue.c.obj
 .text          0x00000000        0x0 examples/light_switch/server/CMakeFiles/light_switch_server_nrf52840_xxAA_s140_6.0.0.dir/__/__/__/mesh/core/src/hal.c.obj
 .data          0x00000000        0x0 examples/light_switch/server/CMakeFiles/light_switch_server_nrf52840_xxAA_s140_6.0.0.dir/__/__/__/mesh/core/src/hal.c.obj
 .bss           0x00000000        0x0 examples/light_switch/server/CMakeFiles/light_switch_server_nrf52840_xxAA_s140_6.0.0.dir/__/__/__/mesh/core/src/hal.c.obj
 .text          0x00000000        0x0 examples/light_switch/server/CMakeFiles/light_switch_server_nrf52840_xxAA_s140_6.0.0.dir/__/__/__/mesh/core/src/aes_cmac.c.obj
 .data          0x00000000        0x0 examples/light_switch/server/CMakeFiles/light_switch_server_nrf52840_xxAA_s140_6.0.0.dir/__/__/__/mesh/core/src/aes_cmac.c.obj
 .bss           0x00000000        0x0 examples/light_switch/server/CMakeFiles/light_switch_server_nrf52840_xxAA_s140_6.0.0.dir/__/__/__/mesh/core/src/aes_cmac.c.obj
 .text          0x00000000        0x0 examples/light_switch/server/CMakeFiles/light_switch_server_nrf52840_xxAA_s140_6.0.0.dir/__/__/__/mesh/core/src/timer_scheduler.c.obj
 .data          0x00000000        0x0 examples/light_switch/server/CMakeFiles/light_switch_server_nrf52840_xxAA_s140_6.0.0.dir/__/__/__/mesh/core/src/timer_scheduler.c.obj
 .bss           0x00000000        0x0 examples/light_switch/server/CMakeFiles/light_switch_server_nrf52840_xxAA_s140_6.0.0.dir/__/__/__/mesh/core/src/timer_scheduler.c.obj
 .text.timer_sch_is_scheduled
                0x00000000       0x16 examples/light_switch/server/CMakeFiles/light_switch_server_nrf52840_xxAA_s140_6.0.0.dir/__/__/__/mesh/core/src/timer_scheduler.c.obj
 .text          0x00000000        0x0 examples/light_switch/server/CMakeFiles/light_switch_server_nrf52840_xxAA_s140_6.0.0.dir/__/__/__/mesh/core/src/timer.c.obj
 .data          0x00000000        0x0 examples/light_switch/server/CMakeFiles/light_switch_server_nrf52840_xxAA_s140_6.0.0.dir/__/__/__/mesh/core/src/timer.c.obj
 .bss           0x00000000        0x0 examples/light_switch/server/CMakeFiles/light_switch_server_nrf52840_xxAA_s140_6.0.0.dir/__/__/__/mesh/core/src/timer.c.obj
 .text.timer_order_cb_ppi
                0x00000000       0xc4 examples/light_switch/server/CMakeFiles/light_switch_server_nrf52840_xxAA_s140_6.0.0.dir/__/__/__/mesh/core/src/timer.c.obj
 .text.timer_order_ppi
                0x00000000       0xc0 examples/light_switch/server/CMakeFiles/light_switch_server_nrf52840_xxAA_s140_6.0.0.dir/__/__/__/mesh/core/src/timer.c.obj
 .text.timer_abort
                0x00000000       0x78 examples/light_switch/server/CMakeFiles/light_switch_server_nrf52840_xxAA_s140_6.0.0.dir/__/__/__/mesh/core/src/timer.c.obj
 .text          0x00000000        0x0 examples/light_switch/server/CMakeFiles/light_switch_server_nrf52840_xxAA_s140_6.0.0.dir/__/__/__/mesh/core/src/rand.c.obj
 .data          0x00000000        0x0 examples/light_switch/server/CMakeFiles/light_switch_server_nrf52840_xxAA_s140_6.0.0.dir/__/__/__/mesh/core/src/rand.c.obj
 .bss           0x00000000        0x0 examples/light_switch/server/CMakeFiles/light_switch_server_nrf52840_xxAA_s140_6.0.0.dir/__/__/__/mesh/core/src/rand.c.obj
 .text          0x00000000        0x0 examples/light_switch/server/CMakeFiles/light_switch_server_nrf52840_xxAA_s140_6.0.0.dir/__/__/__/mesh/core/src/nrf_mesh_opt.c.obj
 .data          0x00000000        0x0 examples/light_switch/server/CMakeFiles/light_switch_server_nrf52840_xxAA_s140_6.0.0.dir/__/__/__/mesh/core/src/nrf_mesh_opt.c.obj
 .bss           0x00000000        0x0 examples/light_switch/server/CMakeFiles/light_switch_server_nrf52840_xxAA_s140_6.0.0.dir/__/__/__/mesh/core/src/nrf_mesh_opt.c.obj
 .text.nrf_mesh_opt_set
                0x00000000       0x26 examples/light_switch/server/CMakeFiles/light_switch_server_nrf52840_xxAA_s140_6.0.0.dir/__/__/__/mesh/core/src/nrf_mesh_opt.c.obj
 .text.nrf_mesh_opt_get
                0x00000000       0x26 examples/light_switch/server/CMakeFiles/light_switch_server_nrf52840_xxAA_s140_6.0.0.dir/__/__/__/mesh/core/src/nrf_mesh_opt.c.obj
 .debug_info    0x00000000      0xb2f examples/light_switch/server/CMakeFiles/light_switch_server_nrf52840_xxAA_s140_6.0.0.dir/__/__/__/mesh/core/src/nrf_mesh_opt.c.obj
 .debug_abbrev  0x00000000      0x24a examples/light_switch/server/CMakeFiles/light_switch_server_nrf52840_xxAA_s140_6.0.0.dir/__/__/__/mesh/core/src/nrf_mesh_opt.c.obj
 .debug_loc     0x00000000      0x194 examples/light_switch/server/CMakeFiles/light_switch_server_nrf52840_xxAA_s140_6.0.0.dir/__/__/__/mesh/core/src/nrf_mesh_opt.c.obj
 .debug_aranges
                0x00000000       0x28 examples/light_switch/server/CMakeFiles/light_switch_server_nrf52840_xxAA_s140_6.0.0.dir/__/__/__/mesh/core/src/nrf_mesh_opt.c.obj
 .debug_ranges  0x00000000       0x18 examples/light_switch/server/CMakeFiles/light_switch_server_nrf52840_xxAA_s140_6.0.0.dir/__/__/__/mesh/core/src/nrf_mesh_opt.c.obj
 .debug_line    0x00000000      0x299 examples/light_switch/server/CMakeFiles/light_switch_server_nrf52840_xxAA_s140_6.0.0.dir/__/__/__/mesh/core/src/nrf_mesh_opt.c.obj
 .debug_str     0x00000000      0x95f examples/light_switch/server/CMakeFiles/light_switch_server_nrf52840_xxAA_s140_6.0.0.dir/__/__/__/mesh/core/src/nrf_mesh_opt.c.obj
 .comment       0x00000000       0x80 examples/light_switch/server/CMakeFiles/light_switch_server_nrf52840_xxAA_s140_6.0.0.dir/__/__/__/mesh/core/src/nrf_mesh_opt.c.obj
 .debug_frame   0x00000000       0x30 examples/light_switch/server/CMakeFiles/light_switch_server_nrf52840_xxAA_s140_6.0.0.dir/__/__/__/mesh/core/src/nrf_mesh_opt.c.obj
 .ARM.attributes
                0x00000000       0x39 examples/light_switch/server/CMakeFiles/light_switch_server_nrf52840_xxAA_s140_6.0.0.dir/__/__/__/mesh/core/src/nrf_mesh_opt.c.obj
 .text          0x00000000        0x0 examples/light_switch/server/CMakeFiles/light_switch_server_nrf52840_xxAA_s140_6.0.0.dir/__/__/__/mesh/core/src/mesh_opt.c.obj
 .data          0x00000000        0x0 examples/light_switch/server/CMakeFiles/light_switch_server_nrf52840_xxAA_s140_6.0.0.dir/__/__/__/mesh/core/src/mesh_opt.c.obj
 .bss           0x00000000        0x0 examples/light_switch/server/CMakeFiles/light_switch_server_nrf52840_xxAA_s140_6.0.0.dir/__/__/__/mesh/core/src/mesh_opt.c.obj
 .text          0x00000000        0x0 examples/light_switch/server/CMakeFiles/light_switch_server_nrf52840_xxAA_s140_6.0.0.dir/__/__/__/mesh/core/src/timeslot.c.obj
 .data          0x00000000        0x0 examples/light_switch/server/CMakeFiles/light_switch_server_nrf52840_xxAA_s140_6.0.0.dir/__/__/__/mesh/core/src/timeslot.c.obj
 .bss           0x00000000        0x0 examples/light_switch/server/CMakeFiles/light_switch_server_nrf52840_xxAA_s140_6.0.0.dir/__/__/__/mesh/core/src/timeslot.c.obj
 .text.timeslot_end_time_get
                0x00000000       0x10 examples/light_switch/server/CMakeFiles/light_switch_server_nrf52840_xxAA_s140_6.0.0.dir/__/__/__/mesh/core/src/timeslot.c.obj
 .text.timeslot_is_in_ts
                0x00000000        0xc examples/light_switch/server/CMakeFiles/light_switch_server_nrf52840_xxAA_s140_6.0.0.dir/__/__/__/mesh/core/src/timeslot.c.obj
 .text.timeslot_restart
                0x00000000       0x10 examples/light_switch/server/CMakeFiles/light_switch_server_nrf52840_xxAA_s140_6.0.0.dir/__/__/__/mesh/core/src/timeslot.c.obj
 .text          0x00000000        0x0 examples/light_switch/server/CMakeFiles/light_switch_server_nrf52840_xxAA_s140_6.0.0.dir/__/__/__/mesh/core/src/bearer_event.c.obj
 .data          0x00000000        0x0 examples/light_switch/server/CMakeFiles/light_switch_server_nrf52840_xxAA_s140_6.0.0.dir/__/__/__/mesh/core/src/bearer_event.c.obj
 .bss           0x00000000        0x0 examples/light_switch/server/CMakeFiles/light_switch_server_nrf52840_xxAA_s140_6.0.0.dir/__/__/__/mesh/core/src/bearer_event.c.obj
 .text.bearer_event_generic_post
                0x00000000       0x24 examples/light_switch/server/CMakeFiles/light_switch_server_nrf52840_xxAA_s140_6.0.0.dir/__/__/__/mesh/core/src/bearer_event.c.obj
 .text.bearer_event_timer_sch_post
                0x00000000       0x26 examples/light_switch/server/CMakeFiles/light_switch_server_nrf52840_xxAA_s140_6.0.0.dir/__/__/__/mesh/core/src/bearer_event.c.obj
 .text          0x00000000        0x0 examples/light_switch/server/CMakeFiles/light_switch_server_nrf52840_xxAA_s140_6.0.0.dir/__/__/__/mesh/core/src/enc.c.obj
 .data          0x00000000        0x0 examples/light_switch/server/CMakeFiles/light_switch_server_nrf52840_xxAA_s140_6.0.0.dir/__/__/__/mesh/core/src/enc.c.obj
 .bss           0x00000000        0x0 examples/light_switch/server/CMakeFiles/light_switch_server_nrf52840_xxAA_s140_6.0.0.dir/__/__/__/mesh/core/src/enc.c.obj
 .text.enc_key_generate
                0x00000000        0x6 examples/light_switch/server/CMakeFiles/light_switch_server_nrf52840_xxAA_s140_6.0.0.dir/__/__/__/mesh/core/src/enc.c.obj
 .text          0x00000000        0x0 examples/light_switch/server/CMakeFiles/light_switch_server_nrf52840_xxAA_s140_6.0.0.dir/__/__/__/mesh/core/src/network.c.obj
 .data          0x00000000        0x0 examples/light_switch/server/CMakeFiles/light_switch_server_nrf52840_xxAA_s140_6.0.0.dir/__/__/__/mesh/core/src/network.c.obj
 .bss           0x00000000        0x0 examples/light_switch/server/CMakeFiles/light_switch_server_nrf52840_xxAA_s140_6.0.0.dir/__/__/__/mesh/core/src/network.c.obj
 .text.network_packet_discard
                0x00000000       0x1e examples/light_switch/server/CMakeFiles/light_switch_server_nrf52840_xxAA_s140_6.0.0.dir/__/__/__/mesh/core/src/network.c.obj
 .text.network_opt_set
                0x00000000       0xc0 examples/light_switch/server/CMakeFiles/light_switch_server_nrf52840_xxAA_s140_6.0.0.dir/__/__/__/mesh/core/src/network.c.obj
 .text.network_opt_get
                0x00000000       0x88 examples/light_switch/server/CMakeFiles/light_switch_server_nrf52840_xxAA_s140_6.0.0.dir/__/__/__/mesh/core/src/network.c.obj
 .text          0x00000000        0x0 examples/light_switch/server/CMakeFiles/light_switch_server_nrf52840_xxAA_s140_6.0.0.dir/__/__/__/mesh/core/src/net_packet.c.obj
 .data          0x00000000        0x0 examples/light_switch/server/CMakeFiles/light_switch_server_nrf52840_xxAA_s140_6.0.0.dir/__/__/__/mesh/core/src/net_packet.c.obj
 .bss           0x00000000        0x0 examples/light_switch/server/CMakeFiles/light_switch_server_nrf52840_xxAA_s140_6.0.0.dir/__/__/__/mesh/core/src/net_packet.c.obj
 .text.net_packet_enc_start_get
                0x00000000        0x4 examples/light_switch/server/CMakeFiles/light_switch_server_nrf52840_xxAA_s140_6.0.0.dir/__/__/__/mesh/core/src/net_packet.c.obj
 .text.net_packet_payload_get
                0x00000000        0x4 examples/light_switch/server/CMakeFiles/light_switch_server_nrf52840_xxAA_s140_6.0.0.dir/__/__/__/mesh/core/src/net_packet.c.obj
 .text          0x00000000        0x0 examples/light_switch/server/CMakeFiles/light_switch_server_nrf52840_xxAA_s140_6.0.0.dir/__/__/__/mesh/core/src/msqueue.c.obj
 .data          0x00000000        0x0 examples/light_switch/server/CMakeFiles/light_switch_server_nrf52840_xxAA_s140_6.0.0.dir/__/__/__/mesh/core/src/msqueue.c.obj
 .bss           0x00000000        0x0 examples/light_switch/server/CMakeFiles/light_switch_server_nrf52840_xxAA_s140_6.0.0.dir/__/__/__/mesh/core/src/msqueue.c.obj
 .text          0x00000000        0x0 examples/light_switch/server/CMakeFiles/light_switch_server_nrf52840_xxAA_s140_6.0.0.dir/__/__/__/mesh/core/src/nrf_mesh_keygen.c.obj
 .data          0x00000000        0x0 examples/light_switch/server/CMakeFiles/light_switch_server_nrf52840_xxAA_s140_6.0.0.dir/__/__/__/mesh/core/src/nrf_mesh_keygen.c.obj
 .bss           0x00000000        0x0 examples/light_switch/server/CMakeFiles/light_switch_server_nrf52840_xxAA_s140_6.0.0.dir/__/__/__/mesh/core/src/nrf_mesh_keygen.c.obj
 .text.nrf_mesh_keygen_identitykey
                0x00000000       0x4c examples/light_switch/server/CMakeFiles/light_switch_server_nrf52840_xxAA_s140_6.0.0.dir/__/__/__/mesh/core/src/nrf_mesh_keygen.c.obj
 .text          0x00000000        0x0 examples/light_switch/server/CMakeFiles/light_switch_server_nrf52840_xxAA_s140_6.0.0.dir/__/__/__/mesh/core/src/cache.c.obj
 .data          0x00000000        0x0 examples/light_switch/server/CMakeFiles/light_switch_server_nrf52840_xxAA_s140_6.0.0.dir/__/__/__/mesh/core/src/cache.c.obj
 .bss           0x00000000        0x0 examples/light_switch/server/CMakeFiles/light_switch_server_nrf52840_xxAA_s140_6.0.0.dir/__/__/__/mesh/core/src/cache.c.obj
 .text.erase_at
                0x00000000       0x1c examples/light_switch/server/CMakeFiles/light_switch_server_nrf52840_xxAA_s140_6.0.0.dir/__/__/__/mesh/core/src/cache.c.obj
 .text.cache_init
                0x00000000       0x1e examples/light_switch/server/CMakeFiles/light_switch_server_nrf52840_xxAA_s140_6.0.0.dir/__/__/__/mesh/core/src/cache.c.obj
 .text.cache_has_elem
                0x00000000       0x3e examples/light_switch/server/CMakeFiles/light_switch_server_nrf52840_xxAA_s140_6.0.0.dir/__/__/__/mesh/core/src/cache.c.obj
 .text.cache_put
                0x00000000       0x2a examples/light_switch/server/CMakeFiles/light_switch_server_nrf52840_xxAA_s140_6.0.0.dir/__/__/__/mesh/core/src/cache.c.obj
 .text.cache_erase_elem
                0x00000000       0x4c examples/light_switch/server/CMakeFiles/light_switch_server_nrf52840_xxAA_s140_6.0.0.dir/__/__/__/mesh/core/src/cache.c.obj
 .debug_info    0x00000000      0xbe1 examples/light_switch/server/CMakeFiles/light_switch_server_nrf52840_xxAA_s140_6.0.0.dir/__/__/__/mesh/core/src/cache.c.obj
 .debug_abbrev  0x00000000      0x2a3 examples/light_switch/server/CMakeFiles/light_switch_server_nrf52840_xxAA_s140_6.0.0.dir/__/__/__/mesh/core/src/cache.c.obj
 .debug_loc     0x00000000      0x29b examples/light_switch/server/CMakeFiles/light_switch_server_nrf52840_xxAA_s140_6.0.0.dir/__/__/__/mesh/core/src/cache.c.obj
 .debug_aranges
                0x00000000       0x40 examples/light_switch/server/CMakeFiles/light_switch_server_nrf52840_xxAA_s140_6.0.0.dir/__/__/__/mesh/core/src/cache.c.obj
 .debug_ranges  0x00000000       0x80 examples/light_switch/server/CMakeFiles/light_switch_server_nrf52840_xxAA_s140_6.0.0.dir/__/__/__/mesh/core/src/cache.c.obj
 .debug_line    0x00000000      0x20a examples/light_switch/server/CMakeFiles/light_switch_server_nrf52840_xxAA_s140_6.0.0.dir/__/__/__/mesh/core/src/cache.c.obj
 .debug_str     0x00000000      0x6af examples/light_switch/server/CMakeFiles/light_switch_server_nrf52840_xxAA_s140_6.0.0.dir/__/__/__/mesh/core/src/cache.c.obj
 .comment       0x00000000       0x80 examples/light_switch/server/CMakeFiles/light_switch_server_nrf52840_xxAA_s140_6.0.0.dir/__/__/__/mesh/core/src/cache.c.obj
 .debug_frame   0x00000000       0xb0 examples/light_switch/server/CMakeFiles/light_switch_server_nrf52840_xxAA_s140_6.0.0.dir/__/__/__/mesh/core/src/cache.c.obj
 .ARM.attributes
                0x00000000       0x39 examples/light_switch/server/CMakeFiles/light_switch_server_nrf52840_xxAA_s140_6.0.0.dir/__/__/__/mesh/core/src/cache.c.obj
 .text          0x00000000        0x0 examples/light_switch/server/CMakeFiles/light_switch_server_nrf52840_xxAA_s140_6.0.0.dir/__/__/__/mesh/core/src/list.c.obj
 .data          0x00000000        0x0 examples/light_switch/server/CMakeFiles/light_switch_server_nrf52840_xxAA_s140_6.0.0.dir/__/__/__/mesh/core/src/list.c.obj
 .bss           0x00000000        0x0 examples/light_switch/server/CMakeFiles/light_switch_server_nrf52840_xxAA_s140_6.0.0.dir/__/__/__/mesh/core/src/list.c.obj
 .text.list_size_get
                0x00000000       0x12 examples/light_switch/server/CMakeFiles/light_switch_server_nrf52840_xxAA_s140_6.0.0.dir/__/__/__/mesh/core/src/list.c.obj
 .text.list_sorted_add
                0x00000000       0x6c examples/light_switch/server/CMakeFiles/light_switch_server_nrf52840_xxAA_s140_6.0.0.dir/__/__/__/mesh/core/src/list.c.obj
 .text          0x00000000        0x0 examples/light_switch/server/CMakeFiles/light_switch_server_nrf52840_xxAA_s140_6.0.0.dir/__/__/__/mesh/core/src/log.c.obj
 .data          0x00000000        0x0 examples/light_switch/server/CMakeFiles/light_switch_server_nrf52840_xxAA_s140_6.0.0.dir/__/__/__/mesh/core/src/log.c.obj
 .bss           0x00000000        0x0 examples/light_switch/server/CMakeFiles/light_switch_server_nrf52840_xxAA_s140_6.0.0.dir/__/__/__/mesh/core/src/log.c.obj
 .text.log_callback_logview
                0x00000000       0x38 examples/light_switch/server/CMakeFiles/light_switch_server_nrf52840_xxAA_s140_6.0.0.dir/__/__/__/mesh/core/src/log.c.obj
 .text.log_set_callback
                0x00000000        0xc examples/light_switch/server/CMakeFiles/light_switch_server_nrf52840_xxAA_s140_6.0.0.dir/__/__/__/mesh/core/src/log.c.obj
 .rodata.log_callback_logview.str1.1
                0x00000000        0xf examples/light_switch/server/CMakeFiles/light_switch_server_nrf52840_xxAA_s140_6.0.0.dir/__/__/__/mesh/core/src/log.c.obj
 .text          0x00000000        0x0 examples/light_switch/server/CMakeFiles/light_switch_server_nrf52840_xxAA_s140_6.0.0.dir/__/__/__/mesh/core/src/flash_manager.c.obj
 .data          0x00000000        0x0 examples/light_switch/server/CMakeFiles/light_switch_server_nrf52840_xxAA_s140_6.0.0.dir/__/__/__/mesh/core/src/flash_manager.c.obj
 .bss           0x00000000        0x0 examples/light_switch/server/CMakeFiles/light_switch_server_nrf52840_xxAA_s140_6.0.0.dir/__/__/__/mesh/core/src/flash_manager.c.obj
 .text.flash_manager_entry_count_get
                0x00000000       0x50 examples/light_switch/server/CMakeFiles/light_switch_server_nrf52840_xxAA_s140_6.0.0.dir/__/__/__/mesh/core/src/flash_manager.c.obj
 .text.flash_manager_entry_release
                0x00000000       0x2c examples/light_switch/server/CMakeFiles/light_switch_server_nrf52840_xxAA_s140_6.0.0.dir/__/__/__/mesh/core/src/flash_manager.c.obj
 .text          0x00000000        0x0 examples/light_switch/server/CMakeFiles/light_switch_server_nrf52840_xxAA_s140_6.0.0.dir/__/__/__/mesh/core/src/ccm_soft.c.obj
 .data          0x00000000        0x0 examples/light_switch/server/CMakeFiles/light_switch_server_nrf52840_xxAA_s140_6.0.0.dir/__/__/__/mesh/core/src/ccm_soft.c.obj
 .bss           0x00000000        0x0 examples/light_switch/server/CMakeFiles/light_switch_server_nrf52840_xxAA_s140_6.0.0.dir/__/__/__/mesh/core/src/ccm_soft.c.obj
 .text          0x00000000        0x0 examples/light_switch/server/CMakeFiles/light_switch_server_nrf52840_xxAA_s140_6.0.0.dir/__/__/__/mesh/core/src/toolchain.c.obj
 .data          0x00000000        0x0 examples/light_switch/server/CMakeFiles/light_switch_server_nrf52840_xxAA_s140_6.0.0.dir/__/__/__/mesh/core/src/toolchain.c.obj
 .bss           0x00000000        0x0 examples/light_switch/server/CMakeFiles/light_switch_server_nrf52840_xxAA_s140_6.0.0.dir/__/__/__/mesh/core/src/toolchain.c.obj
 .debug_info    0x00000000       0xb3 examples/light_switch/server/CMakeFiles/light_switch_server_nrf52840_xxAA_s140_6.0.0.dir/__/__/__/mesh/core/src/toolchain.c.obj
 .debug_abbrev  0x00000000       0x5c examples/light_switch/server/CMakeFiles/light_switch_server_nrf52840_xxAA_s140_6.0.0.dir/__/__/__/mesh/core/src/toolchain.c.obj
 .debug_aranges
                0x00000000       0x18 examples/light_switch/server/CMakeFiles/light_switch_server_nrf52840_xxAA_s140_6.0.0.dir/__/__/__/mesh/core/src/toolchain.c.obj
 .debug_line    0x00000000      0x123 examples/light_switch/server/CMakeFiles/light_switch_server_nrf52840_xxAA_s140_6.0.0.dir/__/__/__/mesh/core/src/toolchain.c.obj
 .debug_str     0x00000000      0x1fa examples/light_switch/server/CMakeFiles/light_switch_server_nrf52840_xxAA_s140_6.0.0.dir/__/__/__/mesh/core/src/toolchain.c.obj
 .comment       0x00000000       0x80 examples/light_switch/server/CMakeFiles/light_switch_server_nrf52840_xxAA_s140_6.0.0.dir/__/__/__/mesh/core/src/toolchain.c.obj
 .ARM.attributes
                0x00000000       0x39 examples/light_switch/server/CMakeFiles/light_switch_server_nrf52840_xxAA_s140_6.0.0.dir/__/__/__/mesh/core/src/toolchain.c.obj
 .text          0x00000000        0x0 examples/light_switch/server/CMakeFiles/light_switch_server_nrf52840_xxAA_s140_6.0.0.dir/__/__/__/mesh/core/src/replay_cache.c.obj
 .data          0x00000000        0x0 examples/light_switch/server/CMakeFiles/light_switch_server_nrf52840_xxAA_s140_6.0.0.dir/__/__/__/mesh/core/src/replay_cache.c.obj
 .bss           0x00000000        0x0 examples/light_switch/server/CMakeFiles/light_switch_server_nrf52840_xxAA_s140_6.0.0.dir/__/__/__/mesh/core/src/replay_cache.c.obj
 .text.replay_cache_on_iv_update
                0x00000000       0x24 examples/light_switch/server/CMakeFiles/light_switch_server_nrf52840_xxAA_s140_6.0.0.dir/__/__/__/mesh/core/src/replay_cache.c.obj
 .text          0x00000000        0x0 examples/light_switch/server/CMakeFiles/light_switch_server_nrf52840_xxAA_s140_6.0.0.dir/__/__/__/mesh/core/src/beacon.c.obj
 .data          0x00000000        0x0 examples/light_switch/server/CMakeFiles/light_switch_server_nrf52840_xxAA_s140_6.0.0.dir/__/__/__/mesh/core/src/beacon.c.obj
 .bss           0x00000000        0x0 examples/light_switch/server/CMakeFiles/light_switch_server_nrf52840_xxAA_s140_6.0.0.dir/__/__/__/mesh/core/src/beacon.c.obj
 .text          0x00000000        0x0 examples/light_switch/server/CMakeFiles/light_switch_server_nrf52840_xxAA_s140_6.0.0.dir/__/__/__/mesh/core/src/flash_manager_internal.c.obj
 .data          0x00000000        0x0 examples/light_switch/server/CMakeFiles/light_switch_server_nrf52840_xxAA_s140_6.0.0.dir/__/__/__/mesh/core/src/flash_manager_internal.c.obj
 .bss           0x00000000        0x0 examples/light_switch/server/CMakeFiles/light_switch_server_nrf52840_xxAA_s140_6.0.0.dir/__/__/__/mesh/core/src/flash_manager_internal.c.obj
 .text          0x00000000        0x0 examples/light_switch/server/CMakeFiles/light_switch_server_nrf52840_xxAA_s140_6.0.0.dir/__/__/__/mesh/core/src/core_tx.c.obj
 .data          0x00000000        0x0 examples/light_switch/server/CMakeFiles/light_switch_server_nrf52840_xxAA_s140_6.0.0.dir/__/__/__/mesh/core/src/core_tx.c.obj
 .bss           0x00000000        0x0 examples/light_switch/server/CMakeFiles/light_switch_server_nrf52840_xxAA_s140_6.0.0.dir/__/__/__/mesh/core/src/core_tx.c.obj
 .text.core_tx_bearer_type_get
                0x00000000       0x1c examples/light_switch/server/CMakeFiles/light_switch_server_nrf52840_xxAA_s140_6.0.0.dir/__/__/__/mesh/core/src/core_tx.c.obj
 .text.core_tx_bearer_count_get
                0x00000000        0xc examples/light_switch/server/CMakeFiles/light_switch_server_nrf52840_xxAA_s140_6.0.0.dir/__/__/__/mesh/core/src/core_tx.c.obj
 .text          0x00000000        0x0 examples/light_switch/server/CMakeFiles/light_switch_server_nrf52840_xxAA_s140_6.0.0.dir/__/__/__/mesh/core/src/heartbeat.c.obj
 .data          0x00000000        0x0 examples/light_switch/server/CMakeFiles/light_switch_server_nrf52840_xxAA_s140_6.0.0.dir/__/__/__/mesh/core/src/heartbeat.c.obj
 .bss           0x00000000        0x0 examples/light_switch/server/CMakeFiles/light_switch_server_nrf52840_xxAA_s140_6.0.0.dir/__/__/__/mesh/core/src/heartbeat.c.obj
 .text          0x00000000        0x0 examples/light_switch/server/CMakeFiles/light_switch_server_nrf52840_xxAA_s140_6.0.0.dir/__/__/__/mesh/core/src/net_beacon.c.obj
 .data          0x00000000        0x0 examples/light_switch/server/CMakeFiles/light_switch_server_nrf52840_xxAA_s140_6.0.0.dir/__/__/__/mesh/core/src/net_beacon.c.obj
 .bss           0x00000000        0x0 examples/light_switch/server/CMakeFiles/light_switch_server_nrf52840_xxAA_s140_6.0.0.dir/__/__/__/mesh/core/src/net_beacon.c.obj
 .text.net_beacon_build
                0x00000000       0x24 examples/light_switch/server/CMakeFiles/light_switch_server_nrf52840_xxAA_s140_6.0.0.dir/__/__/__/mesh/core/src/net_beacon.c.obj
 .text          0x00000000        0x0 examples/light_switch/server/CMakeFiles/light_switch_server_nrf52840_xxAA_s140_6.0.0.dir/__/__/__/mesh/core/src/mesh_config.c.obj
 .data          0x00000000        0x0 examples/light_switch/server/CMakeFiles/light_switch_server_nrf52840_xxAA_s140_6.0.0.dir/__/__/__/mesh/core/src/mesh_config.c.obj
 .bss           0x00000000        0x0 examples/light_switch/server/CMakeFiles/light_switch_server_nrf52840_xxAA_s140_6.0.0.dir/__/__/__/mesh/core/src/mesh_config.c.obj
 .text.mesh_config_power_down
                0x00000000        0x6 examples/light_switch/server/CMakeFiles/light_switch_server_nrf52840_xxAA_s140_6.0.0.dir/__/__/__/mesh/core/src/mesh_config.c.obj
 .text.mesh_config_entry_available_id
                0x00000000       0x36 examples/light_switch/server/CMakeFiles/light_switch_server_nrf52840_xxAA_s140_6.0.0.dir/__/__/__/mesh/core/src/mesh_config.c.obj
 .text.mesh_config_entry_delete
                0x00000000       0x74 examples/light_switch/server/CMakeFiles/light_switch_server_nrf52840_xxAA_s140_6.0.0.dir/__/__/__/mesh/core/src/mesh_config.c.obj
 .text.mesh_config_power_down_time_get
                0x00000000        0x4 examples/light_switch/server/CMakeFiles/light_switch_server_nrf52840_xxAA_s140_6.0.0.dir/__/__/__/mesh/core/src/mesh_config.c.obj
 .text          0x00000000        0x0 examples/light_switch/server/CMakeFiles/light_switch_server_nrf52840_xxAA_s140_6.0.0.dir/__/__/__/mesh/core/src/fsm.c.obj
 .data          0x00000000        0x0 examples/light_switch/server/CMakeFiles/light_switch_server_nrf52840_xxAA_s140_6.0.0.dir/__/__/__/mesh/core/src/fsm.c.obj
 .bss           0x00000000        0x0 examples/light_switch/server/CMakeFiles/light_switch_server_nrf52840_xxAA_s140_6.0.0.dir/__/__/__/mesh/core/src/fsm.c.obj
 .text.fsm_event_post_try
                0x00000000      0x1ec examples/light_switch/server/CMakeFiles/light_switch_server_nrf52840_xxAA_s140_6.0.0.dir/__/__/__/mesh/core/src/fsm.c.obj
 .text.fsm_init
                0x00000000       0xcc examples/light_switch/server/CMakeFiles/light_switch_server_nrf52840_xxAA_s140_6.0.0.dir/__/__/__/mesh/core/src/fsm.c.obj
 .text.fsm_event_post
                0x00000000       0xac examples/light_switch/server/CMakeFiles/light_switch_server_nrf52840_xxAA_s140_6.0.0.dir/__/__/__/mesh/core/src/fsm.c.obj
 .text.fsm_is_processing
                0x00000000        0xa examples/light_switch/server/CMakeFiles/light_switch_server_nrf52840_xxAA_s140_6.0.0.dir/__/__/__/mesh/core/src/fsm.c.obj
 .rodata.fsm_event_post.str1.1
                0x00000000        0xb examples/light_switch/server/CMakeFiles/light_switch_server_nrf52840_xxAA_s140_6.0.0.dir/__/__/__/mesh/core/src/fsm.c.obj
 .rodata.fsm_event_post_try.str1.1
                0x00000000       0x41 examples/light_switch/server/CMakeFiles/light_switch_server_nrf52840_xxAA_s140_6.0.0.dir/__/__/__/mesh/core/src/fsm.c.obj
 .rodata.fsm_init.str1.1
                0x00000000        0xa examples/light_switch/server/CMakeFiles/light_switch_server_nrf52840_xxAA_s140_6.0.0.dir/__/__/__/mesh/core/src/fsm.c.obj
 .debug_info    0x00000000     0x132d examples/light_switch/server/CMakeFiles/light_switch_server_nrf52840_xxAA_s140_6.0.0.dir/__/__/__/mesh/core/src/fsm.c.obj
 .debug_abbrev  0x00000000      0x345 examples/light_switch/server/CMakeFiles/light_switch_server_nrf52840_xxAA_s140_6.0.0.dir/__/__/__/mesh/core/src/fsm.c.obj
 .debug_loc     0x00000000      0x3fd examples/light_switch/server/CMakeFiles/light_switch_server_nrf52840_xxAA_s140_6.0.0.dir/__/__/__/mesh/core/src/fsm.c.obj
 .debug_aranges
                0x00000000       0x38 examples/light_switch/server/CMakeFiles/light_switch_server_nrf52840_xxAA_s140_6.0.0.dir/__/__/__/mesh/core/src/fsm.c.obj
 .debug_ranges  0x00000000       0xe0 examples/light_switch/server/CMakeFiles/light_switch_server_nrf52840_xxAA_s140_6.0.0.dir/__/__/__/mesh/core/src/fsm.c.obj
 .debug_line    0x00000000      0x3ce examples/light_switch/server/CMakeFiles/light_switch_server_nrf52840_xxAA_s140_6.0.0.dir/__/__/__/mesh/core/src/fsm.c.obj
 .debug_str     0x00000000      0x984 examples/light_switch/server/CMakeFiles/light_switch_server_nrf52840_xxAA_s140_6.0.0.dir/__/__/__/mesh/core/src/fsm.c.obj
 .comment       0x00000000       0x80 examples/light_switch/server/CMakeFiles/light_switch_server_nrf52840_xxAA_s140_6.0.0.dir/__/__/__/mesh/core/src/fsm.c.obj
 .debug_frame   0x00000000       0x9c examples/light_switch/server/CMakeFiles/light_switch_server_nrf52840_xxAA_s140_6.0.0.dir/__/__/__/mesh/core/src/fsm.c.obj
 .ARM.attributes
                0x00000000       0x39 examples/light_switch/server/CMakeFiles/light_switch_server_nrf52840_xxAA_s140_6.0.0.dir/__/__/__/mesh/core/src/fsm.c.obj
 .text          0x00000000        0x0 examples/light_switch/server/CMakeFiles/light_switch_server_nrf52840_xxAA_s140_6.0.0.dir/__/__/__/mesh/core/src/mesh_config_backend.c.obj
 .data          0x00000000        0x0 examples/light_switch/server/CMakeFiles/light_switch_server_nrf52840_xxAA_s140_6.0.0.dir/__/__/__/mesh/core/src/mesh_config_backend.c.obj
 .bss           0x00000000        0x0 examples/light_switch/server/CMakeFiles/light_switch_server_nrf52840_xxAA_s140_6.0.0.dir/__/__/__/mesh/core/src/mesh_config_backend.c.obj
 .text.mesh_config_backend_read
                0x00000000       0x58 examples/light_switch/server/CMakeFiles/light_switch_server_nrf52840_xxAA_s140_6.0.0.dir/__/__/__/mesh/core/src/mesh_config_backend.c.obj
 .text.mesh_config_backend_power_down_time_get
                0x00000000        0xc examples/light_switch/server/CMakeFiles/light_switch_server_nrf52840_xxAA_s140_6.0.0.dir/__/__/__/mesh/core/src/mesh_config_backend.c.obj
 .text          0x00000000        0x0 examples/light_switch/server/CMakeFiles/light_switch_server_nrf52840_xxAA_s140_6.0.0.dir/__/__/__/mesh/core/src/mesh_config_flashman_glue.c.obj
 .data          0x00000000        0x0 examples/light_switch/server/CMakeFiles/light_switch_server_nrf52840_xxAA_s140_6.0.0.dir/__/__/__/mesh/core/src/mesh_config_flashman_glue.c.obj
 .bss           0x00000000        0x0 examples/light_switch/server/CMakeFiles/light_switch_server_nrf52840_xxAA_s140_6.0.0.dir/__/__/__/mesh/core/src/mesh_config_flashman_glue.c.obj
 .text.mesh_config_backend_record_read
                0x00000000       0x38 examples/light_switch/server/CMakeFiles/light_switch_server_nrf52840_xxAA_s140_6.0.0.dir/__/__/__/mesh/core/src/mesh_config_flashman_glue.c.obj
 .text.mesh_config_backend_flash_usage_get
                0x00000000       0x24 examples/light_switch/server/CMakeFiles/light_switch_server_nrf52840_xxAA_s140_6.0.0.dir/__/__/__/mesh/core/src/mesh_config_flashman_glue.c.obj
 .text          0x00000000        0x0 examples/light_switch/server/CMakeFiles/light_switch_server_nrf52840_xxAA_s140_6.0.0.dir/__/__/__/mesh/core/src/core_tx_adv.c.obj
 .data          0x00000000        0x0 examples/light_switch/server/CMakeFiles/light_switch_server_nrf52840_xxAA_s140_6.0.0.dir/__/__/__/mesh/core/src/core_tx_adv.c.obj
 .bss           0x00000000        0x0 examples/light_switch/server/CMakeFiles/light_switch_server_nrf52840_xxAA_s140_6.0.0.dir/__/__/__/mesh/core/src/core_tx_adv.c.obj
 .text.mesh_opt_core_adv_delete
                0x00000000       0x24 examples/light_switch/server/CMakeFiles/light_switch_server_nrf52840_xxAA_s140_6.0.0.dir/__/__/__/mesh/core/src/core_tx_adv.c.obj
 .text.mesh_opt_core_adv_addr_set
                0x00000000       0x24 examples/light_switch/server/CMakeFiles/light_switch_server_nrf52840_xxAA_s140_6.0.0.dir/__/__/__/mesh/core/src/core_tx_adv.c.obj
 .text.mesh_opt_core_adv_addr_get
                0x00000000       0x24 examples/light_switch/server/CMakeFiles/light_switch_server_nrf52840_xxAA_s140_6.0.0.dir/__/__/__/mesh/core/src/core_tx_adv.c.obj
 .text.mesh_opt_core_adv_addr_delete
                0x00000000       0x24 examples/light_switch/server/CMakeFiles/light_switch_server_nrf52840_xxAA_s140_6.0.0.dir/__/__/__/mesh/core/src/core_tx_adv.c.obj
 .text.mesh_opt_core_tx_power_set
                0x00000000       0x2c examples/light_switch/server/CMakeFiles/light_switch_server_nrf52840_xxAA_s140_6.0.0.dir/__/__/__/mesh/core/src/core_tx_adv.c.obj
 .text.mesh_opt_core_tx_power_get
                0x00000000       0x24 examples/light_switch/server/CMakeFiles/light_switch_server_nrf52840_xxAA_s140_6.0.0.dir/__/__/__/mesh/core/src/core_tx_adv.c.obj
 .text.mesh_opt_core_tx_power_delete
                0x00000000       0x24 examples/light_switch/server/CMakeFiles/light_switch_server_nrf52840_xxAA_s140_6.0.0.dir/__/__/__/mesh/core/src/core_tx_adv.c.obj
 .text          0x00000000        0x0 examples/light_switch/server/CMakeFiles/light_switch_server_nrf52840_xxAA_s140_6.0.0.dir/__/__/__/mesh/bearer/src/ad_listener.c.obj
 .data          0x00000000        0x0 examples/light_switch/server/CMakeFiles/light_switch_server_nrf52840_xxAA_s140_6.0.0.dir/__/__/__/mesh/bearer/src/ad_listener.c.obj
 .bss           0x00000000        0x0 examples/light_switch/server/CMakeFiles/light_switch_server_nrf52840_xxAA_s140_6.0.0.dir/__/__/__/mesh/bearer/src/ad_listener.c.obj
 .text.ad_listener_unsubscribe
                0x00000000       0x6c examples/light_switch/server/CMakeFiles/light_switch_server_nrf52840_xxAA_s140_6.0.0.dir/__/__/__/mesh/bearer/src/ad_listener.c.obj
 .text          0x00000000        0x0 examples/light_switch/server/CMakeFiles/light_switch_server_nrf52840_xxAA_s140_6.0.0.dir/__/__/__/mesh/bearer/src/ad_type_filter.c.obj
 .data          0x00000000        0x0 examples/light_switch/server/CMakeFiles/light_switch_server_nrf52840_xxAA_s140_6.0.0.dir/__/__/__/mesh/bearer/src/ad_type_filter.c.obj
 .bss           0x00000000        0x0 examples/light_switch/server/CMakeFiles/light_switch_server_nrf52840_xxAA_s140_6.0.0.dir/__/__/__/mesh/bearer/src/ad_type_filter.c.obj
 .text.bearer_adtype_remove
                0x00000000       0x20 examples/light_switch/server/CMakeFiles/light_switch_server_nrf52840_xxAA_s140_6.0.0.dir/__/__/__/mesh/bearer/src/ad_type_filter.c.obj
 .text.bearer_adtype_clear
                0x00000000       0x10 examples/light_switch/server/CMakeFiles/light_switch_server_nrf52840_xxAA_s140_6.0.0.dir/__/__/__/mesh/bearer/src/ad_type_filter.c.obj
 .text.bearer_invalid_length_amount_get
                0x00000000        0xc examples/light_switch/server/CMakeFiles/light_switch_server_nrf52840_xxAA_s140_6.0.0.dir/__/__/__/mesh/bearer/src/ad_type_filter.c.obj
 .text.bearer_adtype_filtered_amount_get
                0x00000000        0xc examples/light_switch/server/CMakeFiles/light_switch_server_nrf52840_xxAA_s140_6.0.0.dir/__/__/__/mesh/bearer/src/ad_type_filter.c.obj
 .text          0x00000000        0x0 examples/light_switch/server/CMakeFiles/light_switch_server_nrf52840_xxAA_s140_6.0.0.dir/__/__/__/mesh/bearer/src/adv_packet_filter.c.obj
 .data          0x00000000        0x0 examples/light_switch/server/CMakeFiles/light_switch_server_nrf52840_xxAA_s140_6.0.0.dir/__/__/__/mesh/bearer/src/adv_packet_filter.c.obj
 .bss           0x00000000        0x0 examples/light_switch/server/CMakeFiles/light_switch_server_nrf52840_xxAA_s140_6.0.0.dir/__/__/__/mesh/bearer/src/adv_packet_filter.c.obj
 .text.adv_filter_handle
                0x00000000       0x3c examples/light_switch/server/CMakeFiles/light_switch_server_nrf52840_xxAA_s140_6.0.0.dir/__/__/__/mesh/bearer/src/adv_packet_filter.c.obj
 .text.bearer_adv_packet_filtering_set
                0x00000000       0x1c examples/light_switch/server/CMakeFiles/light_switch_server_nrf52840_xxAA_s140_6.0.0.dir/__/__/__/mesh/bearer/src/adv_packet_filter.c.obj
 .text.bearer_adv_packet_remove
                0x00000000       0x18 examples/light_switch/server/CMakeFiles/light_switch_server_nrf52840_xxAA_s140_6.0.0.dir/__/__/__/mesh/bearer/src/adv_packet_filter.c.obj
 .text.bearer_adv_packet_add
                0x00000000       0x14 examples/light_switch/server/CMakeFiles/light_switch_server_nrf52840_xxAA_s140_6.0.0.dir/__/__/__/mesh/bearer/src/adv_packet_filter.c.obj
 .text.bearer_adv_packet_clear
                0x00000000        0xc examples/light_switch/server/CMakeFiles/light_switch_server_nrf52840_xxAA_s140_6.0.0.dir/__/__/__/mesh/bearer/src/adv_packet_filter.c.obj
 .text.bearer_adv_packet_filter_mode_set
                0x00000000       0x18 examples/light_switch/server/CMakeFiles/light_switch_server_nrf52840_xxAA_s140_6.0.0.dir/__/__/__/mesh/bearer/src/adv_packet_filter.c.obj
 .text.bearer_adv_packet_filtered_amount_get
                0x00000000        0xc examples/light_switch/server/CMakeFiles/light_switch_server_nrf52840_xxAA_s140_6.0.0.dir/__/__/__/mesh/bearer/src/adv_packet_filter.c.obj
 .bss.m_adv_packet_filter
                0x00000000       0x14 examples/light_switch/server/CMakeFiles/light_switch_server_nrf52840_xxAA_s140_6.0.0.dir/__/__/__/mesh/bearer/src/adv_packet_filter.c.obj
 .debug_info    0x00000000      0xdc3 examples/light_switch/server/CMakeFiles/light_switch_server_nrf52840_xxAA_s140_6.0.0.dir/__/__/__/mesh/bearer/src/adv_packet_filter.c.obj
 .debug_abbrev  0x00000000      0x2c9 examples/light_switch/server/CMakeFiles/light_switch_server_nrf52840_xxAA_s140_6.0.0.dir/__/__/__/mesh/bearer/src/adv_packet_filter.c.obj
 .debug_loc     0x00000000      0x1c0 examples/light_switch/server/CMakeFiles/light_switch_server_nrf52840_xxAA_s140_6.0.0.dir/__/__/__/mesh/bearer/src/adv_packet_filter.c.obj
 .debug_aranges
                0x00000000       0x50 examples/light_switch/server/CMakeFiles/light_switch_server_nrf52840_xxAA_s140_6.0.0.dir/__/__/__/mesh/bearer/src/adv_packet_filter.c.obj
 .debug_ranges  0x00000000       0x40 examples/light_switch/server/CMakeFiles/light_switch_server_nrf52840_xxAA_s140_6.0.0.dir/__/__/__/mesh/bearer/src/adv_packet_filter.c.obj
 .debug_line    0x00000000      0x3a0 examples/light_switch/server/CMakeFiles/light_switch_server_nrf52840_xxAA_s140_6.0.0.dir/__/__/__/mesh/bearer/src/adv_packet_filter.c.obj
 .debug_str     0x00000000      0xa55 examples/light_switch/server/CMakeFiles/light_switch_server_nrf52840_xxAA_s140_6.0.0.dir/__/__/__/mesh/bearer/src/adv_packet_filter.c.obj
 .comment       0x00000000       0x80 examples/light_switch/server/CMakeFiles/light_switch_server_nrf52840_xxAA_s140_6.0.0.dir/__/__/__/mesh/bearer/src/adv_packet_filter.c.obj
 .debug_frame   0x00000000       0x88 examples/light_switch/server/CMakeFiles/light_switch_server_nrf52840_xxAA_s140_6.0.0.dir/__/__/__/mesh/bearer/src/adv_packet_filter.c.obj
 .ARM.attributes
                0x00000000       0x39 examples/light_switch/server/CMakeFiles/light_switch_server_nrf52840_xxAA_s140_6.0.0.dir/__/__/__/mesh/bearer/src/adv_packet_filter.c.obj
 .text          0x00000000        0x0 examples/light_switch/server/CMakeFiles/light_switch_server_nrf52840_xxAA_s140_6.0.0.dir/__/__/__/mesh/bearer/src/advertiser.c.obj
 .data          0x00000000        0x0 examples/light_switch/server/CMakeFiles/light_switch_server_nrf52840_xxAA_s140_6.0.0.dir/__/__/__/mesh/bearer/src/advertiser.c.obj
 .bss           0x00000000        0x0 examples/light_switch/server/CMakeFiles/light_switch_server_nrf52840_xxAA_s140_6.0.0.dir/__/__/__/mesh/bearer/src/advertiser.c.obj
 .text.advertiser_channels_set
                0x00000000       0x60 examples/light_switch/server/CMakeFiles/light_switch_server_nrf52840_xxAA_s140_6.0.0.dir/__/__/__/mesh/bearer/src/advertiser.c.obj
 .text.advertiser_config_set
                0x00000000       0x3a examples/light_switch/server/CMakeFiles/light_switch_server_nrf52840_xxAA_s140_6.0.0.dir/__/__/__/mesh/bearer/src/advertiser.c.obj
 .text.advertiser_config_get
                0x00000000       0x20 examples/light_switch/server/CMakeFiles/light_switch_server_nrf52840_xxAA_s140_6.0.0.dir/__/__/__/mesh/bearer/src/advertiser.c.obj
 .text          0x00000000        0x0 examples/light_switch/server/CMakeFiles/light_switch_server_nrf52840_xxAA_s140_6.0.0.dir/__/__/__/mesh/bearer/src/bearer_handler.c.obj
 .data          0x00000000        0x0 examples/light_switch/server/CMakeFiles/light_switch_server_nrf52840_xxAA_s140_6.0.0.dir/__/__/__/mesh/bearer/src/bearer_handler.c.obj
 .bss           0x00000000        0x0 examples/light_switch/server/CMakeFiles/light_switch_server_nrf52840_xxAA_s140_6.0.0.dir/__/__/__/mesh/bearer/src/bearer_handler.c.obj
 .text.bearer_handler_stop
                0x00000000       0x20 examples/light_switch/server/CMakeFiles/light_switch_server_nrf52840_xxAA_s140_6.0.0.dir/__/__/__/mesh/bearer/src/bearer_handler.c.obj
 .text.bearer_handler_action_fire
                0x00000000       0x9c examples/light_switch/server/CMakeFiles/light_switch_server_nrf52840_xxAA_s140_6.0.0.dir/__/__/__/mesh/bearer/src/bearer_handler.c.obj
 .text          0x00000000        0x0 examples/light_switch/server/CMakeFiles/light_switch_server_nrf52840_xxAA_s140_6.0.0.dir/__/__/__/mesh/bearer/src/broadcast.c.obj
 .data          0x00000000        0x0 examples/light_switch/server/CMakeFiles/light_switch_server_nrf52840_xxAA_s140_6.0.0.dir/__/__/__/mesh/bearer/src/broadcast.c.obj
 .bss           0x00000000        0x0 examples/light_switch/server/CMakeFiles/light_switch_server_nrf52840_xxAA_s140_6.0.0.dir/__/__/__/mesh/bearer/src/broadcast.c.obj
 .text          0x00000000        0x0 examples/light_switch/server/CMakeFiles/light_switch_server_nrf52840_xxAA_s140_6.0.0.dir/__/__/__/mesh/bearer/src/filter_engine.c.obj
 .data          0x00000000        0x0 examples/light_switch/server/CMakeFiles/light_switch_server_nrf52840_xxAA_s140_6.0.0.dir/__/__/__/mesh/bearer/src/filter_engine.c.obj
 .bss           0x00000000        0x0 examples/light_switch/server/CMakeFiles/light_switch_server_nrf52840_xxAA_s140_6.0.0.dir/__/__/__/mesh/bearer/src/filter_engine.c.obj
 .text.fen_accepted_amount_get
                0x00000000        0xc examples/light_switch/server/CMakeFiles/light_switch_server_nrf52840_xxAA_s140_6.0.0.dir/__/__/__/mesh/bearer/src/filter_engine.c.obj
 .text          0x00000000        0x0 examples/light_switch/server/CMakeFiles/light_switch_server_nrf52840_xxAA_s140_6.0.0.dir/__/__/__/mesh/bearer/src/gap_address_filter.c.obj
 .data          0x00000000        0x0 examples/light_switch/server/CMakeFiles/light_switch_server_nrf52840_xxAA_s140_6.0.0.dir/__/__/__/mesh/bearer/src/gap_address_filter.c.obj
 .bss           0x00000000        0x0 examples/light_switch/server/CMakeFiles/light_switch_server_nrf52840_xxAA_s140_6.0.0.dir/__/__/__/mesh/bearer/src/gap_address_filter.c.obj
 .text.gap_address_filter_handle
                0x00000000       0xa6 examples/light_switch/server/CMakeFiles/light_switch_server_nrf52840_xxAA_s140_6.0.0.dir/__/__/__/mesh/bearer/src/gap_address_filter.c.obj
 .text.gap_addr_filter_set
                0x00000000       0x40 examples/light_switch/server/CMakeFiles/light_switch_server_nrf52840_xxAA_s140_6.0.0.dir/__/__/__/mesh/bearer/src/gap_address_filter.c.obj
 .text.bearer_filter_gap_addr_whitelist_set
                0x00000000        0x6 examples/light_switch/server/CMakeFiles/light_switch_server_nrf52840_xxAA_s140_6.0.0.dir/__/__/__/mesh/bearer/src/gap_address_filter.c.obj
 .text.bearer_filter_gap_addr_blacklist_set
                0x00000000        0x6 examples/light_switch/server/CMakeFiles/light_switch_server_nrf52840_xxAA_s140_6.0.0.dir/__/__/__/mesh/bearer/src/gap_address_filter.c.obj
 .text.bearer_filter_gap_addr_range_set
                0x00000000       0x38 examples/light_switch/server/CMakeFiles/light_switch_server_nrf52840_xxAA_s140_6.0.0.dir/__/__/__/mesh/bearer/src/gap_address_filter.c.obj
 .text.bearer_filter_gap_addr_clear
                0x00000000       0x20 examples/light_switch/server/CMakeFiles/light_switch_server_nrf52840_xxAA_s140_6.0.0.dir/__/__/__/mesh/bearer/src/gap_address_filter.c.obj
 .text.bearer_gap_addr_filtered_amount_get
                0x00000000        0xc examples/light_switch/server/CMakeFiles/light_switch_server_nrf52840_xxAA_s140_6.0.0.dir/__/__/__/mesh/bearer/src/gap_address_filter.c.obj
 .bss.m_addr_filter
                0x00000000       0x18 examples/light_switch/server/CMakeFiles/light_switch_server_nrf52840_xxAA_s140_6.0.0.dir/__/__/__/mesh/bearer/src/gap_address_filter.c.obj
 .debug_info    0x00000000      0xee7 examples/light_switch/server/CMakeFiles/light_switch_server_nrf52840_xxAA_s140_6.0.0.dir/__/__/__/mesh/bearer/src/gap_address_filter.c.obj
 .debug_abbrev  0x00000000      0x2f4 examples/light_switch/server/CMakeFiles/light_switch_server_nrf52840_xxAA_s140_6.0.0.dir/__/__/__/mesh/bearer/src/gap_address_filter.c.obj
 .debug_loc     0x00000000      0x3e8 examples/light_switch/server/CMakeFiles/light_switch_server_nrf52840_xxAA_s140_6.0.0.dir/__/__/__/mesh/bearer/src/gap_address_filter.c.obj
 .debug_aranges
                0x00000000       0x50 examples/light_switch/server/CMakeFiles/light_switch_server_nrf52840_xxAA_s140_6.0.0.dir/__/__/__/mesh/bearer/src/gap_address_filter.c.obj
 .debug_ranges  0x00000000       0x58 examples/light_switch/server/CMakeFiles/light_switch_server_nrf52840_xxAA_s140_6.0.0.dir/__/__/__/mesh/bearer/src/gap_address_filter.c.obj
 .debug_line    0x00000000      0x3f3 examples/light_switch/server/CMakeFiles/light_switch_server_nrf52840_xxAA_s140_6.0.0.dir/__/__/__/mesh/bearer/src/gap_address_filter.c.obj
 .debug_str     0x00000000      0x9af examples/light_switch/server/CMakeFiles/light_switch_server_nrf52840_xxAA_s140_6.0.0.dir/__/__/__/mesh/bearer/src/gap_address_filter.c.obj
 .comment       0x00000000       0x80 examples/light_switch/server/CMakeFiles/light_switch_server_nrf52840_xxAA_s140_6.0.0.dir/__/__/__/mesh/bearer/src/gap_address_filter.c.obj
 .debug_frame   0x00000000       0xb4 examples/light_switch/server/CMakeFiles/light_switch_server_nrf52840_xxAA_s140_6.0.0.dir/__/__/__/mesh/bearer/src/gap_address_filter.c.obj
 .ARM.attributes
                0x00000000       0x39 examples/light_switch/server/CMakeFiles/light_switch_server_nrf52840_xxAA_s140_6.0.0.dir/__/__/__/mesh/bearer/src/gap_address_filter.c.obj
 .text          0x00000000        0x0 examples/light_switch/server/CMakeFiles/light_switch_server_nrf52840_xxAA_s140_6.0.0.dir/__/__/__/mesh/bearer/src/radio_config.c.obj
 .data          0x00000000        0x0 examples/light_switch/server/CMakeFiles/light_switch_server_nrf52840_xxAA_s140_6.0.0.dir/__/__/__/mesh/bearer/src/radio_config.c.obj
 .bss           0x00000000        0x0 examples/light_switch/server/CMakeFiles/light_switch_server_nrf52840_xxAA_s140_6.0.0.dir/__/__/__/mesh/bearer/src/radio_config.c.obj
 .text.radio_config_access_addr_get
                0x00000000       0x4c examples/light_switch/server/CMakeFiles/light_switch_server_nrf52840_xxAA_s140_6.0.0.dir/__/__/__/mesh/bearer/src/radio_config.c.obj
 .text          0x00000000        0x0 examples/light_switch/server/CMakeFiles/light_switch_server_nrf52840_xxAA_s140_6.0.0.dir/__/__/__/mesh/bearer/src/rssi_filter.c.obj
 .data          0x00000000        0x0 examples/light_switch/server/CMakeFiles/light_switch_server_nrf52840_xxAA_s140_6.0.0.dir/__/__/__/mesh/bearer/src/rssi_filter.c.obj
 .bss           0x00000000        0x0 examples/light_switch/server/CMakeFiles/light_switch_server_nrf52840_xxAA_s140_6.0.0.dir/__/__/__/mesh/bearer/src/rssi_filter.c.obj
 .text.rssi_filter_handle
                0x00000000       0x20 examples/light_switch/server/CMakeFiles/light_switch_server_nrf52840_xxAA_s140_6.0.0.dir/__/__/__/mesh/bearer/src/rssi_filter.c.obj
 .text.bearer_rssi_filtering_set
                0x00000000       0x34 examples/light_switch/server/CMakeFiles/light_switch_server_nrf52840_xxAA_s140_6.0.0.dir/__/__/__/mesh/bearer/src/rssi_filter.c.obj
 .text.bearer_rssi_filtered_amount_get
                0x00000000        0xc examples/light_switch/server/CMakeFiles/light_switch_server_nrf52840_xxAA_s140_6.0.0.dir/__/__/__/mesh/bearer/src/rssi_filter.c.obj
 .bss.m_rssi_filter
                0x00000000       0x18 examples/light_switch/server/CMakeFiles/light_switch_server_nrf52840_xxAA_s140_6.0.0.dir/__/__/__/mesh/bearer/src/rssi_filter.c.obj
 .debug_info    0x00000000      0xc9f examples/light_switch/server/CMakeFiles/light_switch_server_nrf52840_xxAA_s140_6.0.0.dir/__/__/__/mesh/bearer/src/rssi_filter.c.obj
 .debug_abbrev  0x00000000      0x28e examples/light_switch/server/CMakeFiles/light_switch_server_nrf52840_xxAA_s140_6.0.0.dir/__/__/__/mesh/bearer/src/rssi_filter.c.obj
 .debug_loc     0x00000000       0xb3 examples/light_switch/server/CMakeFiles/light_switch_server_nrf52840_xxAA_s140_6.0.0.dir/__/__/__/mesh/bearer/src/rssi_filter.c.obj
 .debug_aranges
                0x00000000       0x30 examples/light_switch/server/CMakeFiles/light_switch_server_nrf52840_xxAA_s140_6.0.0.dir/__/__/__/mesh/bearer/src/rssi_filter.c.obj
 .debug_ranges  0x00000000       0x20 examples/light_switch/server/CMakeFiles/light_switch_server_nrf52840_xxAA_s140_6.0.0.dir/__/__/__/mesh/bearer/src/rssi_filter.c.obj
 .debug_line    0x00000000      0x315 examples/light_switch/server/CMakeFiles/light_switch_server_nrf52840_xxAA_s140_6.0.0.dir/__/__/__/mesh/bearer/src/rssi_filter.c.obj
 .debug_str     0x00000000      0x86a examples/light_switch/server/CMakeFiles/light_switch_server_nrf52840_xxAA_s140_6.0.0.dir/__/__/__/mesh/bearer/src/rssi_filter.c.obj
 .comment       0x00000000       0x80 examples/light_switch/server/CMakeFiles/light_switch_server_nrf52840_xxAA_s140_6.0.0.dir/__/__/__/mesh/bearer/src/rssi_filter.c.obj
 .debug_frame   0x00000000       0x54 examples/light_switch/server/CMakeFiles/light_switch_server_nrf52840_xxAA_s140_6.0.0.dir/__/__/__/mesh/bearer/src/rssi_filter.c.obj
 .ARM.attributes
                0x00000000       0x39 examples/light_switch/server/CMakeFiles/light_switch_server_nrf52840_xxAA_s140_6.0.0.dir/__/__/__/mesh/bearer/src/rssi_filter.c.obj
 .text          0x00000000        0x0 examples/light_switch/server/CMakeFiles/light_switch_server_nrf52840_xxAA_s140_6.0.0.dir/__/__/__/mesh/bearer/src/scanner.c.obj
 .data          0x00000000        0x0 examples/light_switch/server/CMakeFiles/light_switch_server_nrf52840_xxAA_s140_6.0.0.dir/__/__/__/mesh/bearer/src/scanner.c.obj
 .bss           0x00000000        0x0 examples/light_switch/server/CMakeFiles/light_switch_server_nrf52840_xxAA_s140_6.0.0.dir/__/__/__/mesh/bearer/src/scanner.c.obj
 .text.scanner_rx_callback_set
                0x00000000       0x20 examples/light_switch/server/CMakeFiles/light_switch_server_nrf52840_xxAA_s140_6.0.0.dir/__/__/__/mesh/bearer/src/scanner.c.obj
 .text.scanner_disable
                0x00000000       0x3c examples/light_switch/server/CMakeFiles/light_switch_server_nrf52840_xxAA_s140_6.0.0.dir/__/__/__/mesh/bearer/src/scanner.c.obj
 .text.scanner_is_enabled
                0x00000000       0x10 examples/light_switch/server/CMakeFiles/light_switch_server_nrf52840_xxAA_s140_6.0.0.dir/__/__/__/mesh/bearer/src/scanner.c.obj
 .text.scanner_stats_get
                0x00000000        0x8 examples/light_switch/server/CMakeFiles/light_switch_server_nrf52840_xxAA_s140_6.0.0.dir/__/__/__/mesh/bearer/src/scanner.c.obj
 .text.scanner_config_radio_mode_set
                0x00000000       0x10 examples/light_switch/server/CMakeFiles/light_switch_server_nrf52840_xxAA_s140_6.0.0.dir/__/__/__/mesh/bearer/src/scanner.c.obj
 .text          0x00000000        0x0 examples/light_switch/server/CMakeFiles/light_switch_server_nrf52840_xxAA_s140_6.0.0.dir/__/__/__/mesh/bearer/src/mesh_pa_lna.c.obj
 .data          0x00000000        0x0 examples/light_switch/server/CMakeFiles/light_switch_server_nrf52840_xxAA_s140_6.0.0.dir/__/__/__/mesh/bearer/src/mesh_pa_lna.c.obj
 .bss           0x00000000        0x0 examples/light_switch/server/CMakeFiles/light_switch_server_nrf52840_xxAA_s140_6.0.0.dir/__/__/__/mesh/bearer/src/mesh_pa_lna.c.obj
 .text.unlikely.pin_init
                0x00000000       0x32 examples/light_switch/server/CMakeFiles/light_switch_server_nrf52840_xxAA_s140_6.0.0.dir/__/__/__/mesh/bearer/src/mesh_pa_lna.c.obj
 .text.mesh_pa_lna_gpiote_enable
                0x00000000       0x68 examples/light_switch/server/CMakeFiles/light_switch_server_nrf52840_xxAA_s140_6.0.0.dir/__/__/__/mesh/bearer/src/mesh_pa_lna.c.obj
 .text.mesh_pa_lna_gpiote_params_get
                0x00000000       0x10 examples/light_switch/server/CMakeFiles/light_switch_server_nrf52840_xxAA_s140_6.0.0.dir/__/__/__/mesh/bearer/src/mesh_pa_lna.c.obj
 .text.mesh_pa_lna_gpiote_disable
                0x00000000       0x20 examples/light_switch/server/CMakeFiles/light_switch_server_nrf52840_xxAA_s140_6.0.0.dir/__/__/__/mesh/bearer/src/mesh_pa_lna.c.obj
 .text          0x00000000        0x0 examples/light_switch/server/CMakeFiles/light_switch_server_nrf52840_xxAA_s140_6.0.0.dir/__/__/__/models/foundation/config/src/composition_data.c.obj
 .data          0x00000000        0x0 examples/light_switch/server/CMakeFiles/light_switch_server_nrf52840_xxAA_s140_6.0.0.dir/__/__/__/models/foundation/config/src/composition_data.c.obj
 .bss           0x00000000        0x0 examples/light_switch/server/CMakeFiles/light_switch_server_nrf52840_xxAA_s140_6.0.0.dir/__/__/__/models/foundation/config/src/composition_data.c.obj
 .text          0x00000000        0x0 examples/light_switch/server/CMakeFiles/light_switch_server_nrf52840_xxAA_s140_6.0.0.dir/__/__/__/models/foundation/config/src/config_server.c.obj
 .data          0x00000000        0x0 examples/light_switch/server/CMakeFiles/light_switch_server_nrf52840_xxAA_s140_6.0.0.dir/__/__/__/models/foundation/config/src/config_server.c.obj
 .bss           0x00000000        0x0 examples/light_switch/server/CMakeFiles/light_switch_server_nrf52840_xxAA_s140_6.0.0.dir/__/__/__/models/foundation/config/src/config_server.c.obj
 .text          0x00000000        0x0 examples/light_switch/server/CMakeFiles/light_switch_server_nrf52840_xxAA_s140_6.0.0.dir/__/__/__/models/foundation/config/src/packed_index_list.c.obj
 .data          0x00000000        0x0 examples/light_switch/server/CMakeFiles/light_switch_server_nrf52840_xxAA_s140_6.0.0.dir/__/__/__/models/foundation/config/src/packed_index_list.c.obj
 .bss           0x00000000        0x0 examples/light_switch/server/CMakeFiles/light_switch_server_nrf52840_xxAA_s140_6.0.0.dir/__/__/__/models/foundation/config/src/packed_index_list.c.obj
 .text          0x00000000        0x0 examples/light_switch/server/CMakeFiles/light_switch_server_nrf52840_xxAA_s140_6.0.0.dir/__/__/__/models/foundation/health/src/health_server.c.obj
 .data          0x00000000        0x0 examples/light_switch/server/CMakeFiles/light_switch_server_nrf52840_xxAA_s140_6.0.0.dir/__/__/__/models/foundation/health/src/health_server.c.obj
 .bss           0x00000000        0x0 examples/light_switch/server/CMakeFiles/light_switch_server_nrf52840_xxAA_s140_6.0.0.dir/__/__/__/models/foundation/health/src/health_server.c.obj
 .text.health_server_fault_is_set
                0x00000000       0x1c examples/light_switch/server/CMakeFiles/light_switch_server_nrf52840_xxAA_s140_6.0.0.dir/__/__/__/models/foundation/health/src/health_server.c.obj
 .text.health_server_fault_count_get
                0x00000000        0xc examples/light_switch/server/CMakeFiles/light_switch_server_nrf52840_xxAA_s140_6.0.0.dir/__/__/__/models/foundation/health/src/health_server.c.obj
 .text.health_server_fault_register
                0x00000000       0xca examples/light_switch/server/CMakeFiles/light_switch_server_nrf52840_xxAA_s140_6.0.0.dir/__/__/__/models/foundation/health/src/health_server.c.obj
 .text.health_server_fault_clear
                0x00000000       0x48 examples/light_switch/server/CMakeFiles/light_switch_server_nrf52840_xxAA_s140_6.0.0.dir/__/__/__/models/foundation/health/src/health_server.c.obj
 .text.health_server_attention_get
                0x00000000        0x6 examples/light_switch/server/CMakeFiles/light_switch_server_nrf52840_xxAA_s140_6.0.0.dir/__/__/__/models/foundation/health/src/health_server.c.obj
 .text.health_server_attention_set
                0x00000000        0x4 examples/light_switch/server/CMakeFiles/light_switch_server_nrf52840_xxAA_s140_6.0.0.dir/__/__/__/models/foundation/health/src/health_server.c.obj
 .text          0x00000000        0x0 examples/light_switch/server/CMakeFiles/light_switch_server_nrf52840_xxAA_s140_6.0.0.dir/__/__/__/models/model_spec/generic_onoff/src/generic_onoff_server.c.obj
 .data          0x00000000        0x0 examples/light_switch/server/CMakeFiles/light_switch_server_nrf52840_xxAA_s140_6.0.0.dir/__/__/__/models/model_spec/generic_onoff/src/generic_onoff_server.c.obj
 .bss           0x00000000        0x0 examples/light_switch/server/CMakeFiles/light_switch_server_nrf52840_xxAA_s140_6.0.0.dir/__/__/__/models/model_spec/generic_onoff/src/generic_onoff_server.c.obj
 .text          0x00000000        0x0 examples/light_switch/server/CMakeFiles/light_switch_server_nrf52840_xxAA_s140_6.0.0.dir/__/__/__/models/model_spec/common/src/model_common.c.obj
 .data          0x00000000        0x0 examples/light_switch/server/CMakeFiles/light_switch_server_nrf52840_xxAA_s140_6.0.0.dir/__/__/__/models/model_spec/common/src/model_common.c.obj
 .bss           0x00000000        0x0 examples/light_switch/server/CMakeFiles/light_switch_server_nrf52840_xxAA_s140_6.0.0.dir/__/__/__/models/model_spec/common/src/model_common.c.obj
 .text.timeout_update_and_schedule
                0x00000000       0x7c examples/light_switch/server/CMakeFiles/light_switch_server_nrf52840_xxAA_s140_6.0.0.dir/__/__/__/models/model_spec/common/src/model_common.c.obj
 .text.model_timer_cb
                0x00000000       0x4a examples/light_switch/server/CMakeFiles/light_switch_server_nrf52840_xxAA_s140_6.0.0.dir/__/__/__/models/model_spec/common/src/model_common.c.obj
 .text.model_transaction_is_new
                0x00000000        0x4 examples/light_switch/server/CMakeFiles/light_switch_server_nrf52840_xxAA_s140_6.0.0.dir/__/__/__/models/model_spec/common/src/model_common.c.obj
 .text.model_delay_encode
                0x00000000       0x10 examples/light_switch/server/CMakeFiles/light_switch_server_nrf52840_xxAA_s140_6.0.0.dir/__/__/__/models/model_spec/common/src/model_common.c.obj
 .text.model_timer_elapsed_ticks_get
                0x00000000        0x6 examples/light_switch/server/CMakeFiles/light_switch_server_nrf52840_xxAA_s140_6.0.0.dir/__/__/__/models/model_spec/common/src/model_common.c.obj
 .text.model_timer_schedule
                0x00000000       0x50 examples/light_switch/server/CMakeFiles/light_switch_server_nrf52840_xxAA_s140_6.0.0.dir/__/__/__/models/model_spec/common/src/model_common.c.obj
 .text.model_timer_abort
                0x00000000       0x24 examples/light_switch/server/CMakeFiles/light_switch_server_nrf52840_xxAA_s140_6.0.0.dir/__/__/__/models/model_spec/common/src/model_common.c.obj
 .text.model_timer_create
                0x00000000       0x1c examples/light_switch/server/CMakeFiles/light_switch_server_nrf52840_xxAA_s140_6.0.0.dir/__/__/__/models/model_spec/common/src/model_common.c.obj
 .text          0x00000000        0x0 examples/light_switch/server/CMakeFiles/light_switch_server_nrf52840_xxAA_s140_6.0.0.dir/__/__/__/mesh/access/src/access_publish.c.obj
 .data          0x00000000        0x0 examples/light_switch/server/CMakeFiles/light_switch_server_nrf52840_xxAA_s140_6.0.0.dir/__/__/__/mesh/access/src/access_publish.c.obj
 .bss           0x00000000        0x0 examples/light_switch/server/CMakeFiles/light_switch_server_nrf52840_xxAA_s140_6.0.0.dir/__/__/__/mesh/access/src/access_publish.c.obj
 .text          0x00000000        0x0 examples/light_switch/server/CMakeFiles/light_switch_server_nrf52840_xxAA_s140_6.0.0.dir/__/__/__/mesh/access/src/access.c.obj
 .data          0x00000000        0x0 examples/light_switch/server/CMakeFiles/light_switch_server_nrf52840_xxAA_s140_6.0.0.dir/__/__/__/mesh/access/src/access.c.obj
 .bss           0x00000000        0x0 examples/light_switch/server/CMakeFiles/light_switch_server_nrf52840_xxAA_s140_6.0.0.dir/__/__/__/mesh/access/src/access.c.obj
 .text.access_model_element_index_get
                0x00000000       0x28 examples/light_switch/server/CMakeFiles/light_switch_server_nrf52840_xxAA_s140_6.0.0.dir/__/__/__/mesh/access/src/access.c.obj
 .text.access_model_subscription_lists_share
                0x00000000       0x48 examples/light_switch/server/CMakeFiles/light_switch_server_nrf52840_xxAA_s140_6.0.0.dir/__/__/__/mesh/access/src/access.c.obj
 .text.access_element_location_set
                0x00000000       0x20 examples/light_switch/server/CMakeFiles/light_switch_server_nrf52840_xxAA_s140_6.0.0.dir/__/__/__/mesh/access/src/access.c.obj
 .text          0x00000000        0x0 examples/light_switch/server/CMakeFiles/light_switch_server_nrf52840_xxAA_s140_6.0.0.dir/__/__/__/mesh/access/src/access_reliable.c.obj
 .data          0x00000000        0x0 examples/light_switch/server/CMakeFiles/light_switch_server_nrf52840_xxAA_s140_6.0.0.dir/__/__/__/mesh/access/src/access_reliable.c.obj
 .bss           0x00000000        0x0 examples/light_switch/server/CMakeFiles/light_switch_server_nrf52840_xxAA_s140_6.0.0.dir/__/__/__/mesh/access/src/access_reliable.c.obj
 .text.access_reliable_model_is_free
                0x00000000       0x28 examples/light_switch/server/CMakeFiles/light_switch_server_nrf52840_xxAA_s140_6.0.0.dir/__/__/__/mesh/access/src/access_reliable.c.obj
 .text.access_model_reliable_publish
                0x00000000      0x198 examples/light_switch/server/CMakeFiles/light_switch_server_nrf52840_xxAA_s140_6.0.0.dir/__/__/__/mesh/access/src/access_reliable.c.obj
 .text          0x00000000        0x0 examples/light_switch/server/CMakeFiles/light_switch_server_nrf52840_xxAA_s140_6.0.0.dir/__/__/__/mesh/access/src/access_loopback.c.obj
 .data          0x00000000        0x0 examples/light_switch/server/CMakeFiles/light_switch_server_nrf52840_xxAA_s140_6.0.0.dir/__/__/__/mesh/access/src/access_loopback.c.obj
 .bss           0x00000000        0x0 examples/light_switch/server/CMakeFiles/light_switch_server_nrf52840_xxAA_s140_6.0.0.dir/__/__/__/mesh/access/src/access_loopback.c.obj
 .text          0x00000000        0x0 examples/light_switch/server/CMakeFiles/light_switch_server_nrf52840_xxAA_s140_6.0.0.dir/__/__/__/mesh/access/src/device_state_manager.c.obj
 .data          0x00000000        0x0 examples/light_switch/server/CMakeFiles/light_switch_server_nrf52840_xxAA_s140_6.0.0.dir/__/__/__/mesh/access/src/device_state_manager.c.obj
 .bss           0x00000000        0x0 examples/light_switch/server/CMakeFiles/light_switch_server_nrf52840_xxAA_s140_6.0.0.dir/__/__/__/mesh/access/src/device_state_manager.c.obj
 .text.dsm_has_unflashed_data
                0x00000000       0x24 examples/light_switch/server/CMakeFiles/light_switch_server_nrf52840_xxAA_s140_6.0.0.dir/__/__/__/mesh/access/src/device_state_manager.c.obj
 .text.dsm_address_subscription_get
                0x00000000       0x34 examples/light_switch/server/CMakeFiles/light_switch_server_nrf52840_xxAA_s140_6.0.0.dir/__/__/__/mesh/access/src/device_state_manager.c.obj
 .text.dsm_address_subscription_count_get
                0x00000000       0x58 examples/light_switch/server/CMakeFiles/light_switch_server_nrf52840_xxAA_s140_6.0.0.dir/__/__/__/mesh/access/src/device_state_manager.c.obj
 .text.dsm_address_get_all
                0x00000000       0x64 examples/light_switch/server/CMakeFiles/light_switch_server_nrf52840_xxAA_s140_6.0.0.dir/__/__/__/mesh/access/src/device_state_manager.c.obj
 .text.dsm_subnet_handle_to_netkey_index
                0x00000000       0x30 examples/light_switch/server/CMakeFiles/light_switch_server_nrf52840_xxAA_s140_6.0.0.dir/__/__/__/mesh/access/src/device_state_manager.c.obj
 .text.dsm_subnet_key_get
                0x00000000       0x44 examples/light_switch/server/CMakeFiles/light_switch_server_nrf52840_xxAA_s140_6.0.0.dir/__/__/__/mesh/access/src/device_state_manager.c.obj
 .text.dsm_devkey_delete
                0x00000000       0x38 examples/light_switch/server/CMakeFiles/light_switch_server_nrf52840_xxAA_s140_6.0.0.dir/__/__/__/mesh/access/src/device_state_manager.c.obj
 .text.dsm_devkey_handle_get
                0x00000000       0x34 examples/light_switch/server/CMakeFiles/light_switch_server_nrf52840_xxAA_s140_6.0.0.dir/__/__/__/mesh/access/src/device_state_manager.c.obj
 .text.dsm_beacon_info_get
                0x00000000       0x2c examples/light_switch/server/CMakeFiles/light_switch_server_nrf52840_xxAA_s140_6.0.0.dir/__/__/__/mesh/access/src/device_state_manager.c.obj
 .text          0x00000000        0x0 examples/light_switch/server/CMakeFiles/light_switch_server_nrf52840_xxAA_s140_6.0.0.dir/__/__/__/mesh/prov/src/prov_provisionee.c.obj
 .data          0x00000000        0x0 examples/light_switch/server/CMakeFiles/light_switch_server_nrf52840_xxAA_s140_6.0.0.dir/__/__/__/mesh/prov/src/prov_provisionee.c.obj
 .bss           0x00000000        0x0 examples/light_switch/server/CMakeFiles/light_switch_server_nrf52840_xxAA_s140_6.0.0.dir/__/__/__/mesh/prov/src/prov_provisionee.c.obj
 .text.prov_provisionee_shared_secret
                0x00000000       0x28 examples/light_switch/server/CMakeFiles/light_switch_server_nrf52840_xxAA_s140_6.0.0.dir/__/__/__/mesh/prov/src/prov_provisionee.c.obj
 .text          0x00000000        0x0 examples/light_switch/server/CMakeFiles/light_switch_server_nrf52840_xxAA_s140_6.0.0.dir/__/__/__/mesh/prov/src/nrf_mesh_prov.c.obj
 .data          0x00000000        0x0 examples/light_switch/server/CMakeFiles/light_switch_server_nrf52840_xxAA_s140_6.0.0.dir/__/__/__/mesh/prov/src/nrf_mesh_prov.c.obj
 .bss           0x00000000        0x0 examples/light_switch/server/CMakeFiles/light_switch_server_nrf52840_xxAA_s140_6.0.0.dir/__/__/__/mesh/prov/src/nrf_mesh_prov.c.obj
 .text.nrf_mesh_prov_provision
                0x00000000       0x4e examples/light_switch/server/CMakeFiles/light_switch_server_nrf52840_xxAA_s140_6.0.0.dir/__/__/__/mesh/prov/src/nrf_mesh_prov.c.obj
 .text.nrf_mesh_prov_oob_use
                0x00000000       0x18 examples/light_switch/server/CMakeFiles/light_switch_server_nrf52840_xxAA_s140_6.0.0.dir/__/__/__/mesh/prov/src/nrf_mesh_prov.c.obj
 .text.nrf_mesh_prov_shared_secret_provide
                0x00000000        0xe examples/light_switch/server/CMakeFiles/light_switch_server_nrf52840_xxAA_s140_6.0.0.dir/__/__/__/mesh/prov/src/nrf_mesh_prov.c.obj
 .text.nrf_mesh_prov_pubkey_provide
                0x00000000       0x10 examples/light_switch/server/CMakeFiles/light_switch_server_nrf52840_xxAA_s140_6.0.0.dir/__/__/__/mesh/prov/src/nrf_mesh_prov.c.obj
 .text.nrf_mesh_prov_scan_start
                0x00000000       0x10 examples/light_switch/server/CMakeFiles/light_switch_server_nrf52840_xxAA_s140_6.0.0.dir/__/__/__/mesh/prov/src/nrf_mesh_prov.c.obj
 .text.nrf_mesh_prov_scan_stop
                0x00000000        0x4 examples/light_switch/server/CMakeFiles/light_switch_server_nrf52840_xxAA_s140_6.0.0.dir/__/__/__/mesh/prov/src/nrf_mesh_prov.c.obj
 .text          0x00000000        0x0 examples/light_switch/server/CMakeFiles/light_switch_server_nrf52840_xxAA_s140_6.0.0.dir/__/__/__/mesh/prov/src/provisioning.c.obj
 .data          0x00000000        0x0 examples/light_switch/server/CMakeFiles/light_switch_server_nrf52840_xxAA_s140_6.0.0.dir/__/__/__/mesh/prov/src/provisioning.c.obj
 .bss           0x00000000        0x0 examples/light_switch/server/CMakeFiles/light_switch_server_nrf52840_xxAA_s140_6.0.0.dir/__/__/__/mesh/prov/src/provisioning.c.obj
 .text.prov_tx_invite
                0x00000000       0x28 examples/light_switch/server/CMakeFiles/light_switch_server_nrf52840_xxAA_s140_6.0.0.dir/__/__/__/mesh/prov/src/provisioning.c.obj
 .text.prov_tx_start
                0x00000000       0x20 examples/light_switch/server/CMakeFiles/light_switch_server_nrf52840_xxAA_s140_6.0.0.dir/__/__/__/mesh/prov/src/provisioning.c.obj
 .text.prov_tx_data
                0x00000000        0x6 examples/light_switch/server/CMakeFiles/light_switch_server_nrf52840_xxAA_s140_6.0.0.dir/__/__/__/mesh/prov/src/provisioning.c.obj
 .text.prov_tx  0x00000000        0x4 examples/light_switch/server/CMakeFiles/light_switch_server_nrf52840_xxAA_s140_6.0.0.dir/__/__/__/mesh/prov/src/provisioning.c.obj
 .text          0x00000000        0x0 examples/light_switch/server/CMakeFiles/light_switch_server_nrf52840_xxAA_s140_6.0.0.dir/__/__/__/mesh/prov/src/prov_beacon.c.obj
 .data          0x00000000        0x0 examples/light_switch/server/CMakeFiles/light_switch_server_nrf52840_xxAA_s140_6.0.0.dir/__/__/__/mesh/prov/src/prov_beacon.c.obj
 .bss           0x00000000        0x0 examples/light_switch/server/CMakeFiles/light_switch_server_nrf52840_xxAA_s140_6.0.0.dir/__/__/__/mesh/prov/src/prov_beacon.c.obj
 .text.prov_beacon_scan_start
                0x00000000       0x18 examples/light_switch/server/CMakeFiles/light_switch_server_nrf52840_xxAA_s140_6.0.0.dir/__/__/__/mesh/prov/src/prov_beacon.c.obj
 .text.prov_beacon_scan_stop
                0x00000000        0xc examples/light_switch/server/CMakeFiles/light_switch_server_nrf52840_xxAA_s140_6.0.0.dir/__/__/__/mesh/prov/src/prov_beacon.c.obj
 .text          0x00000000        0x0 examples/light_switch/server/CMakeFiles/light_switch_server_nrf52840_xxAA_s140_6.0.0.dir/__/__/__/mesh/prov/src/prov_utils.c.obj
 .data          0x00000000        0x0 examples/light_switch/server/CMakeFiles/light_switch_server_nrf52840_xxAA_s140_6.0.0.dir/__/__/__/mesh/prov/src/prov_utils.c.obj
 .bss           0x00000000        0x0 examples/light_switch/server/CMakeFiles/light_switch_server_nrf52840_xxAA_s140_6.0.0.dir/__/__/__/mesh/prov/src/prov_utils.c.obj
 .text.mesh_opt_prov_ecdh_offloading_set
                0x00000000       0x1c examples/light_switch/server/CMakeFiles/light_switch_server_nrf52840_xxAA_s140_6.0.0.dir/__/__/__/mesh/prov/src/prov_utils.c.obj
 .text.prov_utils_opt_set
                0x00000000       0x14 examples/light_switch/server/CMakeFiles/light_switch_server_nrf52840_xxAA_s140_6.0.0.dir/__/__/__/mesh/prov/src/prov_utils.c.obj
 .text.prov_utils_opt_get
                0x00000000       0x14 examples/light_switch/server/CMakeFiles/light_switch_server_nrf52840_xxAA_s140_6.0.0.dir/__/__/__/mesh/prov/src/prov_utils.c.obj
 .text          0x00000000        0x0 examples/light_switch/server/CMakeFiles/light_switch_server_nrf52840_xxAA_s140_6.0.0.dir/__/__/__/mesh/prov/src/prov_bearer_adv.c.obj
 .data          0x00000000        0x0 examples/light_switch/server/CMakeFiles/light_switch_server_nrf52840_xxAA_s140_6.0.0.dir/__/__/__/mesh/prov/src/prov_bearer_adv.c.obj
 .bss           0x00000000        0x0 examples/light_switch/server/CMakeFiles/light_switch_server_nrf52840_xxAA_s140_6.0.0.dir/__/__/__/mesh/prov/src/prov_bearer_adv.c.obj
 .text          0x00000000        0x0 examples/light_switch/server/CMakeFiles/light_switch_server_nrf52840_xxAA_s140_6.0.0.dir/C_/sdks/nRF5_SDK_15.0.0_a53641a/modules/nrfx/mdk/system_nrf52840.c.obj
 .data          0x00000000        0x0 examples/light_switch/server/CMakeFiles/light_switch_server_nrf52840_xxAA_s140_6.0.0.dir/C_/sdks/nRF5_SDK_15.0.0_a53641a/modules/nrfx/mdk/system_nrf52840.c.obj
 .bss           0x00000000        0x0 examples/light_switch/server/CMakeFiles/light_switch_server_nrf52840_xxAA_s140_6.0.0.dir/C_/sdks/nRF5_SDK_15.0.0_a53641a/modules/nrfx/mdk/system_nrf52840.c.obj
 .text.SystemCoreClockUpdate
                0x00000000       0x10 examples/light_switch/server/CMakeFiles/light_switch_server_nrf52840_xxAA_s140_6.0.0.dir/C_/sdks/nRF5_SDK_15.0.0_a53641a/modules/nrfx/mdk/system_nrf52840.c.obj
 .data          0x00000000        0x0 examples/light_switch/server/CMakeFiles/light_switch_server_nrf52840_xxAA_s140_6.0.0.dir/C_/sdks/nRF5_SDK_15.0.0_a53641a/modules/nrfx/mdk/gcc_startup_nrf52840.S.obj
 .bss           0x00000000        0x0 examples/light_switch/server/CMakeFiles/light_switch_server_nrf52840_xxAA_s140_6.0.0.dir/C_/sdks/nRF5_SDK_15.0.0_a53641a/modules/nrfx/mdk/gcc_startup_nrf52840.S.obj
 .text          0x00000000        0x0 examples/light_switch/server/CMakeFiles/light_switch_server_nrf52840_xxAA_s140_6.0.0.dir/C_/sdks/nRF5_SDK_15.0.0_a53641a/components/libraries/util/app_error.c.obj
 .data          0x00000000        0x0 examples/light_switch/server/CMakeFiles/light_switch_server_nrf52840_xxAA_s140_6.0.0.dir/C_/sdks/nRF5_SDK_15.0.0_a53641a/components/libraries/util/app_error.c.obj
 .bss           0x00000000        0x0 examples/light_switch/server/CMakeFiles/light_switch_server_nrf52840_xxAA_s140_6.0.0.dir/C_/sdks/nRF5_SDK_15.0.0_a53641a/components/libraries/util/app_error.c.obj
 .text.app_error_save_and_stop
                0x00000000       0x58 examples/light_switch/server/CMakeFiles/light_switch_server_nrf52840_xxAA_s140_6.0.0.dir/C_/sdks/nRF5_SDK_15.0.0_a53641a/components/libraries/util/app_error.c.obj
 .bss.m_error_data.8119
                0x00000000       0x20 examples/light_switch/server/CMakeFiles/light_switch_server_nrf52840_xxAA_s140_6.0.0.dir/C_/sdks/nRF5_SDK_15.0.0_a53641a/components/libraries/util/app_error.c.obj
 .text          0x00000000        0x0 examples/light_switch/server/CMakeFiles/light_switch_server_nrf52840_xxAA_s140_6.0.0.dir/C_/sdks/nRF5_SDK_15.0.0_a53641a/components/libraries/util/app_util_platform.c.obj
 .data          0x00000000        0x0 examples/light_switch/server/CMakeFiles/light_switch_server_nrf52840_xxAA_s140_6.0.0.dir/C_/sdks/nRF5_SDK_15.0.0_a53641a/components/libraries/util/app_util_platform.c.obj
 .bss           0x00000000        0x0 examples/light_switch/server/CMakeFiles/light_switch_server_nrf52840_xxAA_s140_6.0.0.dir/C_/sdks/nRF5_SDK_15.0.0_a53641a/components/libraries/util/app_util_platform.c.obj
 .text.app_util_disable_irq
                0x00000000       0x10 examples/light_switch/server/CMakeFiles/light_switch_server_nrf52840_xxAA_s140_6.0.0.dir/C_/sdks/nRF5_SDK_15.0.0_a53641a/components/libraries/util/app_util_platform.c.obj
 .text.app_util_enable_irq
                0x00000000       0x14 examples/light_switch/server/CMakeFiles/light_switch_server_nrf52840_xxAA_s140_6.0.0.dir/C_/sdks/nRF5_SDK_15.0.0_a53641a/components/libraries/util/app_util_platform.c.obj
 .text.privilege_level_get
                0x00000000       0x1a examples/light_switch/server/CMakeFiles/light_switch_server_nrf52840_xxAA_s140_6.0.0.dir/C_/sdks/nRF5_SDK_15.0.0_a53641a/components/libraries/util/app_util_platform.c.obj
 .text.current_int_priority_get
                0x00000000       0x38 examples/light_switch/server/CMakeFiles/light_switch_server_nrf52840_xxAA_s140_6.0.0.dir/C_/sdks/nRF5_SDK_15.0.0_a53641a/components/libraries/util/app_util_platform.c.obj
 .bss.m_in_critical_region
                0x00000000        0x4 examples/light_switch/server/CMakeFiles/light_switch_server_nrf52840_xxAA_s140_6.0.0.dir/C_/sdks/nRF5_SDK_15.0.0_a53641a/components/libraries/util/app_util_platform.c.obj
 .text          0x00000000        0x0 examples/light_switch/server/CMakeFiles/light_switch_server_nrf52840_xxAA_s140_6.0.0.dir/C_/sdks/nRF5_SDK_15.0.0_a53641a/components/libraries/timer/app_timer.c.obj
 .data          0x00000000        0x0 examples/light_switch/server/CMakeFiles/light_switch_server_nrf52840_xxAA_s140_6.0.0.dir/C_/sdks/nRF5_SDK_15.0.0_a53641a/components/libraries/timer/app_timer.c.obj
 .bss           0x00000000        0x0 examples/light_switch/server/CMakeFiles/light_switch_server_nrf52840_xxAA_s140_6.0.0.dir/C_/sdks/nRF5_SDK_15.0.0_a53641a/components/libraries/timer/app_timer.c.obj
 .text.app_timer_stop_all
                0x00000000       0x18 examples/light_switch/server/CMakeFiles/light_switch_server_nrf52840_xxAA_s140_6.0.0.dir/C_/sdks/nRF5_SDK_15.0.0_a53641a/components/libraries/timer/app_timer.c.obj
 .text.app_timer_pause
                0x00000000        0xc examples/light_switch/server/CMakeFiles/light_switch_server_nrf52840_xxAA_s140_6.0.0.dir/C_/sdks/nRF5_SDK_15.0.0_a53641a/components/libraries/timer/app_timer.c.obj
 .text.app_timer_resume
                0x00000000        0xc examples/light_switch/server/CMakeFiles/light_switch_server_nrf52840_xxAA_s140_6.0.0.dir/C_/sdks/nRF5_SDK_15.0.0_a53641a/components/libraries/timer/app_timer.c.obj
 .text          0x00000000        0x0 examples/light_switch/server/CMakeFiles/light_switch_server_nrf52840_xxAA_s140_6.0.0.dir/C_/sdks/nRF5_SDK_15.0.0_a53641a/components/libraries/util/app_error_handler_gcc.c.obj
 .data          0x00000000        0x0 examples/light_switch/server/CMakeFiles/light_switch_server_nrf52840_xxAA_s140_6.0.0.dir/C_/sdks/nRF5_SDK_15.0.0_a53641a/components/libraries/util/app_error_handler_gcc.c.obj
 .bss           0x00000000        0x0 examples/light_switch/server/CMakeFiles/light_switch_server_nrf52840_xxAA_s140_6.0.0.dir/C_/sdks/nRF5_SDK_15.0.0_a53641a/components/libraries/util/app_error_handler_gcc.c.obj
 .text          0x00000000        0x0 external/rtt/librtt_nrf52840_xxAA.a(SEGGER_RTT.c.obj)
 .data          0x00000000        0x0 external/rtt/librtt_nrf52840_xxAA.a(SEGGER_RTT.c.obj)
 .bss           0x00000000        0x0 external/rtt/librtt_nrf52840_xxAA.a(SEGGER_RTT.c.obj)
 .text._PostTerminalSwitch.constprop.0
                0x00000000       0x28 external/rtt/librtt_nrf52840_xxAA.a(SEGGER_RTT.c.obj)
 .text.SEGGER_RTT_WriteSkipNoLock
                0x00000000       0xb4 external/rtt/librtt_nrf52840_xxAA.a(SEGGER_RTT.c.obj)
 .text.SEGGER_RTT_WriteString
                0x00000000       0x1a external/rtt/librtt_nrf52840_xxAA.a(SEGGER_RTT.c.obj)
 .text.SEGGER_RTT_WaitKey
                0x00000000        0xc external/rtt/librtt_nrf52840_xxAA.a(SEGGER_RTT.c.obj)
 .text.SEGGER_RTT_HasKey
                0x00000000       0x1c external/rtt/librtt_nrf52840_xxAA.a(SEGGER_RTT.c.obj)
 .text.SEGGER_RTT_HasData
                0x00000000       0x14 external/rtt/librtt_nrf52840_xxAA.a(SEGGER_RTT.c.obj)
 .text.SEGGER_RTT_AllocDownBuffer
                0x00000000       0x68 external/rtt/librtt_nrf52840_xxAA.a(SEGGER_RTT.c.obj)
 .text.SEGGER_RTT_AllocUpBuffer
                0x00000000       0x70 external/rtt/librtt_nrf52840_xxAA.a(SEGGER_RTT.c.obj)
 .text.SEGGER_RTT_ConfigUpBuffer
                0x00000000       0x68 external/rtt/librtt_nrf52840_xxAA.a(SEGGER_RTT.c.obj)
 .text.SEGGER_RTT_ConfigDownBuffer
                0x00000000       0x60 external/rtt/librtt_nrf52840_xxAA.a(SEGGER_RTT.c.obj)
 .text.SEGGER_RTT_SetNameUpBuffer
                0x00000000       0x3c external/rtt/librtt_nrf52840_xxAA.a(SEGGER_RTT.c.obj)
 .text.SEGGER_RTT_SetNameDownBuffer
                0x00000000       0x3c external/rtt/librtt_nrf52840_xxAA.a(SEGGER_RTT.c.obj)
 .text.SEGGER_RTT_Init
                0x00000000       0x10 external/rtt/librtt_nrf52840_xxAA.a(SEGGER_RTT.c.obj)
 .text.SEGGER_RTT_SetTerminal
                0x00000000       0x84 external/rtt/librtt_nrf52840_xxAA.a(SEGGER_RTT.c.obj)
 .text.SEGGER_RTT_TerminalOut
                0x00000000       0xa0 external/rtt/librtt_nrf52840_xxAA.a(SEGGER_RTT.c.obj)
 .bss._ActiveTerminal
                0x00000000        0x1 external/rtt/librtt_nrf52840_xxAA.a(SEGGER_RTT.c.obj)
 .rodata._aTerminalId
                0x00000000       0x10 external/rtt/librtt_nrf52840_xxAA.a(SEGGER_RTT.c.obj)
 .text          0x00000000        0x0 external/rtt/librtt_nrf52840_xxAA.a(SEGGER_RTT_printf.c.obj)
 .data          0x00000000        0x0 external/rtt/librtt_nrf52840_xxAA.a(SEGGER_RTT_printf.c.obj)
 .bss           0x00000000        0x0 external/rtt/librtt_nrf52840_xxAA.a(SEGGER_RTT_printf.c.obj)
 .text          0x00000000        0x0 external/micro-ecc/libuECC_nrf52840_xxAA.a(uECC.c.obj)
 .data          0x00000000        0x0 external/micro-ecc/libuECC_nrf52840_xxAA.a(uECC.c.obj)
 .bss           0x00000000        0x0 external/micro-ecc/libuECC_nrf52840_xxAA.a(uECC.c.obj)
 .text.uECC_vli_modMult
                0x00000000      0x148 external/micro-ecc/libuECC_nrf52840_xxAA.a(uECC.c.obj)
 .text.HMAC_init
                0x00000000       0x46 external/micro-ecc/libuECC_nrf52840_xxAA.a(uECC.c.obj)
 .text.HMAC_update
                0x00000000        0x4 external/micro-ecc/libuECC_nrf52840_xxAA.a(uECC.c.obj)
 .text.HMAC_finish
                0x00000000       0x62 external/micro-ecc/libuECC_nrf52840_xxAA.a(uECC.c.obj)
 .text.update_V
                0x00000000       0x24 external/micro-ecc/libuECC_nrf52840_xxAA.a(uECC.c.obj)
 .text.bits2int
                0x00000000       0x88 external/micro-ecc/libuECC_nrf52840_xxAA.a(uECC.c.obj)
 .text.uECC_sign_with_k
                0x00000000      0x17c external/micro-ecc/libuECC_nrf52840_xxAA.a(uECC.c.obj)
 .text.uECC_set_rng
                0x00000000        0xc external/micro-ecc/libuECC_nrf52840_xxAA.a(uECC.c.obj)
 .text.uECC_get_rng
                0x00000000        0xc external/micro-ecc/libuECC_nrf52840_xxAA.a(uECC.c.obj)
 .text.uECC_curve_private_key_size
                0x00000000        0xe external/micro-ecc/libuECC_nrf52840_xxAA.a(uECC.c.obj)
 .text.uECC_curve_public_key_size
                0x00000000        0x8 external/micro-ecc/libuECC_nrf52840_xxAA.a(uECC.c.obj)
 .text.uECC_compute_public_key
                0x00000000       0x7e external/micro-ecc/libuECC_nrf52840_xxAA.a(uECC.c.obj)
 .text.uECC_sign
                0x00000000       0x56 external/micro-ecc/libuECC_nrf52840_xxAA.a(uECC.c.obj)
 .text.uECC_sign_deterministic
                0x00000000      0x192 external/micro-ecc/libuECC_nrf52840_xxAA.a(uECC.c.obj)
 .text.uECC_verify
                0x00000000      0x2f0 external/micro-ecc/libuECC_nrf52840_xxAA.a(uECC.c.obj)
 .data          0x00000000        0x0 c:/arm_gcc/bin/../lib/gcc/arm-none-eabi/6.3.1/thumb/v7e-m/fpv4-sp/hard\libgcc.a(_aeabi_uldivmod.o)
 .bss           0x00000000        0x0 c:/arm_gcc/bin/../lib/gcc/arm-none-eabi/6.3.1/thumb/v7e-m/fpv4-sp/hard\libgcc.a(_aeabi_uldivmod.o)
 .data          0x00000000        0x0 c:/arm_gcc/bin/../lib/gcc/arm-none-eabi/6.3.1/thumb/v7e-m/fpv4-sp/hard\libgcc.a(_udivmoddi4.o)
 .bss           0x00000000        0x0 c:/arm_gcc/bin/../lib/gcc/arm-none-eabi/6.3.1/thumb/v7e-m/fpv4-sp/hard\libgcc.a(_udivmoddi4.o)
 .ARM.extab     0x00000000        0x0 c:/arm_gcc/bin/../lib/gcc/arm-none-eabi/6.3.1/thumb/v7e-m/fpv4-sp/hard\libgcc.a(_udivmoddi4.o)
 .data          0x00000000        0x0 c:/arm_gcc/bin/../lib/gcc/arm-none-eabi/6.3.1/thumb/v7e-m/fpv4-sp/hard\libgcc.a(_dvmd_tls.o)
 .bss           0x00000000        0x0 c:/arm_gcc/bin/../lib/gcc/arm-none-eabi/6.3.1/thumb/v7e-m/fpv4-sp/hard\libgcc.a(_dvmd_tls.o)
 .text          0x00000000        0x0 c:/arm_gcc/bin/../lib/gcc/arm-none-eabi/6.3.1/../../../../arm-none-eabi/lib/thumb/v7e-m/fpv4-sp/hard\libg_nano.a(lib_a-exit.o)
 .data          0x00000000        0x0 c:/arm_gcc/bin/../lib/gcc/arm-none-eabi/6.3.1/../../../../arm-none-eabi/lib/thumb/v7e-m/fpv4-sp/hard\libg_nano.a(lib_a-exit.o)
 .bss           0x00000000        0x0 c:/arm_gcc/bin/../lib/gcc/arm-none-eabi/6.3.1/../../../../arm-none-eabi/lib/thumb/v7e-m/fpv4-sp/hard\libg_nano.a(lib_a-exit.o)
 .text          0x00000000        0x0 c:/arm_gcc/bin/../lib/gcc/arm-none-eabi/6.3.1/../../../../arm-none-eabi/lib/thumb/v7e-m/fpv4-sp/hard\libg_nano.a(lib_a-impure.o)
 .data          0x00000000        0x0 c:/arm_gcc/bin/../lib/gcc/arm-none-eabi/6.3.1/../../../../arm-none-eabi/lib/thumb/v7e-m/fpv4-sp/hard\libg_nano.a(lib_a-impure.o)
 .bss           0x00000000        0x0 c:/arm_gcc/bin/../lib/gcc/arm-none-eabi/6.3.1/../../../../arm-none-eabi/lib/thumb/v7e-m/fpv4-sp/hard\libg_nano.a(lib_a-impure.o)
 .text          0x00000000        0x0 c:/arm_gcc/bin/../lib/gcc/arm-none-eabi/6.3.1/../../../../arm-none-eabi/lib/thumb/v7e-m/fpv4-sp/hard\libg_nano.a(lib_a-init.o)
 .data          0x00000000        0x0 c:/arm_gcc/bin/../lib/gcc/arm-none-eabi/6.3.1/../../../../arm-none-eabi/lib/thumb/v7e-m/fpv4-sp/hard\libg_nano.a(lib_a-init.o)
 .bss           0x00000000        0x0 c:/arm_gcc/bin/../lib/gcc/arm-none-eabi/6.3.1/../../../../arm-none-eabi/lib/thumb/v7e-m/fpv4-sp/hard\libg_nano.a(lib_a-init.o)
 .text          0x00000000        0x0 c:/arm_gcc/bin/../lib/gcc/arm-none-eabi/6.3.1/../../../../arm-none-eabi/lib/thumb/v7e-m/fpv4-sp/hard\libg_nano.a(lib_a-malloc.o)
 .data          0x00000000        0x0 c:/arm_gcc/bin/../lib/gcc/arm-none-eabi/6.3.1/../../../../arm-none-eabi/lib/thumb/v7e-m/fpv4-sp/hard\libg_nano.a(lib_a-malloc.o)
 .bss           0x00000000        0x0 c:/arm_gcc/bin/../lib/gcc/arm-none-eabi/6.3.1/../../../../arm-none-eabi/lib/thumb/v7e-m/fpv4-sp/hard\libg_nano.a(lib_a-malloc.o)
 .text          0x00000000        0x0 c:/arm_gcc/bin/../lib/gcc/arm-none-eabi/6.3.1/../../../../arm-none-eabi/lib/thumb/v7e-m/fpv4-sp/hard\libg_nano.a(lib_a-memcmp.o)
 .data          0x00000000        0x0 c:/arm_gcc/bin/../lib/gcc/arm-none-eabi/6.3.1/../../../../arm-none-eabi/lib/thumb/v7e-m/fpv4-sp/hard\libg_nano.a(lib_a-memcmp.o)
 .bss           0x00000000        0x0 c:/arm_gcc/bin/../lib/gcc/arm-none-eabi/6.3.1/../../../../arm-none-eabi/lib/thumb/v7e-m/fpv4-sp/hard\libg_nano.a(lib_a-memcmp.o)
 .text          0x00000000        0x0 c:/arm_gcc/bin/../lib/gcc/arm-none-eabi/6.3.1/../../../../arm-none-eabi/lib/thumb/v7e-m/fpv4-sp/hard\libg_nano.a(lib_a-memcpy-stub.o)
 .data          0x00000000        0x0 c:/arm_gcc/bin/../lib/gcc/arm-none-eabi/6.3.1/../../../../arm-none-eabi/lib/thumb/v7e-m/fpv4-sp/hard\libg_nano.a(lib_a-memcpy-stub.o)
 .bss           0x00000000        0x0 c:/arm_gcc/bin/../lib/gcc/arm-none-eabi/6.3.1/../../../../arm-none-eabi/lib/thumb/v7e-m/fpv4-sp/hard\libg_nano.a(lib_a-memcpy-stub.o)
 .text          0x00000000        0x0 c:/arm_gcc/bin/../lib/gcc/arm-none-eabi/6.3.1/../../../../arm-none-eabi/lib/thumb/v7e-m/fpv4-sp/hard\libg_nano.a(lib_a-memset.o)
 .data          0x00000000        0x0 c:/arm_gcc/bin/../lib/gcc/arm-none-eabi/6.3.1/../../../../arm-none-eabi/lib/thumb/v7e-m/fpv4-sp/hard\libg_nano.a(lib_a-memset.o)
 .bss           0x00000000        0x0 c:/arm_gcc/bin/../lib/gcc/arm-none-eabi/6.3.1/../../../../arm-none-eabi/lib/thumb/v7e-m/fpv4-sp/hard\libg_nano.a(lib_a-memset.o)
 .text          0x00000000        0x0 c:/arm_gcc/bin/../lib/gcc/arm-none-eabi/6.3.1/../../../../arm-none-eabi/lib/thumb/v7e-m/fpv4-sp/hard\libg_nano.a(lib_a-nano-freer.o)
 .data          0x00000000        0x0 c:/arm_gcc/bin/../lib/gcc/arm-none-eabi/6.3.1/../../../../arm-none-eabi/lib/thumb/v7e-m/fpv4-sp/hard\libg_nano.a(lib_a-nano-freer.o)
 .bss           0x00000000        0x0 c:/arm_gcc/bin/../lib/gcc/arm-none-eabi/6.3.1/../../../../arm-none-eabi/lib/thumb/v7e-m/fpv4-sp/hard\libg_nano.a(lib_a-nano-freer.o)
 .text          0x00000000        0x0 c:/arm_gcc/bin/../lib/gcc/arm-none-eabi/6.3.1/../../../../arm-none-eabi/lib/thumb/v7e-m/fpv4-sp/hard\libg_nano.a(lib_a-nano-mallocr.o)
 .data          0x00000000        0x0 c:/arm_gcc/bin/../lib/gcc/arm-none-eabi/6.3.1/../../../../arm-none-eabi/lib/thumb/v7e-m/fpv4-sp/hard\libg_nano.a(lib_a-nano-mallocr.o)
 .bss           0x00000000        0x0 c:/arm_gcc/bin/../lib/gcc/arm-none-eabi/6.3.1/../../../../arm-none-eabi/lib/thumb/v7e-m/fpv4-sp/hard\libg_nano.a(lib_a-nano-mallocr.o)
 .text          0x00000000        0x0 c:/arm_gcc/bin/../lib/gcc/arm-none-eabi/6.3.1/../../../../arm-none-eabi/lib/thumb/v7e-m/fpv4-sp/hard\libg_nano.a(lib_a-sbrkr.o)
 .data          0x00000000        0x0 c:/arm_gcc/bin/../lib/gcc/arm-none-eabi/6.3.1/../../../../arm-none-eabi/lib/thumb/v7e-m/fpv4-sp/hard\libg_nano.a(lib_a-sbrkr.o)
 .bss           0x00000000        0x0 c:/arm_gcc/bin/../lib/gcc/arm-none-eabi/6.3.1/../../../../arm-none-eabi/lib/thumb/v7e-m/fpv4-sp/hard\libg_nano.a(lib_a-sbrkr.o)
 .text          0x00000000        0x0 c:/arm_gcc/bin/../lib/gcc/arm-none-eabi/6.3.1/../../../../arm-none-eabi/lib/thumb/v7e-m/fpv4-sp/hard\libg_nano.a(lib_a-strcpy.o)
 .data          0x00000000        0x0 c:/arm_gcc/bin/../lib/gcc/arm-none-eabi/6.3.1/../../../../arm-none-eabi/lib/thumb/v7e-m/fpv4-sp/hard\libg_nano.a(lib_a-strcpy.o)
 .bss           0x00000000        0x0 c:/arm_gcc/bin/../lib/gcc/arm-none-eabi/6.3.1/../../../../arm-none-eabi/lib/thumb/v7e-m/fpv4-sp/hard\libg_nano.a(lib_a-strcpy.o)
 .data          0x00000000        0x0 c:/arm_gcc/bin/../lib/gcc/arm-none-eabi/6.3.1/../../../../arm-none-eabi/lib/thumb/v7e-m/fpv4-sp/hard\libg_nano.a(lib_a-strlen.o)
 .bss           0x00000000        0x0 c:/arm_gcc/bin/../lib/gcc/arm-none-eabi/6.3.1/../../../../arm-none-eabi/lib/thumb/v7e-m/fpv4-sp/hard\libg_nano.a(lib_a-strlen.o)
 .text          0x00000000        0x0 c:/arm_gcc/bin/../lib/gcc/arm-none-eabi/6.3.1/../../../../arm-none-eabi/lib/thumb/v7e-m/fpv4-sp/hard\libg_nano.a(lib_a-strrchr.o)
 .data          0x00000000        0x0 c:/arm_gcc/bin/../lib/gcc/arm-none-eabi/6.3.1/../../../../arm-none-eabi/lib/thumb/v7e-m/fpv4-sp/hard\libg_nano.a(lib_a-strrchr.o)
 .bss           0x00000000        0x0 c:/arm_gcc/bin/../lib/gcc/arm-none-eabi/6.3.1/../../../../arm-none-eabi/lib/thumb/v7e-m/fpv4-sp/hard\libg_nano.a(lib_a-strrchr.o)
 .text          0x00000000        0x0 c:/arm_gcc/bin/../lib/gcc/arm-none-eabi/6.3.1/../../../../arm-none-eabi/lib/thumb/v7e-m/fpv4-sp/hard\libg_nano.a(lib_a-mlock.o)
 .data          0x00000000        0x0 c:/arm_gcc/bin/../lib/gcc/arm-none-eabi/6.3.1/../../../../arm-none-eabi/lib/thumb/v7e-m/fpv4-sp/hard\libg_nano.a(lib_a-mlock.o)
 .bss           0x00000000        0x0 c:/arm_gcc/bin/../lib/gcc/arm-none-eabi/6.3.1/../../../../arm-none-eabi/lib/thumb/v7e-m/fpv4-sp/hard\libg_nano.a(lib_a-mlock.o)
 .text          0x00000000        0x0 c:/arm_gcc/bin/../lib/gcc/arm-none-eabi/6.3.1/../../../../arm-none-eabi/lib/thumb/v7e-m/fpv4-sp/hard\libg_nano.a(lib_a-reent.o)
 .data          0x00000000        0x0 c:/arm_gcc/bin/../lib/gcc/arm-none-eabi/6.3.1/../../../../arm-none-eabi/lib/thumb/v7e-m/fpv4-sp/hard\libg_nano.a(lib_a-reent.o)
 .bss           0x00000000        0x0 c:/arm_gcc/bin/../lib/gcc/arm-none-eabi/6.3.1/../../../../arm-none-eabi/lib/thumb/v7e-m/fpv4-sp/hard\libg_nano.a(lib_a-reent.o)
 .text.cleanup_glue
                0x00000000       0x1a c:/arm_gcc/bin/../lib/gcc/arm-none-eabi/6.3.1/../../../../arm-none-eabi/lib/thumb/v7e-m/fpv4-sp/hard\libg_nano.a(lib_a-reent.o)
 .text._reclaim_reent
                0x00000000       0xb8 c:/arm_gcc/bin/../lib/gcc/arm-none-eabi/6.3.1/../../../../arm-none-eabi/lib/thumb/v7e-m/fpv4-sp/hard\libg_nano.a(lib_a-reent.o)
 .text          0x00000000        0x0 c:/arm_gcc/bin/../lib/gcc/arm-none-eabi/6.3.1/../../../../arm-none-eabi/lib/thumb/v7e-m/fpv4-sp/hard\libg_nano.a(lib_a-strchr.o)
 .data          0x00000000        0x0 c:/arm_gcc/bin/../lib/gcc/arm-none-eabi/6.3.1/../../../../arm-none-eabi/lib/thumb/v7e-m/fpv4-sp/hard\libg_nano.a(lib_a-strchr.o)
 .bss           0x00000000        0x0 c:/arm_gcc/bin/../lib/gcc/arm-none-eabi/6.3.1/../../../../arm-none-eabi/lib/thumb/v7e-m/fpv4-sp/hard\libg_nano.a(lib_a-strchr.o)
 .text          0x00000000        0x0 c:/arm_gcc/bin/../lib/gcc/arm-none-eabi/6.3.1/thumb/v7e-m/fpv4-sp/hard/crtend.o
 .data          0x00000000        0x0 c:/arm_gcc/bin/../lib/gcc/arm-none-eabi/6.3.1/thumb/v7e-m/fpv4-sp/hard/crtend.o
 .bss           0x00000000        0x0 c:/arm_gcc/bin/../lib/gcc/arm-none-eabi/6.3.1/thumb/v7e-m/fpv4-sp/hard/crtend.o
 .text          0x00000000        0x0 c:/arm_gcc/bin/../lib/gcc/arm-none-eabi/6.3.1/thumb/v7e-m/fpv4-sp/hard/crtn.o
 .data          0x00000000        0x0 c:/arm_gcc/bin/../lib/gcc/arm-none-eabi/6.3.1/thumb/v7e-m/fpv4-sp/hard/crtn.o
 .bss           0x00000000        0x0 c:/arm_gcc/bin/../lib/gcc/arm-none-eabi/6.3.1/thumb/v7e-m/fpv4-sp/hard/crtn.o
 .text          0x00000000        0x0 c:/arm_gcc/bin/../lib/gcc/arm-none-eabi/6.3.1/../../../../arm-none-eabi/lib/thumb/v7e-m/fpv4-sp/hard\libnosys.a(sbrk.o)
 .data          0x00000000        0x0 c:/arm_gcc/bin/../lib/gcc/arm-none-eabi/6.3.1/../../../../arm-none-eabi/lib/thumb/v7e-m/fpv4-sp/hard\libnosys.a(sbrk.o)
 .bss           0x00000000        0x0 c:/arm_gcc/bin/../lib/gcc/arm-none-eabi/6.3.1/../../../../arm-none-eabi/lib/thumb/v7e-m/fpv4-sp/hard\libnosys.a(sbrk.o)
 .text          0x00000000        0x0 c:/arm_gcc/bin/../lib/gcc/arm-none-eabi/6.3.1/../../../../arm-none-eabi/lib/thumb/v7e-m/fpv4-sp/hard\libnosys.a(_exit.o)
 .data          0x00000000        0x0 c:/arm_gcc/bin/../lib/gcc/arm-none-eabi/6.3.1/../../../../arm-none-eabi/lib/thumb/v7e-m/fpv4-sp/hard\libnosys.a(_exit.o)
 .bss           0x00000000        0x0 c:/arm_gcc/bin/../lib/gcc/arm-none-eabi/6.3.1/../../../../arm-none-eabi/lib/thumb/v7e-m/fpv4-sp/hard\libnosys.a(_exit.o)

Memory Configuration

Name             Origin             Length             Attributes
FLASH            0x00026000         0x000d1000         xr
RAM              0x20002da0         0x0003cf60         xrw
*default*        0x00000000         0xffffffff

Linker script and memory map


.text           0x00026000    0x147e4
 *(.isr_vector)
 .isr_vector    0x00026000      0x200 examples/light_switch/server/CMakeFiles/light_switch_server_nrf52840_xxAA_s140_6.0.0.dir/C_/sdks/nRF5_SDK_15.0.0_a53641a/modules/nrfx/mdk/gcc_startup_nrf52840.S.obj
                0x00026000                __isr_vector
 *(.text*)
 .text          0x00026200       0x6c c:/arm_gcc/bin/../lib/gcc/arm-none-eabi/6.3.1/thumb/v7e-m/fpv4-sp/hard/crtbegin.o
 .text          0x0002626c       0x74 c:/arm_gcc/bin/../lib/gcc/arm-none-eabi/6.3.1/../../../../arm-none-eabi/lib/thumb/v7e-m/fpv4-sp/hard/crt0.o
                0x0002626c                _start
                0x0002626c                _mainCRTStartup
 .text.sd_app_evt_wait
                0x000262e0        0x4 examples/light_switch/server/CMakeFiles/light_switch_server_nrf52840_xxAA_s140_6.0.0.dir/src/main.c.obj
 .text.provisioning_complete_cb
                0x000262e4       0xd0 examples/light_switch/server/CMakeFiles/light_switch_server_nrf52840_xxAA_s140_6.0.0.dir/src/main.c.obj
 .text.app_onoff_server_get_cb
                0x000263b4        0xe examples/light_switch/server/CMakeFiles/light_switch_server_nrf52840_xxAA_s140_6.0.0.dir/src/main.c.obj
 *fill*         0x000263c2        0x2 
 .text.app_onoff_server_set_cb
                0x000263c4       0x70 examples/light_switch/server/CMakeFiles/light_switch_server_nrf52840_xxAA_s140_6.0.0.dir/src/main.c.obj
 .text.node_reset
                0x00026434       0x74 examples/light_switch/server/CMakeFiles/light_switch_server_nrf52840_xxAA_s140_6.0.0.dir/src/main.c.obj
 .text.button_event_handler
                0x000264a8       0xf0 examples/light_switch/server/CMakeFiles/light_switch_server_nrf52840_xxAA_s140_6.0.0.dir/src/main.c.obj
 .text.app_rtt_input_handler
                0x00026598        0xc examples/light_switch/server/CMakeFiles/light_switch_server_nrf52840_xxAA_s140_6.0.0.dir/src/main.c.obj
 .text.config_server_evt_cb
                0x000265a4        0xc examples/light_switch/server/CMakeFiles/light_switch_server_nrf52840_xxAA_s140_6.0.0.dir/src/main.c.obj
 .text.models_init_cb
                0x000265b0       0x80 examples/light_switch/server/CMakeFiles/light_switch_server_nrf52840_xxAA_s140_6.0.0.dir/src/main.c.obj
 .text.startup.main
                0x00026630      0x27c examples/light_switch/server/CMakeFiles/light_switch_server_nrf52840_xxAA_s140_6.0.0.dir/src/main.c.obj
                0x00026630                main
 .text.generic_onoff_state_get_cb
                0x000268ac       0xa8 examples/light_switch/server/CMakeFiles/light_switch_server_nrf52840_xxAA_s140_6.0.0.dir/__/__/common/src/app_onoff.c.obj
 .text.onoff_state_process_timing
                0x00026954       0xec examples/light_switch/server/CMakeFiles/light_switch_server_nrf52840_xxAA_s140_6.0.0.dir/__/__/common/src/app_onoff.c.obj
 .text.onoff_state_value_update
                0x00026a40       0xb4 examples/light_switch/server/CMakeFiles/light_switch_server_nrf52840_xxAA_s140_6.0.0.dir/__/__/common/src/app_onoff.c.obj
 .text.generic_onoff_state_set_cb
                0x00026af4       0xa8 examples/light_switch/server/CMakeFiles/light_switch_server_nrf52840_xxAA_s140_6.0.0.dir/__/__/common/src/app_onoff.c.obj
 .text.onoff_state_timer_cb
                0x00026b9c       0x4c examples/light_switch/server/CMakeFiles/light_switch_server_nrf52840_xxAA_s140_6.0.0.dir/__/__/common/src/app_onoff.c.obj
 .text.app_onoff_status_publish
                0x00026be8       0x42 examples/light_switch/server/CMakeFiles/light_switch_server_nrf52840_xxAA_s140_6.0.0.dir/__/__/common/src/app_onoff.c.obj
                0x00026be8                app_onoff_status_publish
 *fill*         0x00026c2a        0x2 
 .text.app_onoff_init
                0x00026c2c       0x38 examples/light_switch/server/CMakeFiles/light_switch_server_nrf52840_xxAA_s140_6.0.0.dir/__/__/common/src/app_onoff.c.obj
                0x00026c2c                app_onoff_init
 .text.mesh_evt_handler
                0x00026c64        0xe examples/light_switch/server/CMakeFiles/light_switch_server_nrf52840_xxAA_s140_6.0.0.dir/__/__/__/mesh/stack/src/mesh_stack.c.obj
 .text.mesh_stack_start
                0x00026c72        0x4 examples/light_switch/server/CMakeFiles/light_switch_server_nrf52840_xxAA_s140_6.0.0.dir/__/__/__/mesh/stack/src/mesh_stack.c.obj
                0x00026c72                mesh_stack_start
 .text.mesh_stack_provisioning_data_store
                0x00026c76       0x6c examples/light_switch/server/CMakeFiles/light_switch_server_nrf52840_xxAA_s140_6.0.0.dir/__/__/__/mesh/stack/src/mesh_stack.c.obj
                0x00026c76                mesh_stack_provisioning_data_store
 .text.mesh_stack_config_clear
                0x00026ce2       0x12 examples/light_switch/server/CMakeFiles/light_switch_server_nrf52840_xxAA_s140_6.0.0.dir/__/__/__/mesh/stack/src/mesh_stack.c.obj
                0x00026ce2                mesh_stack_config_clear
 .text.mesh_stack_is_device_provisioned
                0x00026cf4       0x18 examples/light_switch/server/CMakeFiles/light_switch_server_nrf52840_xxAA_s140_6.0.0.dir/__/__/__/mesh/stack/src/mesh_stack.c.obj
                0x00026cf4                mesh_stack_is_device_provisioned
 .text.mesh_stack_init
                0x00026d0c       0x64 examples/light_switch/server/CMakeFiles/light_switch_server_nrf52840_xxAA_s140_6.0.0.dir/__/__/__/mesh/stack/src/mesh_stack.c.obj
                0x00026d0c                mesh_stack_init
 .text.mesh_stack_device_reset
                0x00026d70       0x20 examples/light_switch/server/CMakeFiles/light_switch_server_nrf52840_xxAA_s140_6.0.0.dir/__/__/__/mesh/stack/src/mesh_stack.c.obj
                0x00026d70                mesh_stack_device_reset
 .text.sd_evt_get
                0x00026d90        0x4 examples/light_switch/server/CMakeFiles/light_switch_server_nrf52840_xxAA_s140_6.0.0.dir/__/__/common/src/mesh_softdevice_init.c.obj
 .text.sd_softdevice_enable
                0x00026d94        0x4 examples/light_switch/server/CMakeFiles/light_switch_server_nrf52840_xxAA_s140_6.0.0.dir/__/__/common/src/mesh_softdevice_init.c.obj
 .text.sd_ble_enable
                0x00026d98        0x4 examples/light_switch/server/CMakeFiles/light_switch_server_nrf52840_xxAA_s140_6.0.0.dir/__/__/common/src/mesh_softdevice_init.c.obj
 .text.sd_ble_cfg_set
                0x00026d9c        0x4 examples/light_switch/server/CMakeFiles/light_switch_server_nrf52840_xxAA_s140_6.0.0.dir/__/__/common/src/mesh_softdevice_init.c.obj
 .text.SWI2_EGU2_IRQHandler
                0x00026da0       0x18 examples/light_switch/server/CMakeFiles/light_switch_server_nrf52840_xxAA_s140_6.0.0.dir/__/__/common/src/mesh_softdevice_init.c.obj
                0x00026da0                SWI2_EGU2_IRQHandler
 .text.mesh_softdevice_init
                0x00026db8      0x1ac examples/light_switch/server/CMakeFiles/light_switch_server_nrf52840_xxAA_s140_6.0.0.dir/__/__/common/src/mesh_softdevice_init.c.obj
                0x00026db8                mesh_softdevice_init
 .text.provisionee_start
                0x00026f64       0x18 examples/light_switch/server/CMakeFiles/light_switch_server_nrf52840_xxAA_s140_6.0.0.dir/__/__/common/src/mesh_provisionee.c.obj
 .text.prov_evt_handler
                0x00026f7c       0x64 examples/light_switch/server/CMakeFiles/light_switch_server_nrf52840_xxAA_s140_6.0.0.dir/__/__/common/src/mesh_provisionee.c.obj
 .text.mesh_provisionee_prov_start
                0x00026fe0       0x78 examples/light_switch/server/CMakeFiles/light_switch_server_nrf52840_xxAA_s140_6.0.0.dir/__/__/common/src/mesh_provisionee.c.obj
                0x00026fe0                mesh_provisionee_prov_start
 .text.timeout_handler
                0x00027058       0x1c examples/light_switch/server/CMakeFiles/light_switch_server_nrf52840_xxAA_s140_6.0.0.dir/__/__/common/src/rtt_input.c.obj
                0x00027058                timeout_handler
 .text.rtt_input_enable
                0x00027074       0x6c examples/light_switch/server/CMakeFiles/light_switch_server_nrf52840_xxAA_s140_6.0.0.dir/__/__/common/src/rtt_input.c.obj
                0x00027074                rtt_input_enable
 .text.led_timeout_handler
                0x000270e0       0x40 examples/light_switch/server/CMakeFiles/light_switch_server_nrf52840_xxAA_s140_6.0.0.dir/__/__/common/src/simple_hal.c.obj
 .text.hal_led_pin_get
                0x00027120       0x18 examples/light_switch/server/CMakeFiles/light_switch_server_nrf52840_xxAA_s140_6.0.0.dir/__/__/common/src/simple_hal.c.obj
                0x00027120                hal_led_pin_get
 .text.hal_led_pin_set
                0x00027138       0x16 examples/light_switch/server/CMakeFiles/light_switch_server_nrf52840_xxAA_s140_6.0.0.dir/__/__/common/src/simple_hal.c.obj
                0x00027138                hal_led_pin_set
 .text.hal_led_mask_set
                0x0002714e       0x12 examples/light_switch/server/CMakeFiles/light_switch_server_nrf52840_xxAA_s140_6.0.0.dir/__/__/common/src/simple_hal.c.obj
                0x0002714e                hal_led_mask_set
 .text.hal_led_blink_ms
                0x00027160       0x5c examples/light_switch/server/CMakeFiles/light_switch_server_nrf52840_xxAA_s140_6.0.0.dir/__/__/common/src/simple_hal.c.obj
                0x00027160                hal_led_blink_ms
 .text.hal_leds_init
                0x000271bc       0x58 examples/light_switch/server/CMakeFiles/light_switch_server_nrf52840_xxAA_s140_6.0.0.dir/__/__/common/src/simple_hal.c.obj
                0x000271bc                hal_leds_init
 .text.hal_buttons_init
                0x00027214       0x50 examples/light_switch/server/CMakeFiles/light_switch_server_nrf52840_xxAA_s140_6.0.0.dir/__/__/common/src/simple_hal.c.obj
                0x00027214                hal_buttons_init
 .text.GPIOTE_IRQHandler
                0x00027264       0x60 examples/light_switch/server/CMakeFiles/light_switch_server_nrf52840_xxAA_s140_6.0.0.dir/__/__/common/src/simple_hal.c.obj
                0x00027264                GPIOTE_IRQHandler
 .text.mesh_app_uuid_gen
                0x000272c4       0x30 examples/light_switch/server/CMakeFiles/light_switch_server_nrf52840_xxAA_s140_6.0.0.dir/__/__/common/src/mesh_app_utils.c.obj
                0x000272c4                mesh_app_uuid_gen
 .text._weak_handler
                0x000272f4        0x4 examples/light_switch/server/CMakeFiles/light_switch_server_nrf52840_xxAA_s140_6.0.0.dir/__/__/nrf_mesh_weak.c.obj
                0x000272f4                nrf_mesh_dfu_init
                0x000272f4                nrf_mesh_dfu_jump_to_bootloader
                0x000272f4                nrf_mesh_dfu_rx
                0x000272f4                prov_provisioner_provision
                0x000272f4                nrf_mesh_dfu_bank_info_get
                0x000272f4                prov_provisioner_oob_pubkey
                0x000272f4                nrf_mesh_dfu_request
                0x000272f4                nrf_mesh_dfu_bank_flash
                0x000272f4                nrf_mesh_dfu_enable
                0x000272f4                _weak_handler
                0x000272f4                nrf_mesh_dfu_relay
                0x000272f4                nrf_mesh_dfu_abort
                0x000272f4                mesh_flash_op_execute
                0x000272f4                prov_provisionee_init
                0x000272f4                nrf_mesh_dfu_state_get
                0x000272f4                prov_provisioner_shared_secret
                0x000272f4                prov_provisioner_auth_data
                0x000272f4                prov_provisioner_oob_use
 .text.app_error_fault_handler
                0x000272f8      0x204 examples/light_switch/server/CMakeFiles/light_switch_server_nrf52840_xxAA_s140_6.0.0.dir/__/__/common/src/app_error_weak.c.obj
                0x000272f8                app_error_fault_handler
 .text.mesh_assertion_handler
                0x000274fc       0x24 examples/light_switch/server/CMakeFiles/light_switch_server_nrf52840_xxAA_s140_6.0.0.dir/__/__/common/src/assertion_handler_weak.c.obj
                0x000274fc                mesh_assertion_handler
 .text.nrf_mesh_configure_device_uuid_set
                0x00027520       0x10 examples/light_switch/server/CMakeFiles/light_switch_server_nrf52840_xxAA_s140_6.0.0.dir/__/__/__/mesh/core/src/nrf_mesh_configure.c.obj
                0x00027520                nrf_mesh_configure_device_uuid_set
 .text.nrf_mesh_configure_device_uuid_reset
                0x00027530       0x28 examples/light_switch/server/CMakeFiles/light_switch_server_nrf52840_xxAA_s140_6.0.0.dir/__/__/__/mesh/core/src/nrf_mesh_configure.c.obj
                0x00027530                nrf_mesh_configure_device_uuid_reset
 .text.nrf_mesh_configure_device_uuid_get
                0x00027558        0x8 examples/light_switch/server/CMakeFiles/light_switch_server_nrf52840_xxAA_s140_6.0.0.dir/__/__/__/mesh/core/src/nrf_mesh_configure.c.obj
                0x00027558                nrf_mesh_configure_device_uuid_get
 .text.msg_cache_init
                0x00027560       0x24 examples/light_switch/server/CMakeFiles/light_switch_server_nrf52840_xxAA_s140_6.0.0.dir/__/__/__/mesh/core/src/msg_cache.c.obj
                0x00027560                msg_cache_init
 .text.msg_cache_entry_exists
                0x00027584       0x3c examples/light_switch/server/CMakeFiles/light_switch_server_nrf52840_xxAA_s140_6.0.0.dir/__/__/__/mesh/core/src/msg_cache.c.obj
                0x00027584                msg_cache_entry_exists
 .text.msg_cache_entry_add
                0x000275c0       0x2c examples/light_switch/server/CMakeFiles/light_switch_server_nrf52840_xxAA_s140_6.0.0.dir/__/__/__/mesh/core/src/msg_cache.c.obj
                0x000275c0                msg_cache_entry_add
 .text.seqauth_sequence_number_get
                0x000275ec       0x12 examples/light_switch/server/CMakeFiles/light_switch_server_nrf52840_xxAA_s140_6.0.0.dir/__/__/__/mesh/core/src/transport.c.obj
 *fill*         0x000275fe        0x2 
 .text.control_packet_callback_get
                0x00027600       0x44 examples/light_switch/server/CMakeFiles/light_switch_server_nrf52840_xxAA_s140_6.0.0.dir/__/__/__/mesh/core/src/transport.c.obj
 .text.tx_complete
                0x00027644       0x2c examples/light_switch/server/CMakeFiles/light_switch_server_nrf52840_xxAA_s140_6.0.0.dir/__/__/__/mesh/core/src/transport.c.obj
 .text.block_ack_full
                0x00027670       0x1a examples/light_switch/server/CMakeFiles/light_switch_server_nrf52840_xxAA_s140_6.0.0.dir/__/__/__/mesh/core/src/transport.c.obj
 *fill*         0x0002768a        0x2 
 .text.sar_rx_session_mark_as_handled
                0x0002768c       0x48 examples/light_switch/server/CMakeFiles/light_switch_server_nrf52840_xxAA_s140_6.0.0.dir/__/__/__/mesh/core/src/transport.c.obj
 .text.upper_trs_packet_encrypt
                0x000276d4       0x90 examples/light_switch/server/CMakeFiles/light_switch_server_nrf52840_xxAA_s140_6.0.0.dir/__/__/__/mesh/core/src/transport.c.obj
 .text.sar_ctx_free
                0x00027764       0x40 examples/light_switch/server/CMakeFiles/light_switch_server_nrf52840_xxAA_s140_6.0.0.dir/__/__/__/mesh/core/src/transport.c.obj
 .text.sar_ctx_tx_complete
                0x000277a4       0x2e examples/light_switch/server/CMakeFiles/light_switch_server_nrf52840_xxAA_s140_6.0.0.dir/__/__/__/mesh/core/src/transport.c.obj
 *fill*         0x000277d2        0x2 
 .text.sar_ctx_alloc
                0x000277d4       0xa8 examples/light_switch/server/CMakeFiles/light_switch_server_nrf52840_xxAA_s140_6.0.0.dir/__/__/__/mesh/core/src/transport.c.obj
 .text.test_transport_decrypt
                0x0002787c       0x88 examples/light_switch/server/CMakeFiles/light_switch_server_nrf52840_xxAA_s140_6.0.0.dir/__/__/__/mesh/core/src/transport.c.obj
 .text.upper_transport_access_packet_in
                0x00027904      0x19c examples/light_switch/server/CMakeFiles/light_switch_server_nrf52840_xxAA_s140_6.0.0.dir/__/__/__/mesh/core/src/transport.c.obj
 .text.trs_packet_header_build
                0x00027aa0       0xa6 examples/light_switch/server/CMakeFiles/light_switch_server_nrf52840_xxAA_s140_6.0.0.dir/__/__/__/mesh/core/src/transport.c.obj
 *fill*         0x00027b46        0x2 
 .text.tx_retry_timer_reset
                0x00027b48       0x44 examples/light_switch/server/CMakeFiles/light_switch_server_nrf52840_xxAA_s140_6.0.0.dir/__/__/__/mesh/core/src/transport.c.obj
 .text.sar_ctx_cancel
                0x00027b8c       0xa8 examples/light_switch/server/CMakeFiles/light_switch_server_nrf52840_xxAA_s140_6.0.0.dir/__/__/__/mesh/core/src/transport.c.obj
 .text.abort_timeout
                0x00027c34        0x8 examples/light_switch/server/CMakeFiles/light_switch_server_nrf52840_xxAA_s140_6.0.0.dir/__/__/__/mesh/core/src/transport.c.obj
 .text.trs_sar_packet_out
                0x00027c3c       0xda examples/light_switch/server/CMakeFiles/light_switch_server_nrf52840_xxAA_s140_6.0.0.dir/__/__/__/mesh/core/src/transport.c.obj
 .text.retry_timeout
                0x00027d16       0x46 examples/light_switch/server/CMakeFiles/light_switch_server_nrf52840_xxAA_s140_6.0.0.dir/__/__/__/mesh/core/src/transport.c.obj
 .text.upper_transport_packet_in
                0x00027d5c      0x150 examples/light_switch/server/CMakeFiles/light_switch_server_nrf52840_xxAA_s140_6.0.0.dir/__/__/__/mesh/core/src/transport.c.obj
 .text.upper_transport_tx
                0x00027eac      0x1e4 examples/light_switch/server/CMakeFiles/light_switch_server_nrf52840_xxAA_s140_6.0.0.dir/__/__/__/mesh/core/src/transport.c.obj
 .text.transport_sar_mem_funcs_reset
                0x00028090       0x28 examples/light_switch/server/CMakeFiles/light_switch_server_nrf52840_xxAA_s140_6.0.0.dir/__/__/__/mesh/core/src/transport.c.obj
                0x00028090                transport_sar_mem_funcs_reset
 .text.transport_init
                0x000280b8       0x8c examples/light_switch/server/CMakeFiles/light_switch_server_nrf52840_xxAA_s140_6.0.0.dir/__/__/__/mesh/core/src/transport.c.obj
                0x000280b8                transport_init
 .text.transport_tx
                0x00028144       0xb4 examples/light_switch/server/CMakeFiles/light_switch_server_nrf52840_xxAA_s140_6.0.0.dir/__/__/__/mesh/core/src/transport.c.obj
                0x00028144                transport_tx
 .text.transport_control_tx
                0x000281f8       0x8e examples/light_switch/server/CMakeFiles/light_switch_server_nrf52840_xxAA_s140_6.0.0.dir/__/__/__/mesh/core/src/transport.c.obj
                0x000281f8                transport_control_tx
 *fill*         0x00028286        0x2 
 .text.sar_ack_send
                0x00028288       0xa0 examples/light_switch/server/CMakeFiles/light_switch_server_nrf52840_xxAA_s140_6.0.0.dir/__/__/__/mesh/core/src/transport.c.obj
 .text.transport_sar_process
                0x00028328       0x74 examples/light_switch/server/CMakeFiles/light_switch_server_nrf52840_xxAA_s140_6.0.0.dir/__/__/__/mesh/core/src/transport.c.obj
 .text.transport_packet_in
                0x0002839c      0x434 examples/light_switch/server/CMakeFiles/light_switch_server_nrf52840_xxAA_s140_6.0.0.dir/__/__/__/mesh/core/src/transport.c.obj
                0x0002839c                transport_packet_in
 .text.ack_timeout
                0x000287d0       0x28 examples/light_switch/server/CMakeFiles/light_switch_server_nrf52840_xxAA_s140_6.0.0.dir/__/__/__/mesh/core/src/transport.c.obj
 .text.transport_control_packet_consumer_add
                0x000287f8       0x5c examples/light_switch/server/CMakeFiles/light_switch_server_nrf52840_xxAA_s140_6.0.0.dir/__/__/__/mesh/core/src/transport.c.obj
                0x000287f8                transport_control_packet_consumer_add
 .text.event_handle
                0x00028854       0x54 examples/light_switch/server/CMakeFiles/light_switch_server_nrf52840_xxAA_s140_6.0.0.dir/__/__/__/mesh/core/src/event.c.obj
                0x00028854                event_handle
 .text.event_handler_add
                0x000288a8       0x20 examples/light_switch/server/CMakeFiles/light_switch_server_nrf52840_xxAA_s140_6.0.0.dir/__/__/__/mesh/core/src/event.c.obj
                0x000288a8                event_handler_add
 .text.event_handler_remove
                0x000288c8       0x34 examples/light_switch/server/CMakeFiles/light_switch_server_nrf52840_xxAA_s140_6.0.0.dir/__/__/__/mesh/core/src/event.c.obj
                0x000288c8                event_handler_remove
 .text.m_index_increment
                0x000288fc       0x1e examples/light_switch/server/CMakeFiles/light_switch_server_nrf52840_xxAA_s140_6.0.0.dir/__/__/__/mesh/core/src/packet_buffer.c.obj
 .text.packet_buffer_init
                0x0002891a       0xac examples/light_switch/server/CMakeFiles/light_switch_server_nrf52840_xxAA_s140_6.0.0.dir/__/__/__/mesh/core/src/packet_buffer.c.obj
                0x0002891a                packet_buffer_init
 .text.packet_buffer_flush
                0x000289c6       0x60 examples/light_switch/server/CMakeFiles/light_switch_server_nrf52840_xxAA_s140_6.0.0.dir/__/__/__/mesh/core/src/packet_buffer.c.obj
                0x000289c6                packet_buffer_flush
 .text.packet_buffer_reserve
                0x00028a26       0x96 examples/light_switch/server/CMakeFiles/light_switch_server_nrf52840_xxAA_s140_6.0.0.dir/__/__/__/mesh/core/src/packet_buffer.c.obj
                0x00028a26                packet_buffer_reserve
 .text.packet_buffer_commit
                0x00028abc       0x58 examples/light_switch/server/CMakeFiles/light_switch_server_nrf52840_xxAA_s140_6.0.0.dir/__/__/__/mesh/core/src/packet_buffer.c.obj
                0x00028abc                packet_buffer_commit
 .text.packet_buffer_pop
                0x00028b14       0x50 examples/light_switch/server/CMakeFiles/light_switch_server_nrf52840_xxAA_s140_6.0.0.dir/__/__/__/mesh/core/src/packet_buffer.c.obj
                0x00028b14                packet_buffer_pop
 .text.packet_buffer_can_pop
                0x00028b64       0x38 examples/light_switch/server/CMakeFiles/light_switch_server_nrf52840_xxAA_s140_6.0.0.dir/__/__/__/mesh/core/src/packet_buffer.c.obj
                0x00028b64                packet_buffer_can_pop
 .text.packet_buffer_packets_ready_to_pop
                0x00028b9c       0x3c examples/light_switch/server/CMakeFiles/light_switch_server_nrf52840_xxAA_s140_6.0.0.dir/__/__/__/mesh/core/src/packet_buffer.c.obj
                0x00028b9c                packet_buffer_packets_ready_to_pop
 .text.packet_buffer_free
                0x00028bd8       0x6e examples/light_switch/server/CMakeFiles/light_switch_server_nrf52840_xxAA_s140_6.0.0.dir/__/__/__/mesh/core/src/packet_buffer.c.obj
                0x00028bd8                packet_buffer_free
 .text.get_last_page
                0x00028c46       0x14 examples/light_switch/server/CMakeFiles/light_switch_server_nrf52840_xxAA_s140_6.0.0.dir/__/__/__/mesh/core/src/flash_manager_defrag.c.obj
 *fill*         0x00028c5a        0x2 
 .text.defrag_on_end
                0x00028c5c       0x1c examples/light_switch/server/CMakeFiles/light_switch_server_nrf52840_xxAA_s140_6.0.0.dir/__/__/__/mesh/core/src/flash_manager_defrag.c.obj
 .text.execute_procedure_step
                0x00028c78       0x7c examples/light_switch/server/CMakeFiles/light_switch_server_nrf52840_xxAA_s140_6.0.0.dir/__/__/__/mesh/core/src/flash_manager_defrag.c.obj
 .text.get_next_entry
                0x00028cf4       0x34 examples/light_switch/server/CMakeFiles/light_switch_server_nrf52840_xxAA_s140_6.0.0.dir/__/__/__/mesh/core/src/flash_manager_defrag.c.obj
 .text.get_next_data_entry
                0x00028d28       0x26 examples/light_switch/server/CMakeFiles/light_switch_server_nrf52840_xxAA_s140_6.0.0.dir/__/__/__/mesh/core/src/flash_manager_defrag.c.obj
 *fill*         0x00028d4e        0x2 
 .text.on_flash_op_end
                0x00028d50       0x30 examples/light_switch/server/CMakeFiles/light_switch_server_nrf52840_xxAA_s140_6.0.0.dir/__/__/__/mesh/core/src/flash_manager_defrag.c.obj
 .text.check_for_invalid_entries
                0x00028d80       0x38 examples/light_switch/server/CMakeFiles/light_switch_server_nrf52840_xxAA_s140_6.0.0.dir/__/__/__/mesh/core/src/flash_manager_defrag.c.obj
 .text.erase_recovery_area
                0x00028db8       0x34 examples/light_switch/server/CMakeFiles/light_switch_server_nrf52840_xxAA_s140_6.0.0.dir/__/__/__/mesh/core/src/flash_manager_defrag.c.obj
 .text.flash.constprop.6
                0x00028dec       0x24 examples/light_switch/server/CMakeFiles/light_switch_server_nrf52840_xxAA_s140_6.0.0.dir/__/__/__/mesh/core/src/flash_manager_defrag.c.obj
 .text.seal_storage_page
                0x00028e10       0x50 examples/light_switch/server/CMakeFiles/light_switch_server_nrf52840_xxAA_s140_6.0.0.dir/__/__/__/mesh/core/src/flash_manager_defrag.c.obj
 .text.invalidate_duplicate_entries
                0x00028e60       0x9c examples/light_switch/server/CMakeFiles/light_switch_server_nrf52840_xxAA_s140_6.0.0.dir/__/__/__/mesh/core/src/flash_manager_defrag.c.obj
 .text.copy_metadata
                0x00028efc       0x3c examples/light_switch/server/CMakeFiles/light_switch_server_nrf52840_xxAA_s140_6.0.0.dir/__/__/__/mesh/core/src/flash_manager_defrag.c.obj
 .text.write_defrag_start_pointer
                0x00028f38       0x20 examples/light_switch/server/CMakeFiles/light_switch_server_nrf52840_xxAA_s140_6.0.0.dir/__/__/__/mesh/core/src/flash_manager_defrag.c.obj
 .text.write_back
                0x00028f58       0x28 examples/light_switch/server/CMakeFiles/light_switch_server_nrf52840_xxAA_s140_6.0.0.dir/__/__/__/mesh/core/src/flash_manager_defrag.c.obj
 .text.post_process
                0x00028f80       0x40 examples/light_switch/server/CMakeFiles/light_switch_server_nrf52840_xxAA_s140_6.0.0.dir/__/__/__/mesh/core/src/flash_manager_defrag.c.obj
 .text.backup_entries
                0x00028fc0       0xf8 examples/light_switch/server/CMakeFiles/light_switch_server_nrf52840_xxAA_s140_6.0.0.dir/__/__/__/mesh/core/src/flash_manager_defrag.c.obj
 .text.erase_source
                0x000290b8       0x34 examples/light_switch/server/CMakeFiles/light_switch_server_nrf52840_xxAA_s140_6.0.0.dir/__/__/__/mesh/core/src/flash_manager_defrag.c.obj
 .text.flash_manager_defrag_init
                0x000290ec       0x8c examples/light_switch/server/CMakeFiles/light_switch_server_nrf52840_xxAA_s140_6.0.0.dir/__/__/__/mesh/core/src/flash_manager_defrag.c.obj
                0x000290ec                flash_manager_defrag_init
 .text.flash_manager_defrag_is_running
                0x00029178       0x10 examples/light_switch/server/CMakeFiles/light_switch_server_nrf52840_xxAA_s140_6.0.0.dir/__/__/__/mesh/core/src/flash_manager_defrag.c.obj
                0x00029178                flash_manager_defrag_is_running
 .text.flash_manager_defrag
                0x00029188       0x44 examples/light_switch/server/CMakeFiles/light_switch_server_nrf52840_xxAA_s140_6.0.0.dir/__/__/__/mesh/core/src/flash_manager_defrag.c.obj
                0x00029188                flash_manager_defrag
 .text.flash_manager_defrag_recovery_page_get
                0x000291cc        0xc examples/light_switch/server/CMakeFiles/light_switch_server_nrf52840_xxAA_s140_6.0.0.dir/__/__/__/mesh/core/src/flash_manager_defrag.c.obj
                0x000291cc                flash_manager_defrag_recovery_page_get
 .text.fifo_init
                0x000291d8       0x34 examples/light_switch/server/CMakeFiles/light_switch_server_nrf52840_xxAA_s140_6.0.0.dir/__/__/__/mesh/core/src/fifo.c.obj
                0x000291d8                fifo_init
 .text.fifo_push
                0x0002920c       0x50 examples/light_switch/server/CMakeFiles/light_switch_server_nrf52840_xxAA_s140_6.0.0.dir/__/__/__/mesh/core/src/fifo.c.obj
                0x0002920c                fifo_push
 .text.fifo_pop
                0x0002925c       0x52 examples/light_switch/server/CMakeFiles/light_switch_server_nrf52840_xxAA_s140_6.0.0.dir/__/__/__/mesh/core/src/fifo.c.obj
                0x0002925c                fifo_pop
 *fill*         0x000292ae        0x2 
 .text.wait_for_ready
                0x000292b0       0x10 examples/light_switch/server/CMakeFiles/light_switch_server_nrf52840_xxAA_s140_6.0.0.dir/__/__/__/mesh/core/src/nrf_flash.c.obj
 .text.nrf_flash_erase
                0x000292c0       0x50 examples/light_switch/server/CMakeFiles/light_switch_server_nrf52840_xxAA_s140_6.0.0.dir/__/__/__/mesh/core/src/nrf_flash.c.obj
                0x000292c0                nrf_flash_erase
 .text.nrf_flash_write
                0x00029310       0x50 examples/light_switch/server/CMakeFiles/light_switch_server_nrf52840_xxAA_s140_6.0.0.dir/__/__/__/mesh/core/src/nrf_flash.c.obj
                0x00029310                nrf_flash_write
 .text.packet_mgr_init
                0x00029360       0x4c examples/light_switch/server/CMakeFiles/light_switch_server_nrf52840_xxAA_s140_6.0.0.dir/__/__/__/mesh/core/src/packet_mgr.c.obj
                0x00029360                packet_mgr_init
 .text.flash_store_iv_index
                0x000293ac       0x38 examples/light_switch/server/CMakeFiles/light_switch_server_nrf52840_xxAA_s140_6.0.0.dir/__/__/__/mesh/core/src/net_state.c.obj
 .text.flash_mem_available
                0x000293e4       0x14 examples/light_switch/server/CMakeFiles/light_switch_server_nrf52840_xxAA_s140_6.0.0.dir/__/__/__/mesh/core/src/net_state.c.obj
 .text.seqnum_block_allocate
                0x000293f8       0x4c examples/light_switch/server/CMakeFiles/light_switch_server_nrf52840_xxAA_s140_6.0.0.dir/__/__/__/mesh/core/src/net_state.c.obj
 .text.net_state_reset
                0x00029444       0x48 examples/light_switch/server/CMakeFiles/light_switch_server_nrf52840_xxAA_s140_6.0.0.dir/__/__/__/mesh/core/src/net_state.c.obj
                0x00029444                net_state_reset
 .text.flash_write_complete
                0x0002948c       0x64 examples/light_switch/server/CMakeFiles/light_switch_server_nrf52840_xxAA_s140_6.0.0.dir/__/__/__/mesh/core/src/net_state.c.obj
 .text.net_state_recover_from_flash
                0x000294f0       0x8c examples/light_switch/server/CMakeFiles/light_switch_server_nrf52840_xxAA_s140_6.0.0.dir/__/__/__/mesh/core/src/net_state.c.obj
                0x000294f0                net_state_recover_from_flash
 .text.net_state_flash_area_get
                0x0002957c        0xc examples/light_switch/server/CMakeFiles/light_switch_server_nrf52840_xxAA_s140_6.0.0.dir/__/__/__/mesh/core/src/net_state.c.obj
                0x0002957c                net_state_flash_area_get
 .text.init_flash_storage
                0x00029588       0x40 examples/light_switch/server/CMakeFiles/light_switch_server_nrf52840_xxAA_s140_6.0.0.dir/__/__/__/mesh/core/src/net_state.c.obj
 .text.net_state_init
                0x000295c8       0x44 examples/light_switch/server/CMakeFiles/light_switch_server_nrf52840_xxAA_s140_6.0.0.dir/__/__/__/mesh/core/src/net_state.c.obj
                0x000295c8                net_state_init
 .text.net_state_enable
                0x0002960c       0x30 examples/light_switch/server/CMakeFiles/light_switch_server_nrf52840_xxAA_s140_6.0.0.dir/__/__/__/mesh/core/src/net_state.c.obj
                0x0002960c                net_state_enable
 .text.net_state_iv_update_start
                0x0002963c       0x68 examples/light_switch/server/CMakeFiles/light_switch_server_nrf52840_xxAA_s140_6.0.0.dir/__/__/__/mesh/core/src/net_state.c.obj
                0x0002963c                net_state_iv_update_start
 .text.iv_update_trigger_if_pending
                0x000296a4       0x80 examples/light_switch/server/CMakeFiles/light_switch_server_nrf52840_xxAA_s140_6.0.0.dir/__/__/__/mesh/core/src/net_state.c.obj
 .text.iv_update_timer_handler
                0x00029724       0x68 examples/light_switch/server/CMakeFiles/light_switch_server_nrf52840_xxAA_s140_6.0.0.dir/__/__/__/mesh/core/src/net_state.c.obj
 .text.mesh_evt_handler
                0x0002978c       0xa0 examples/light_switch/server/CMakeFiles/light_switch_server_nrf52840_xxAA_s140_6.0.0.dir/__/__/__/mesh/core/src/net_state.c.obj
 .text.net_state_seqnum_alloc
                0x0002982c       0x68 examples/light_switch/server/CMakeFiles/light_switch_server_nrf52840_xxAA_s140_6.0.0.dir/__/__/__/mesh/core/src/net_state.c.obj
                0x0002982c                net_state_seqnum_alloc
 .text.net_state_iv_index_lock
                0x00029894       0x3c examples/light_switch/server/CMakeFiles/light_switch_server_nrf52840_xxAA_s140_6.0.0.dir/__/__/__/mesh/core/src/net_state.c.obj
                0x00029894                net_state_iv_index_lock
 .text.net_state_key_refresh_phase_changed
                0x000298d0       0x20 examples/light_switch/server/CMakeFiles/light_switch_server_nrf52840_xxAA_s140_6.0.0.dir/__/__/__/mesh/core/src/net_state.c.obj
                0x000298d0                net_state_key_refresh_phase_changed
 .text.net_state_beacon_iv_index_get
                0x000298f0        0xc examples/light_switch/server/CMakeFiles/light_switch_server_nrf52840_xxAA_s140_6.0.0.dir/__/__/__/mesh/core/src/net_state.c.obj
                0x000298f0                net_state_beacon_iv_index_get
 .text.net_state_tx_iv_index_get
                0x000298fc       0x14 examples/light_switch/server/CMakeFiles/light_switch_server_nrf52840_xxAA_s140_6.0.0.dir/__/__/__/mesh/core/src/net_state.c.obj
                0x000298fc                net_state_tx_iv_index_get
 .text.net_state_rx_iv_index_get
                0x00029910       0x18 examples/light_switch/server/CMakeFiles/light_switch_server_nrf52840_xxAA_s140_6.0.0.dir/__/__/__/mesh/core/src/net_state.c.obj
                0x00029910                net_state_rx_iv_index_get
 .text.net_state_iv_update_get
                0x00029928        0xc examples/light_switch/server/CMakeFiles/light_switch_server_nrf52840_xxAA_s140_6.0.0.dir/__/__/__/mesh/core/src/net_state.c.obj
                0x00029928                net_state_iv_update_get
 .text.net_state_iv_index_set
                0x00029934       0x30 examples/light_switch/server/CMakeFiles/light_switch_server_nrf52840_xxAA_s140_6.0.0.dir/__/__/__/mesh/core/src/net_state.c.obj
                0x00029934                net_state_iv_index_set
 .text.send_end_events
                0x00029964       0x84 examples/light_switch/server/CMakeFiles/light_switch_server_nrf52840_xxAA_s140_6.0.0.dir/__/__/__/mesh/core/src/mesh_flash.c.obj
 .text.flash_op_schedule
                0x000299e8       0x88 examples/light_switch/server/CMakeFiles/light_switch_server_nrf52840_xxAA_s140_6.0.0.dir/__/__/__/mesh/core/src/mesh_flash.c.obj
 .text.flash_op_start
                0x00029a70      0x13c examples/light_switch/server/CMakeFiles/light_switch_server_nrf52840_xxAA_s140_6.0.0.dir/__/__/__/mesh/core/src/mesh_flash.c.obj
 .text.mesh_flash_init
                0x00029bac       0x88 examples/light_switch/server/CMakeFiles/light_switch_server_nrf52840_xxAA_s140_6.0.0.dir/__/__/__/mesh/core/src/mesh_flash.c.obj
                0x00029bac                mesh_flash_init
 .text.mesh_flash_user_callback_set
                0x00029c34       0x20 examples/light_switch/server/CMakeFiles/light_switch_server_nrf52840_xxAA_s140_6.0.0.dir/__/__/__/mesh/core/src/mesh_flash.c.obj
                0x00029c34                mesh_flash_user_callback_set
 .text.mesh_flash_op_push
                0x00029c54       0xe4 examples/light_switch/server/CMakeFiles/light_switch_server_nrf52840_xxAA_s140_6.0.0.dir/__/__/__/mesh/core/src/mesh_flash.c.obj
                0x00029c54                mesh_flash_op_push
 .text.nrf_mesh_address_type_get
                0x00029d38       0x10 examples/light_switch/server/CMakeFiles/light_switch_server_nrf52840_xxAA_s140_6.0.0.dir/__/__/__/mesh/core/src/nrf_mesh_utils.c.obj
                0x00029d38                nrf_mesh_address_type_get
 .text.sd_softdevice_is_enabled
                0x00029d48        0x4 examples/light_switch/server/CMakeFiles/light_switch_server_nrf52840_xxAA_s140_6.0.0.dir/__/__/__/mesh/core/src/nrf_mesh.c.obj
 .text.nrf_mesh_listen
                0x00029d4c      0x138 examples/light_switch/server/CMakeFiles/light_switch_server_nrf52840_xxAA_s140_6.0.0.dir/__/__/__/mesh/core/src/nrf_mesh.c.obj
 .text.scanner_packet_process_cb
                0x00029e84       0x8c examples/light_switch/server/CMakeFiles/light_switch_server_nrf52840_xxAA_s140_6.0.0.dir/__/__/__/mesh/core/src/nrf_mesh.c.obj
 .text.nrf_mesh_init
                0x00029f10       0xd0 examples/light_switch/server/CMakeFiles/light_switch_server_nrf52840_xxAA_s140_6.0.0.dir/__/__/__/mesh/core/src/nrf_mesh.c.obj
                0x00029f10                nrf_mesh_init
 .text.nrf_mesh_enable
                0x00029fe0       0xb8 examples/light_switch/server/CMakeFiles/light_switch_server_nrf52840_xxAA_s140_6.0.0.dir/__/__/__/mesh/core/src/nrf_mesh.c.obj
                0x00029fe0                nrf_mesh_enable
 .text.nrf_mesh_packet_send
                0x0002a098       0x7c examples/light_switch/server/CMakeFiles/light_switch_server_nrf52840_xxAA_s140_6.0.0.dir/__/__/__/mesh/core/src/nrf_mesh.c.obj
                0x0002a098                nrf_mesh_packet_send
 .text.nrf_mesh_evt_handler_add
                0x0002a114        0x4 examples/light_switch/server/CMakeFiles/light_switch_server_nrf52840_xxAA_s140_6.0.0.dir/__/__/__/mesh/core/src/nrf_mesh.c.obj
                0x0002a114                nrf_mesh_evt_handler_add
 .text.nrf_mesh_on_sd_evt
                0x0002a118        0xa examples/light_switch/server/CMakeFiles/light_switch_server_nrf52840_xxAA_s140_6.0.0.dir/__/__/__/mesh/core/src/nrf_mesh.c.obj
                0x0002a118                nrf_mesh_on_sd_evt
 .text.nrf_mesh_subnet_added
                0x0002a122        0x2 examples/light_switch/server/CMakeFiles/light_switch_server_nrf52840_xxAA_s140_6.0.0.dir/__/__/__/mesh/core/src/nrf_mesh.c.obj
                0x0002a122                nrf_mesh_subnet_added
 .text.nrf_mesh_unique_token_get
                0x0002a124       0x18 examples/light_switch/server/CMakeFiles/light_switch_server_nrf52840_xxAA_s140_6.0.0.dir/__/__/__/mesh/core/src/nrf_mesh.c.obj
                0x0002a124                nrf_mesh_unique_token_get
 .text.queue_init
                0x0002a13c       0x14 examples/light_switch/server/CMakeFiles/light_switch_server_nrf52840_xxAA_s140_6.0.0.dir/__/__/__/mesh/core/src/queue.c.obj
                0x0002a13c                queue_init
 .text.queue_push
                0x0002a150       0x34 examples/light_switch/server/CMakeFiles/light_switch_server_nrf52840_xxAA_s140_6.0.0.dir/__/__/__/mesh/core/src/queue.c.obj
                0x0002a150                queue_push
 .text.queue_pop
                0x0002a184       0x26 examples/light_switch/server/CMakeFiles/light_switch_server_nrf52840_xxAA_s140_6.0.0.dir/__/__/__/mesh/core/src/queue.c.obj
                0x0002a184                queue_pop
 .text.queue_peek
                0x0002a1aa       0x10 examples/light_switch/server/CMakeFiles/light_switch_server_nrf52840_xxAA_s140_6.0.0.dir/__/__/__/mesh/core/src/queue.c.obj
                0x0002a1aa                queue_peek
 .text.sd_power_reset_reason_clr
                0x0002a1ba        0x4 examples/light_switch/server/CMakeFiles/light_switch_server_nrf52840_xxAA_s140_6.0.0.dir/__/__/__/mesh/core/src/hal.c.obj
 *fill*         0x0002a1be        0x2 
 .text.hal_device_reset
                0x0002a1c0       0x2c examples/light_switch/server/CMakeFiles/light_switch_server_nrf52840_xxAA_s140_6.0.0.dir/__/__/__/mesh/core/src/hal.c.obj
                0x0002a1c0                hal_device_reset
 .text.hal_lfclk_ppm_get
                0x0002a1ec       0x14 examples/light_switch/server/CMakeFiles/light_switch_server_nrf52840_xxAA_s140_6.0.0.dir/__/__/__/mesh/core/src/hal.c.obj
                0x0002a1ec                hal_lfclk_ppm_get
 .text.hal_irq_active_get
                0x0002a200       0x10 examples/light_switch/server/CMakeFiles/light_switch_server_nrf52840_xxAA_s140_6.0.0.dir/__/__/__/mesh/core/src/hal.c.obj
                0x0002a200                hal_irq_active_get
 .text.hal_irq_is_enabled
                0x0002a210       0x28 examples/light_switch/server/CMakeFiles/light_switch_server_nrf52840_xxAA_s140_6.0.0.dir/__/__/__/mesh/core/src/hal.c.obj
                0x0002a210                hal_irq_is_enabled
 .text.sd_ecb_block_encrypt
                0x0002a238        0x4 examples/light_switch/server/CMakeFiles/light_switch_server_nrf52840_xxAA_s140_6.0.0.dir/__/__/__/mesh/core/src/aes_cmac.c.obj
 .text.utils_xor.constprop.1
                0x0002a23c       0x20 examples/light_switch/server/CMakeFiles/light_switch_server_nrf52840_xxAA_s140_6.0.0.dir/__/__/__/mesh/core/src/aes_cmac.c.obj
 .text.aes_cmac
                0x0002a25c      0x112 examples/light_switch/server/CMakeFiles/light_switch_server_nrf52840_xxAA_s140_6.0.0.dir/__/__/__/mesh/core/src/aes_cmac.c.obj
                0x0002a25c                aes_cmac
 *fill*         0x0002a36e        0x2 
 .text.remove_evt
                0x0002a370       0x2c examples/light_switch/server/CMakeFiles/light_switch_server_nrf52840_xxAA_s140_6.0.0.dir/__/__/__/mesh/core/src/timer_scheduler.c.obj
 .text.add_evt  0x0002a39c       0x50 examples/light_switch/server/CMakeFiles/light_switch_server_nrf52840_xxAA_s140_6.0.0.dir/__/__/__/mesh/core/src/timer_scheduler.c.obj
 .text.timer_cb
                0x0002a3ec        0xc examples/light_switch/server/CMakeFiles/light_switch_server_nrf52840_xxAA_s140_6.0.0.dir/__/__/__/mesh/core/src/timer_scheduler.c.obj
 .text.setup_timeout
                0x0002a3f8       0x44 examples/light_switch/server/CMakeFiles/light_switch_server_nrf52840_xxAA_s140_6.0.0.dir/__/__/__/mesh/core/src/timer_scheduler.c.obj
 .text.flag_event_cb
                0x0002a43c       0x98 examples/light_switch/server/CMakeFiles/light_switch_server_nrf52840_xxAA_s140_6.0.0.dir/__/__/__/mesh/core/src/timer_scheduler.c.obj
 .text.timer_sch_init
                0x0002a4d4       0x24 examples/light_switch/server/CMakeFiles/light_switch_server_nrf52840_xxAA_s140_6.0.0.dir/__/__/__/mesh/core/src/timer_scheduler.c.obj
                0x0002a4d4                timer_sch_init
 .text.timer_sch_schedule
                0x0002a4f8       0x44 examples/light_switch/server/CMakeFiles/light_switch_server_nrf52840_xxAA_s140_6.0.0.dir/__/__/__/mesh/core/src/timer_scheduler.c.obj
                0x0002a4f8                timer_sch_schedule
 .text.timer_sch_abort
                0x0002a53c       0x2e examples/light_switch/server/CMakeFiles/light_switch_server_nrf52840_xxAA_s140_6.0.0.dir/__/__/__/mesh/core/src/timer_scheduler.c.obj
                0x0002a53c                timer_sch_abort
 .text.timer_sch_reschedule
                0x0002a56a       0x38 examples/light_switch/server/CMakeFiles/light_switch_server_nrf52840_xxAA_s140_6.0.0.dir/__/__/__/mesh/core/src/timer_scheduler.c.obj
                0x0002a56a                timer_sch_reschedule
 *fill*         0x0002a5a2        0x2 
 .text.timer_mut_unlock
                0x0002a5a4       0x10 examples/light_switch/server/CMakeFiles/light_switch_server_nrf52840_xxAA_s140_6.0.0.dir/__/__/__/mesh/core/src/timer.c.obj
 .text.timer_order_cb
                0x0002a5b4       0x94 examples/light_switch/server/CMakeFiles/light_switch_server_nrf52840_xxAA_s140_6.0.0.dir/__/__/__/mesh/core/src/timer.c.obj
                0x0002a5b4                timer_order_cb
 .text.timer_now
                0x0002a648       0x48 examples/light_switch/server/CMakeFiles/light_switch_server_nrf52840_xxAA_s140_6.0.0.dir/__/__/__/mesh/core/src/timer.c.obj
                0x0002a648                timer_now
 .text.timer_event_handler
                0x0002a690       0x84 examples/light_switch/server/CMakeFiles/light_switch_server_nrf52840_xxAA_s140_6.0.0.dir/__/__/__/mesh/core/src/timer.c.obj
                0x0002a690                timer_event_handler
 .text.timer_on_ts_begin
                0x0002a714       0xf4 examples/light_switch/server/CMakeFiles/light_switch_server_nrf52840_xxAA_s140_6.0.0.dir/__/__/__/mesh/core/src/timer.c.obj
                0x0002a714                timer_on_ts_begin
 .text.timer_on_ts_end
                0x0002a808       0x60 examples/light_switch/server/CMakeFiles/light_switch_server_nrf52840_xxAA_s140_6.0.0.dir/__/__/__/mesh/core/src/timer.c.obj
                0x0002a808                timer_on_ts_end
 .text.sd_rand_application_bytes_available_get
                0x0002a868        0x4 examples/light_switch/server/CMakeFiles/light_switch_server_nrf52840_xxAA_s140_6.0.0.dir/__/__/__/mesh/core/src/rand.c.obj
 .text.sd_rand_application_vector_get
                0x0002a86c        0x4 examples/light_switch/server/CMakeFiles/light_switch_server_nrf52840_xxAA_s140_6.0.0.dir/__/__/__/mesh/core/src/rand.c.obj
 .text.rand_prng_get
                0x0002a870       0x22 examples/light_switch/server/CMakeFiles/light_switch_server_nrf52840_xxAA_s140_6.0.0.dir/__/__/__/mesh/core/src/rand.c.obj
                0x0002a870                rand_prng_get
 .text.rand_hw_rng_get
                0x0002a892       0x44 examples/light_switch/server/CMakeFiles/light_switch_server_nrf52840_xxAA_s140_6.0.0.dir/__/__/__/mesh/core/src/rand.c.obj
                0x0002a892                rand_hw_rng_get
 *fill*         0x0002a8d6        0x2 
 .text.rand_prng_seed
                0x0002a8d8       0x34 examples/light_switch/server/CMakeFiles/light_switch_server_nrf52840_xxAA_s140_6.0.0.dir/__/__/__/mesh/core/src/rand.c.obj
                0x0002a8d8                rand_prng_seed
 .text.mesh_opt_init
                0x0002a90c        0x2 examples/light_switch/server/CMakeFiles/light_switch_server_nrf52840_xxAA_s140_6.0.0.dir/__/__/__/mesh/core/src/mesh_opt.c.obj
                0x0002a90c                mesh_opt_init
 .text.sd_radio_session_open
                0x0002a90e        0x4 examples/light_switch/server/CMakeFiles/light_switch_server_nrf52840_xxAA_s140_6.0.0.dir/__/__/__/mesh/core/src/timeslot.c.obj
 .text.sd_radio_session_close
                0x0002a912        0x4 examples/light_switch/server/CMakeFiles/light_switch_server_nrf52840_xxAA_s140_6.0.0.dir/__/__/__/mesh/core/src/timeslot.c.obj
 .text.sd_radio_request
                0x0002a916        0x4 examples/light_switch/server/CMakeFiles/light_switch_server_nrf52840_xxAA_s140_6.0.0.dir/__/__/__/mesh/core/src/timeslot.c.obj
 *fill*         0x0002a91a        0x2 
 .text.end_timer_handler
                0x0002a91c       0x24 examples/light_switch/server/CMakeFiles/light_switch_server_nrf52840_xxAA_s140_6.0.0.dir/__/__/__/mesh/core/src/timeslot.c.obj
 .text.get_end_time.constprop.10
                0x0002a940       0x28 examples/light_switch/server/CMakeFiles/light_switch_server_nrf52840_xxAA_s140_6.0.0.dir/__/__/__/mesh/core/src/timeslot.c.obj
 .text.handle_extend_end.constprop.3
                0x0002a968       0xb4 examples/light_switch/server/CMakeFiles/light_switch_server_nrf52840_xxAA_s140_6.0.0.dir/__/__/__/mesh/core/src/timeslot.c.obj
 .text.radio_signal_callback
                0x0002aa1c      0x138 examples/light_switch/server/CMakeFiles/light_switch_server_nrf52840_xxAA_s140_6.0.0.dir/__/__/__/mesh/core/src/timeslot.c.obj
 .text.timeslot_sd_event_handler
                0x0002ab54       0x38 examples/light_switch/server/CMakeFiles/light_switch_server_nrf52840_xxAA_s140_6.0.0.dir/__/__/__/mesh/core/src/timeslot.c.obj
                0x0002ab54                timeslot_sd_event_handler
 .text.timeslot_init
                0x0002ab8c       0x48 examples/light_switch/server/CMakeFiles/light_switch_server_nrf52840_xxAA_s140_6.0.0.dir/__/__/__/mesh/core/src/timeslot.c.obj
                0x0002ab8c                timeslot_init
 .text.timeslot_start
                0x0002abd4       0x20 examples/light_switch/server/CMakeFiles/light_switch_server_nrf52840_xxAA_s140_6.0.0.dir/__/__/__/mesh/core/src/timeslot.c.obj
                0x0002abd4                timeslot_start
 .text.timeslot_end_is_pending
                0x0002abf4       0x24 examples/light_switch/server/CMakeFiles/light_switch_server_nrf52840_xxAA_s140_6.0.0.dir/__/__/__/mesh/core/src/timeslot.c.obj
                0x0002abf4                timeslot_end_is_pending
 .text.timeslot_start_time_get
                0x0002ac18        0xc examples/light_switch/server/CMakeFiles/light_switch_server_nrf52840_xxAA_s140_6.0.0.dir/__/__/__/mesh/core/src/timeslot.c.obj
                0x0002ac18                timeslot_start_time_get
 .text.timeslot_remaining_time_get
                0x0002ac24       0x20 examples/light_switch/server/CMakeFiles/light_switch_server_nrf52840_xxAA_s140_6.0.0.dir/__/__/__/mesh/core/src/timeslot.c.obj
                0x0002ac24                timeslot_remaining_time_get
 .text.timeslot_is_in_cb
                0x0002ac44        0xc examples/light_switch/server/CMakeFiles/light_switch_server_nrf52840_xxAA_s140_6.0.0.dir/__/__/__/mesh/core/src/timeslot.c.obj
                0x0002ac44                timeslot_is_in_cb
 .text.timeslot_trigger
                0x0002ac50       0x24 examples/light_switch/server/CMakeFiles/light_switch_server_nrf52840_xxAA_s140_6.0.0.dir/__/__/__/mesh/core/src/timeslot.c.obj
                0x0002ac50                timeslot_trigger
 .text.timeslot_stop
                0x0002ac74       0x10 examples/light_switch/server/CMakeFiles/light_switch_server_nrf52840_xxAA_s140_6.0.0.dir/__/__/__/mesh/core/src/timeslot.c.obj
                0x0002ac74                timeslot_stop
 .text.timeslot_state_lock
                0x0002ac84       0x28 examples/light_switch/server/CMakeFiles/light_switch_server_nrf52840_xxAA_s140_6.0.0.dir/__/__/__/mesh/core/src/timeslot.c.obj
                0x0002ac84                timeslot_state_lock
 .text.trigger_event_handler
                0x0002acac       0x1c examples/light_switch/server/CMakeFiles/light_switch_server_nrf52840_xxAA_s140_6.0.0.dir/__/__/__/mesh/core/src/bearer_event.c.obj
 .text.evt_push
                0x0002acc8       0x1c examples/light_switch/server/CMakeFiles/light_switch_server_nrf52840_xxAA_s140_6.0.0.dir/__/__/__/mesh/core/src/bearer_event.c.obj
 .text.bearer_event_init
                0x0002ace4       0x48 examples/light_switch/server/CMakeFiles/light_switch_server_nrf52840_xxAA_s140_6.0.0.dir/__/__/__/mesh/core/src/bearer_event.c.obj
                0x0002ace4                bearer_event_init
 .text.bearer_event_timer_post
                0x0002ad2c       0x24 examples/light_switch/server/CMakeFiles/light_switch_server_nrf52840_xxAA_s140_6.0.0.dir/__/__/__/mesh/core/src/bearer_event.c.obj
                0x0002ad2c                bearer_event_timer_post
 .text.bearer_event_critical_section_begin
                0x0002ad50       0x44 examples/light_switch/server/CMakeFiles/light_switch_server_nrf52840_xxAA_s140_6.0.0.dir/__/__/__/mesh/core/src/bearer_event.c.obj
                0x0002ad50                bearer_event_critical_section_begin
 .text.bearer_event_critical_section_end
                0x0002ad94       0x40 examples/light_switch/server/CMakeFiles/light_switch_server_nrf52840_xxAA_s140_6.0.0.dir/__/__/__/mesh/core/src/bearer_event.c.obj
                0x0002ad94                bearer_event_critical_section_end
 .text.bearer_event_flag_add
                0x0002add4       0x3c examples/light_switch/server/CMakeFiles/light_switch_server_nrf52840_xxAA_s140_6.0.0.dir/__/__/__/mesh/core/src/bearer_event.c.obj
                0x0002add4                bearer_event_flag_add
 .text.bearer_event_flag_set
                0x0002ae10       0x44 examples/light_switch/server/CMakeFiles/light_switch_server_nrf52840_xxAA_s140_6.0.0.dir/__/__/__/mesh/core/src/bearer_event.c.obj
                0x0002ae10                bearer_event_flag_set
 .text.bearer_event_sequential_add
                0x0002ae54       0x2e examples/light_switch/server/CMakeFiles/light_switch_server_nrf52840_xxAA_s140_6.0.0.dir/__/__/__/mesh/core/src/bearer_event.c.obj
                0x0002ae54                bearer_event_sequential_add
 *fill*         0x0002ae82        0x2 
 .text.bearer_event_sequential_post
                0x0002ae84       0x44 examples/light_switch/server/CMakeFiles/light_switch_server_nrf52840_xxAA_s140_6.0.0.dir/__/__/__/mesh/core/src/bearer_event.c.obj
                0x0002ae84                bearer_event_sequential_post
 .text.bearer_event_sequential_pending
                0x0002aec8       0x10 examples/light_switch/server/CMakeFiles/light_switch_server_nrf52840_xxAA_s140_6.0.0.dir/__/__/__/mesh/core/src/bearer_event.c.obj
                0x0002aec8                bearer_event_sequential_pending
 .text.bearer_event_handler
                0x0002aed8       0xe8 examples/light_switch/server/CMakeFiles/light_switch_server_nrf52840_xxAA_s140_6.0.0.dir/__/__/__/mesh/core/src/bearer_event.c.obj
                0x0002aed8                bearer_event_handler
 .text.QDEC_IRQHandler
                0x0002afc0        0x4 examples/light_switch/server/CMakeFiles/light_switch_server_nrf52840_xxAA_s140_6.0.0.dir/__/__/__/mesh/core/src/bearer_event.c.obj
                0x0002afc0                QDEC_IRQHandler
 .text.bearer_event_in_correct_irq_priority
                0x0002afc4       0x74 examples/light_switch/server/CMakeFiles/light_switch_server_nrf52840_xxAA_s140_6.0.0.dir/__/__/__/mesh/core/src/bearer_event.c.obj
                0x0002afc4                bearer_event_in_correct_irq_priority
 .text.sd_ecb_block_encrypt
                0x0002b038        0x4 examples/light_switch/server/CMakeFiles/light_switch_server_nrf52840_xxAA_s140_6.0.0.dir/__/__/__/mesh/core/src/enc.c.obj
 .text.enc_aes_encrypt
                0x0002b03c       0x32 examples/light_switch/server/CMakeFiles/light_switch_server_nrf52840_xxAA_s140_6.0.0.dir/__/__/__/mesh/core/src/enc.c.obj
                0x0002b03c                enc_aes_encrypt
 .text.enc_aes_cmac
                0x0002b06e        0x4 examples/light_switch/server/CMakeFiles/light_switch_server_nrf52840_xxAA_s140_6.0.0.dir/__/__/__/mesh/core/src/enc.c.obj
                0x0002b06e                enc_aes_cmac
 .text.enc_aes_ccm_encrypt
                0x0002b072        0x4 examples/light_switch/server/CMakeFiles/light_switch_server_nrf52840_xxAA_s140_6.0.0.dir/__/__/__/mesh/core/src/enc.c.obj
                0x0002b072                enc_aes_ccm_encrypt
 .text.enc_aes_ccm_decrypt
                0x0002b076        0x4 examples/light_switch/server/CMakeFiles/light_switch_server_nrf52840_xxAA_s140_6.0.0.dir/__/__/__/mesh/core/src/enc.c.obj
                0x0002b076                enc_aes_ccm_decrypt
 .text.enc_nonce_generate
                0x0002b07a       0xbc examples/light_switch/server/CMakeFiles/light_switch_server_nrf52840_xxAA_s140_6.0.0.dir/__/__/__/mesh/core/src/enc.c.obj
                0x0002b07a                enc_nonce_generate
 .text.enc_s1   0x0002b136       0x2c examples/light_switch/server/CMakeFiles/light_switch_server_nrf52840_xxAA_s140_6.0.0.dir/__/__/__/mesh/core/src/enc.c.obj
                0x0002b136                enc_s1
 .text.enc_k1   0x0002b162       0x3c examples/light_switch/server/CMakeFiles/light_switch_server_nrf52840_xxAA_s140_6.0.0.dir/__/__/__/mesh/core/src/enc.c.obj
                0x0002b162                enc_k1
 *fill*         0x0002b19e        0x2 
 .text.enc_k2   0x0002b1a0       0xc8 examples/light_switch/server/CMakeFiles/light_switch_server_nrf52840_xxAA_s140_6.0.0.dir/__/__/__/mesh/core/src/enc.c.obj
                0x0002b1a0                enc_k2
 .text.enc_k3   0x0002b268       0x5c examples/light_switch/server/CMakeFiles/light_switch_server_nrf52840_xxAA_s140_6.0.0.dir/__/__/__/mesh/core/src/enc.c.obj
                0x0002b268                enc_k3
 .text.enc_k4   0x0002b2c4       0x54 examples/light_switch/server/CMakeFiles/light_switch_server_nrf52840_xxAA_s140_6.0.0.dir/__/__/__/mesh/core/src/enc.c.obj
                0x0002b2c4                enc_k4
 .text.allocate_packet
                0x0002b318       0x6a examples/light_switch/server/CMakeFiles/light_switch_server_nrf52840_xxAA_s140_6.0.0.dir/__/__/__/mesh/core/src/network.c.obj
 *fill*         0x0002b382        0x2 
 .text.network_init
                0x0002b384       0x24 examples/light_switch/server/CMakeFiles/light_switch_server_nrf52840_xxAA_s140_6.0.0.dir/__/__/__/mesh/core/src/network.c.obj
                0x0002b384                network_init
 .text.network_enable
                0x0002b3a8        0xe examples/light_switch/server/CMakeFiles/light_switch_server_nrf52840_xxAA_s140_6.0.0.dir/__/__/__/mesh/core/src/network.c.obj
                0x0002b3a8                network_enable
 .text.network_packet_alloc
                0x0002b3b6       0x30 examples/light_switch/server/CMakeFiles/light_switch_server_nrf52840_xxAA_s140_6.0.0.dir/__/__/__/mesh/core/src/network.c.obj
                0x0002b3b6                network_packet_alloc
 .text.network_packet_send
                0x0002b3e6       0x46 examples/light_switch/server/CMakeFiles/light_switch_server_nrf52840_xxAA_s140_6.0.0.dir/__/__/__/mesh/core/src/network.c.obj
                0x0002b3e6                network_packet_send
 .text.network_packet_in
                0x0002b42c      0x164 examples/light_switch/server/CMakeFiles/light_switch_server_nrf52840_xxAA_s140_6.0.0.dir/__/__/__/mesh/core/src/network.c.obj
                0x0002b42c                network_packet_in
 .text.nonce_type_get
                0x0002b590       0x16 examples/light_switch/server/CMakeFiles/light_switch_server_nrf52840_xxAA_s140_6.0.0.dir/__/__/__/mesh/core/src/net_packet.c.obj
 .text.header_transfuscate
                0x0002b5a6       0x54 examples/light_switch/server/CMakeFiles/light_switch_server_nrf52840_xxAA_s140_6.0.0.dir/__/__/__/mesh/core/src/net_packet.c.obj
 *fill*         0x0002b5fa        0x2 
 .text.net_packet_decrypt
                0x0002b5fc      0x224 examples/light_switch/server/CMakeFiles/light_switch_server_nrf52840_xxAA_s140_6.0.0.dir/__/__/__/mesh/core/src/net_packet.c.obj
                0x0002b5fc                net_packet_decrypt
 .text.net_packet_encrypt
                0x0002b820       0x7e examples/light_switch/server/CMakeFiles/light_switch_server_nrf52840_xxAA_s140_6.0.0.dir/__/__/__/mesh/core/src/net_packet.c.obj
                0x0002b820                net_packet_encrypt
 .text.net_packet_header_set
                0x0002b89e       0xaa examples/light_switch/server/CMakeFiles/light_switch_server_nrf52840_xxAA_s140_6.0.0.dir/__/__/__/mesh/core/src/net_packet.c.obj
                0x0002b89e                net_packet_header_set
 .text.net_packet_payload_len_get
                0x0002b948       0x10 examples/light_switch/server/CMakeFiles/light_switch_server_nrf52840_xxAA_s140_6.0.0.dir/__/__/__/mesh/core/src/net_packet.c.obj
                0x0002b948                net_packet_payload_len_get
 .text.net_packet_from_payload
                0x0002b958        0x4 examples/light_switch/server/CMakeFiles/light_switch_server_nrf52840_xxAA_s140_6.0.0.dir/__/__/__/mesh/core/src/net_packet.c.obj
                0x0002b958                net_packet_from_payload
 .text.net_packet_obfuscation_start_get
                0x0002b95c        0x4 examples/light_switch/server/CMakeFiles/light_switch_server_nrf52840_xxAA_s140_6.0.0.dir/__/__/__/mesh/core/src/net_packet.c.obj
                0x0002b95c                net_packet_obfuscation_start_get
 .text.stage_get_available
                0x0002b960       0x24 examples/light_switch/server/CMakeFiles/light_switch_server_nrf52840_xxAA_s140_6.0.0.dir/__/__/__/mesh/core/src/msqueue.c.obj
 .text.msq_get  0x0002b984       0x38 examples/light_switch/server/CMakeFiles/light_switch_server_nrf52840_xxAA_s140_6.0.0.dir/__/__/__/mesh/core/src/msqueue.c.obj
                0x0002b984                msq_get
 .text.msq_move
                0x0002b9bc       0x2e examples/light_switch/server/CMakeFiles/light_switch_server_nrf52840_xxAA_s140_6.0.0.dir/__/__/__/mesh/core/src/msqueue.c.obj
                0x0002b9bc                msq_move
 .text.msq_reset
                0x0002b9ea       0x20 examples/light_switch/server/CMakeFiles/light_switch_server_nrf52840_xxAA_s140_6.0.0.dir/__/__/__/mesh/core/src/msqueue.c.obj
                0x0002b9ea                msq_reset
 .text.msq_init
                0x0002ba0a       0x4a examples/light_switch/server/CMakeFiles/light_switch_server_nrf52840_xxAA_s140_6.0.0.dir/__/__/__/mesh/core/src/msqueue.c.obj
                0x0002ba0a                msq_init
 .text.msq_available
                0x0002ba54       0x26 examples/light_switch/server/CMakeFiles/light_switch_server_nrf52840_xxAA_s140_6.0.0.dir/__/__/__/mesh/core/src/msqueue.c.obj
                0x0002ba54                msq_available
 .text.nrf_mesh_keygen_aid
                0x0002ba7a       0x12 examples/light_switch/server/CMakeFiles/light_switch_server_nrf52840_xxAA_s140_6.0.0.dir/__/__/__/mesh/core/src/nrf_mesh_keygen.c.obj
                0x0002ba7a                nrf_mesh_keygen_aid
 .text.nrf_mesh_keygen_network_secmat
                0x0002ba8c       0x20 examples/light_switch/server/CMakeFiles/light_switch_server_nrf52840_xxAA_s140_6.0.0.dir/__/__/__/mesh/core/src/nrf_mesh_keygen.c.obj
                0x0002ba8c                nrf_mesh_keygen_network_secmat
 .text.nrf_mesh_keygen_beacon_secmat
                0x0002baac       0x50 examples/light_switch/server/CMakeFiles/light_switch_server_nrf52840_xxAA_s140_6.0.0.dir/__/__/__/mesh/core/src/nrf_mesh_keygen.c.obj
                0x0002baac                nrf_mesh_keygen_beacon_secmat
 .text.nrf_mesh_keygen_virtual_address
                0x0002bafc       0x50 examples/light_switch/server/CMakeFiles/light_switch_server_nrf52840_xxAA_s140_6.0.0.dir/__/__/__/mesh/core/src/nrf_mesh_keygen.c.obj
                0x0002bafc                nrf_mesh_keygen_virtual_address
 .text.list_insert
                0x0002bb4c       0x1c examples/light_switch/server/CMakeFiles/light_switch_server_nrf52840_xxAA_s140_6.0.0.dir/__/__/__/mesh/core/src/list.c.obj
 .text.list_add
                0x0002bb68       0x42 examples/light_switch/server/CMakeFiles/light_switch_server_nrf52840_xxAA_s140_6.0.0.dir/__/__/__/mesh/core/src/list.c.obj
                0x0002bb68                list_add
 .text.list_remove
                0x0002bbaa       0x3a examples/light_switch/server/CMakeFiles/light_switch_server_nrf52840_xxAA_s140_6.0.0.dir/__/__/__/mesh/core/src/list.c.obj
                0x0002bbaa                list_remove
 .text.list_compare_add
                0x0002bbe4       0x56 examples/light_switch/server/CMakeFiles/light_switch_server_nrf52840_xxAA_s140_6.0.0.dir/__/__/__/mesh/core/src/list.c.obj
                0x0002bbe4                list_compare_add
 *fill*         0x0002bc3a        0x2 
 .text.log_callback_rtt
                0x0002bc3c       0x2c examples/light_switch/server/CMakeFiles/light_switch_server_nrf52840_xxAA_s140_6.0.0.dir/__/__/__/mesh/core/src/log.c.obj
                0x0002bc3c                log_callback_rtt
 .text.log_init
                0x0002bc68       0x1c examples/light_switch/server/CMakeFiles/light_switch_server_nrf52840_xxAA_s140_6.0.0.dir/__/__/__/mesh/core/src/log.c.obj
                0x0002bc68                log_init
 .text.log_vprintf
                0x0002bc84       0x18 examples/light_switch/server/CMakeFiles/light_switch_server_nrf52840_xxAA_s140_6.0.0.dir/__/__/__/mesh/core/src/log.c.obj
                0x0002bc84                log_vprintf
 .text.log_printf
                0x0002bc9c       0x18 examples/light_switch/server/CMakeFiles/light_switch_server_nrf52840_xxAA_s140_6.0.0.dir/__/__/__/mesh/core/src/log.c.obj
                0x0002bc9c                log_printf
 .text.get_area_end
                0x0002bcb4        0xc examples/light_switch/server/CMakeFiles/light_switch_server_nrf52840_xxAA_s140_6.0.0.dir/__/__/__/mesh/core/src/flash_manager.c.obj
 .text.handle_matches_filter
                0x0002bcc0       0x26 examples/light_switch/server/CMakeFiles/light_switch_server_nrf52840_xxAA_s140_6.0.0.dir/__/__/__/mesh/core/src/flash_manager.c.obj
 .text.flash_area_is_blank
                0x0002bce6       0x34 examples/light_switch/server/CMakeFiles/light_switch_server_nrf52840_xxAA_s140_6.0.0.dir/__/__/__/mesh/core/src/flash_manager.c.obj
 *fill*         0x0002bd1a        0x2 
 .text.get_packet_buffer
                0x0002bd1c       0x20 examples/light_switch/server/CMakeFiles/light_switch_server_nrf52840_xxAA_s140_6.0.0.dir/__/__/__/mesh/core/src/flash_manager.c.obj
 .text.flash    0x0002bd3c       0x1c examples/light_switch/server/CMakeFiles/light_switch_server_nrf52840_xxAA_s140_6.0.0.dir/__/__/__/mesh/core/src/flash_manager.c.obj
 .text.free_packet_buffer
                0x0002bd58       0x3c examples/light_switch/server/CMakeFiles/light_switch_server_nrf52840_xxAA_s140_6.0.0.dir/__/__/__/mesh/core/src/flash_manager.c.obj
 .text.reserve_action_buffer
                0x0002bd94       0x24 examples/light_switch/server/CMakeFiles/light_switch_server_nrf52840_xxAA_s140_6.0.0.dir/__/__/__/mesh/core/src/flash_manager.c.obj
 .text.commit_action_buffer
                0x0002bdb8       0x18 examples/light_switch/server/CMakeFiles/light_switch_server_nrf52840_xxAA_s140_6.0.0.dir/__/__/__/mesh/core/src/flash_manager.c.obj
 .text.schedule_processing
                0x0002bdd0        0xc examples/light_switch/server/CMakeFiles/light_switch_server_nrf52840_xxAA_s140_6.0.0.dir/__/__/__/mesh/core/src/flash_manager.c.obj
 .text.get_next_entry
                0x0002bddc       0x34 examples/light_switch/server/CMakeFiles/light_switch_server_nrf52840_xxAA_s140_6.0.0.dir/__/__/__/mesh/core/src/flash_manager.c.obj
 .text.get_last_entry.isra.1
                0x0002be10       0x30 examples/light_switch/server/CMakeFiles/light_switch_server_nrf52840_xxAA_s140_6.0.0.dir/__/__/__/mesh/core/src/flash_manager.c.obj
 .text.process_action_queue
                0x0002be40      0x3b0 examples/light_switch/server/CMakeFiles/light_switch_server_nrf52840_xxAA_s140_6.0.0.dir/__/__/__/mesh/core/src/flash_manager.c.obj
 .text.flash_op_ended_callback
                0x0002c1f0       0x24 examples/light_switch/server/CMakeFiles/light_switch_server_nrf52840_xxAA_s140_6.0.0.dir/__/__/__/mesh/core/src/flash_manager.c.obj
 .text.flash_manager_init
                0x0002c214       0x68 examples/light_switch/server/CMakeFiles/light_switch_server_nrf52840_xxAA_s140_6.0.0.dir/__/__/__/mesh/core/src/flash_manager.c.obj
                0x0002c214                flash_manager_init
 .text.flash_manager_remove
                0x0002c27c       0x24 examples/light_switch/server/CMakeFiles/light_switch_server_nrf52840_xxAA_s140_6.0.0.dir/__/__/__/mesh/core/src/flash_manager.c.obj
                0x0002c27c                flash_manager_remove
 .text.flash_manager_entry_get
                0x0002c2a0       0x3c examples/light_switch/server/CMakeFiles/light_switch_server_nrf52840_xxAA_s140_6.0.0.dir/__/__/__/mesh/core/src/flash_manager.c.obj
                0x0002c2a0                flash_manager_entry_get
 .text.flash_manager_entry_next_get
                0x0002c2dc       0x60 examples/light_switch/server/CMakeFiles/light_switch_server_nrf52840_xxAA_s140_6.0.0.dir/__/__/__/mesh/core/src/flash_manager.c.obj
                0x0002c2dc                flash_manager_entry_next_get
 .text.flash_manager_entry_alloc
                0x0002c33c       0x5c examples/light_switch/server/CMakeFiles/light_switch_server_nrf52840_xxAA_s140_6.0.0.dir/__/__/__/mesh/core/src/flash_manager.c.obj
                0x0002c33c                flash_manager_entry_alloc
 .text.flash_manager_entry_commit
                0x0002c398       0x2c examples/light_switch/server/CMakeFiles/light_switch_server_nrf52840_xxAA_s140_6.0.0.dir/__/__/__/mesh/core/src/flash_manager.c.obj
                0x0002c398                flash_manager_entry_commit
 .text.flash_manager_entry_invalidate
                0x0002c3c4       0x4e examples/light_switch/server/CMakeFiles/light_switch_server_nrf52840_xxAA_s140_6.0.0.dir/__/__/__/mesh/core/src/flash_manager.c.obj
                0x0002c3c4                flash_manager_entry_invalidate
 .text.flash_manager_add
                0x0002c412      0x1f6 examples/light_switch/server/CMakeFiles/light_switch_server_nrf52840_xxAA_s140_6.0.0.dir/__/__/__/mesh/core/src/flash_manager.c.obj
                0x0002c412                flash_manager_add
 .text.flash_manager_mem_listener_register
                0x0002c608       0x30 examples/light_switch/server/CMakeFiles/light_switch_server_nrf52840_xxAA_s140_6.0.0.dir/__/__/__/mesh/core/src/flash_manager.c.obj
                0x0002c608                flash_manager_mem_listener_register
 .text.flash_manager_is_stable
                0x0002c638       0x24 examples/light_switch/server/CMakeFiles/light_switch_server_nrf52840_xxAA_s140_6.0.0.dir/__/__/__/mesh/core/src/flash_manager.c.obj
                0x0002c638                flash_manager_is_stable
 .text.flash_manager_on_defrag_end
                0x0002c65c       0x4c examples/light_switch/server/CMakeFiles/light_switch_server_nrf52840_xxAA_s140_6.0.0.dir/__/__/__/mesh/core/src/flash_manager.c.obj
                0x0002c65c                flash_manager_on_defrag_end
 .text.flash_manager_recovery_page_get
                0x0002c6a8        0x4 examples/light_switch/server/CMakeFiles/light_switch_server_nrf52840_xxAA_s140_6.0.0.dir/__/__/__/mesh/core/src/flash_manager.c.obj
                0x0002c6a8                flash_manager_recovery_page_get
 .text.flash_manager_action_queue_empty_cb_set
                0x0002c6ac       0x1c examples/light_switch/server/CMakeFiles/light_switch_server_nrf52840_xxAA_s140_6.0.0.dir/__/__/__/mesh/core/src/flash_manager.c.obj
                0x0002c6ac                flash_manager_action_queue_empty_cb_set
 .text.utils_xor
                0x0002c6c8       0x14 examples/light_switch/server/CMakeFiles/light_switch_server_nrf52840_xxAA_s140_6.0.0.dir/__/__/__/mesh/core/src/ccm_soft.c.obj
 .text.sd_ecb_block_encrypt
                0x0002c6dc        0x4 examples/light_switch/server/CMakeFiles/light_switch_server_nrf52840_xxAA_s140_6.0.0.dir/__/__/__/mesh/core/src/ccm_soft.c.obj
 .text.ccm_soft_crypt
                0x0002c6e0       0x4c examples/light_switch/server/CMakeFiles/light_switch_server_nrf52840_xxAA_s140_6.0.0.dir/__/__/__/mesh/core/src/ccm_soft.c.obj
 .text.ccm_soft_authenticate_blocks
                0x0002c72c       0x6c examples/light_switch/server/CMakeFiles/light_switch_server_nrf52840_xxAA_s140_6.0.0.dir/__/__/__/mesh/core/src/ccm_soft.c.obj
 .text.ccm_soft_authenticate
                0x0002c798       0x94 examples/light_switch/server/CMakeFiles/light_switch_server_nrf52840_xxAA_s140_6.0.0.dir/__/__/__/mesh/core/src/ccm_soft.c.obj
 .text.ccm_soft_encrypt
                0x0002c82c       0x54 examples/light_switch/server/CMakeFiles/light_switch_server_nrf52840_xxAA_s140_6.0.0.dir/__/__/__/mesh/core/src/ccm_soft.c.obj
                0x0002c82c                ccm_soft_encrypt
 .text.ccm_soft_decrypt
                0x0002c880       0x98 examples/light_switch/server/CMakeFiles/light_switch_server_nrf52840_xxAA_s140_6.0.0.dir/__/__/__/mesh/core/src/ccm_soft.c.obj
                0x0002c880                ccm_soft_decrypt
 .text.replay_cache_add
                0x0002c918       0x58 examples/light_switch/server/CMakeFiles/light_switch_server_nrf52840_xxAA_s140_6.0.0.dir/__/__/__/mesh/core/src/replay_cache.c.obj
                0x0002c918                replay_cache_add
 .text.replay_cache_has_elem
                0x0002c970       0x40 examples/light_switch/server/CMakeFiles/light_switch_server_nrf52840_xxAA_s140_6.0.0.dir/__/__/__/mesh/core/src/replay_cache.c.obj
                0x0002c970                replay_cache_has_elem
 .text.replay_cache_clear
                0x0002c9b0       0x20 examples/light_switch/server/CMakeFiles/light_switch_server_nrf52840_xxAA_s140_6.0.0.dir/__/__/__/mesh/core/src/replay_cache.c.obj
                0x0002c9b0                replay_cache_clear
 .text.replay_cache_init
                0x0002c9d0        0x4 examples/light_switch/server/CMakeFiles/light_switch_server_nrf52840_xxAA_s140_6.0.0.dir/__/__/__/mesh/core/src/replay_cache.c.obj
                0x0002c9d0                replay_cache_init
 .text.beacon_create
                0x0002c9d4       0x46 examples/light_switch/server/CMakeFiles/light_switch_server_nrf52840_xxAA_s140_6.0.0.dir/__/__/__/mesh/core/src/beacon.c.obj
                0x0002c9d4                beacon_create
 *fill*         0x0002ca1a        0x2 
 .text.beacon_packet_in
                0x0002ca1c      0x154 examples/light_switch/server/CMakeFiles/light_switch_server_nrf52840_xxAA_s140_6.0.0.dir/__/__/__/mesh/core/src/beacon.c.obj
                0x0002ca1c                beacon_packet_in
 .text.entry_get
                0x0002cb70       0x78 examples/light_switch/server/CMakeFiles/light_switch_server_nrf52840_xxAA_s140_6.0.0.dir/__/__/__/mesh/core/src/flash_manager_internal.c.obj
                0x0002cb70                entry_get
 .text.core_tx_complete_cb_set
                0x0002cbe8        0xc examples/light_switch/server/CMakeFiles/light_switch_server_nrf52840_xxAA_s140_6.0.0.dir/__/__/__/mesh/core/src/core_tx.c.obj
                0x0002cbe8                core_tx_complete_cb_set
 .text.core_tx_packet_alloc
                0x0002cbf4       0x98 examples/light_switch/server/CMakeFiles/light_switch_server_nrf52840_xxAA_s140_6.0.0.dir/__/__/__/mesh/core/src/core_tx.c.obj
                0x0002cbf4                core_tx_packet_alloc
 .text.core_tx_packet_send
                0x0002cc8c       0x4c examples/light_switch/server/CMakeFiles/light_switch_server_nrf52840_xxAA_s140_6.0.0.dir/__/__/__/mesh/core/src/core_tx.c.obj
                0x0002cc8c                core_tx_packet_send
 .text.core_tx_packet_discard
                0x0002ccd8       0x40 examples/light_switch/server/CMakeFiles/light_switch_server_nrf52840_xxAA_s140_6.0.0.dir/__/__/__/mesh/core/src/core_tx.c.obj
                0x0002ccd8                core_tx_packet_discard
 .text.core_tx_complete
                0x0002cd18       0x34 examples/light_switch/server/CMakeFiles/light_switch_server_nrf52840_xxAA_s140_6.0.0.dir/__/__/__/mesh/core/src/core_tx.c.obj
                0x0002cd18                core_tx_complete
 .text.core_tx_bearer_add
                0x0002cd4c       0x70 examples/light_switch/server/CMakeFiles/light_switch_server_nrf52840_xxAA_s140_6.0.0.dir/__/__/__/mesh/core/src/core_tx.c.obj
                0x0002cd4c                core_tx_bearer_add
 .text.is_publication_running
                0x0002cdbc       0x14 examples/light_switch/server/CMakeFiles/light_switch_server_nrf52840_xxAA_s140_6.0.0.dir/__/__/__/mesh/core/src/heartbeat.c.obj
 .text.heartbeat_publication_count_decrement
                0x0002cdd0       0x1c examples/light_switch/server/CMakeFiles/light_switch_server_nrf52840_xxAA_s140_6.0.0.dir/__/__/__/mesh/core/src/heartbeat.c.obj
 .text.hb_pub_getter
                0x0002cdec       0x2c examples/light_switch/server/CMakeFiles/light_switch_server_nrf52840_xxAA_s140_6.0.0.dir/__/__/__/mesh/core/src/heartbeat.c.obj
 .text.hb_pub_setter
                0x0002ce18       0x30 examples/light_switch/server/CMakeFiles/light_switch_server_nrf52840_xxAA_s140_6.0.0.dir/__/__/__/mesh/core/src/heartbeat.c.obj
 .text.heartbeat_subscription_timer_cb
                0x0002ce48       0x1c examples/light_switch/server/CMakeFiles/light_switch_server_nrf52840_xxAA_s140_6.0.0.dir/__/__/__/mesh/core/src/heartbeat.c.obj
 .text.heartbeat_opcode_handle
                0x0002ce64       0x88 examples/light_switch/server/CMakeFiles/light_switch_server_nrf52840_xxAA_s140_6.0.0.dir/__/__/__/mesh/core/src/heartbeat.c.obj
 .text.heartbeat_send
                0x0002ceec       0x94 examples/light_switch/server/CMakeFiles/light_switch_server_nrf52840_xxAA_s140_6.0.0.dir/__/__/__/mesh/core/src/heartbeat.c.obj
 .text.heartbeat_core_evt_cb
                0x0002cf80       0x6c examples/light_switch/server/CMakeFiles/light_switch_server_nrf52840_xxAA_s140_6.0.0.dir/__/__/__/mesh/core/src/heartbeat.c.obj
 .text.heartbeat_publication_timer_cb
                0x0002cfec       0x94 examples/light_switch/server/CMakeFiles/light_switch_server_nrf52840_xxAA_s140_6.0.0.dir/__/__/__/mesh/core/src/heartbeat.c.obj
 .text.heartbeat_relay_listener_cb
                0x0002d080       0x4c examples/light_switch/server/CMakeFiles/light_switch_server_nrf52840_xxAA_s140_6.0.0.dir/__/__/__/mesh/core/src/heartbeat.c.obj
 .text.heartbeat_init
                0x0002d0cc       0x78 examples/light_switch/server/CMakeFiles/light_switch_server_nrf52840_xxAA_s140_6.0.0.dir/__/__/__/mesh/core/src/heartbeat.c.obj
                0x0002d0cc                heartbeat_init
 .text.heartbeat_subscription_set
                0x0002d144       0xa4 examples/light_switch/server/CMakeFiles/light_switch_server_nrf52840_xxAA_s140_6.0.0.dir/__/__/__/mesh/core/src/heartbeat.c.obj
                0x0002d144                heartbeat_subscription_set
 .text.heartbeat_subscription_get
                0x0002d1e8        0x8 examples/light_switch/server/CMakeFiles/light_switch_server_nrf52840_xxAA_s140_6.0.0.dir/__/__/__/mesh/core/src/heartbeat.c.obj
                0x0002d1e8                heartbeat_subscription_get
 .text.heartbeat_publication_get
                0x0002d1f0        0x8 examples/light_switch/server/CMakeFiles/light_switch_server_nrf52840_xxAA_s140_6.0.0.dir/__/__/__/mesh/core/src/heartbeat.c.obj
                0x0002d1f0                heartbeat_publication_get
 .text.heartbeat_publication_state_updated
                0x0002d1f8       0x8c examples/light_switch/server/CMakeFiles/light_switch_server_nrf52840_xxAA_s140_6.0.0.dir/__/__/__/mesh/core/src/heartbeat.c.obj
                0x0002d1f8                heartbeat_publication_state_updated
 .text.heartbeat_public_info_getter_register
                0x0002d284       0x14 examples/light_switch/server/CMakeFiles/light_switch_server_nrf52840_xxAA_s140_6.0.0.dir/__/__/__/mesh/core/src/heartbeat.c.obj
                0x0002d284                heartbeat_public_info_getter_register
 .text.beacon_getter
                0x0002d298       0x24 examples/light_switch/server/CMakeFiles/light_switch_server_nrf52840_xxAA_s140_6.0.0.dir/__/__/__/mesh/core/src/net_beacon.c.obj
 .text.beacon_setter
                0x0002d2bc       0x4c examples/light_switch/server/CMakeFiles/light_switch_server_nrf52840_xxAA_s140_6.0.0.dir/__/__/__/mesh/core/src/net_beacon.c.obj
 .text.make_network_beacon_packet
                0x0002d308       0x50 examples/light_switch/server/CMakeFiles/light_switch_server_nrf52840_xxAA_s140_6.0.0.dir/__/__/__/mesh/core/src/net_beacon.c.obj
 .text.beacon_tx
                0x0002d358      0x134 examples/light_switch/server/CMakeFiles/light_switch_server_nrf52840_xxAA_s140_6.0.0.dir/__/__/__/mesh/core/src/net_beacon.c.obj
 .text.tx_complete_cb
                0x0002d48c        0xe examples/light_switch/server/CMakeFiles/light_switch_server_nrf52840_xxAA_s140_6.0.0.dir/__/__/__/mesh/core/src/net_beacon.c.obj
 .text.beacon_tx_timeout
                0x0002d49a        0x4 examples/light_switch/server/CMakeFiles/light_switch_server_nrf52840_xxAA_s140_6.0.0.dir/__/__/__/mesh/core/src/net_beacon.c.obj
 .text.is_valid_beacon_pkt.part.0
                0x0002d49e       0x30 examples/light_switch/server/CMakeFiles/light_switch_server_nrf52840_xxAA_s140_6.0.0.dir/__/__/__/mesh/core/src/net_beacon.c.obj
 *fill*         0x0002d4ce        0x2 
 .text.net_beacon_init
                0x0002d4d0       0x7c examples/light_switch/server/CMakeFiles/light_switch_server_nrf52840_xxAA_s140_6.0.0.dir/__/__/__/mesh/core/src/net_beacon.c.obj
                0x0002d4d0                net_beacon_init
 .text.net_beacon_enable
                0x0002d54c       0x28 examples/light_switch/server/CMakeFiles/light_switch_server_nrf52840_xxAA_s140_6.0.0.dir/__/__/__/mesh/core/src/net_beacon.c.obj
                0x0002d54c                net_beacon_enable
 .text.net_beacon_state_set
                0x0002d574       0x2c examples/light_switch/server/CMakeFiles/light_switch_server_nrf52840_xxAA_s140_6.0.0.dir/__/__/__/mesh/core/src/net_beacon.c.obj
                0x0002d574                net_beacon_state_set
 .text.net_beacon_state_get
                0x0002d5a0       0x2c examples/light_switch/server/CMakeFiles/light_switch_server_nrf52840_xxAA_s140_6.0.0.dir/__/__/__/mesh/core/src/net_beacon.c.obj
                0x0002d5a0                net_beacon_state_get
 .text.net_beacon_packet_in
                0x0002d5cc       0xf2 examples/light_switch/server/CMakeFiles/light_switch_server_nrf52840_xxAA_s140_6.0.0.dir/__/__/__/mesh/core/src/net_beacon.c.obj
                0x0002d5cc                net_beacon_packet_in
 *fill*         0x0002d6be        0x2 
 .text.listeners_notify
                0x0002d6c0       0x4c examples/light_switch/server/CMakeFiles/light_switch_server_nrf52840_xxAA_s140_6.0.0.dir/__/__/__/mesh/core/src/mesh_config.c.obj
 .text.entry_flags_get.isra.0
                0x0002d70c       0x1c examples/light_switch/server/CMakeFiles/light_switch_server_nrf52840_xxAA_s140_6.0.0.dir/__/__/__/mesh/core/src/mesh_config.c.obj
 .text.entry_params_find
                0x0002d728       0x38 examples/light_switch/server/CMakeFiles/light_switch_server_nrf52840_xxAA_s140_6.0.0.dir/__/__/__/mesh/core/src/mesh_config.c.obj
 .text.restore_callback
                0x0002d760       0x66 examples/light_switch/server/CMakeFiles/light_switch_server_nrf52840_xxAA_s140_6.0.0.dir/__/__/__/mesh/core/src/mesh_config.c.obj
 *fill*         0x0002d7c6        0x2 
 .text.dirty_entries_process
                0x0002d7c8       0xc8 examples/light_switch/server/CMakeFiles/light_switch_server_nrf52840_xxAA_s140_6.0.0.dir/__/__/__/mesh/core/src/mesh_config.c.obj
 .text.mesh_config_init
                0x0002d890       0x88 examples/light_switch/server/CMakeFiles/light_switch_server_nrf52840_xxAA_s140_6.0.0.dir/__/__/__/mesh/core/src/mesh_config.c.obj
                0x0002d890                mesh_config_init
 .text.mesh_config_load
                0x0002d918        0xc examples/light_switch/server/CMakeFiles/light_switch_server_nrf52840_xxAA_s140_6.0.0.dir/__/__/__/mesh/core/src/mesh_config.c.obj
                0x0002d918                mesh_config_load
 .text.mesh_config_is_busy
                0x0002d924       0x34 examples/light_switch/server/CMakeFiles/light_switch_server_nrf52840_xxAA_s140_6.0.0.dir/__/__/__/mesh/core/src/mesh_config.c.obj
                0x0002d924                mesh_config_is_busy
 .text.backend_evt_handler
                0x0002d958       0x80 examples/light_switch/server/CMakeFiles/light_switch_server_nrf52840_xxAA_s140_6.0.0.dir/__/__/__/mesh/core/src/mesh_config.c.obj
 .text.mesh_config_entry_set
                0x0002d9d8       0x88 examples/light_switch/server/CMakeFiles/light_switch_server_nrf52840_xxAA_s140_6.0.0.dir/__/__/__/mesh/core/src/mesh_config.c.obj
                0x0002d9d8                mesh_config_entry_set
 .text.mesh_config_entry_get
                0x0002da60       0x48 examples/light_switch/server/CMakeFiles/light_switch_server_nrf52840_xxAA_s140_6.0.0.dir/__/__/__/mesh/core/src/mesh_config.c.obj
                0x0002da60                mesh_config_entry_get
 .text.dummy_event
                0x0002daa8        0x2 examples/light_switch/server/CMakeFiles/light_switch_server_nrf52840_xxAA_s140_6.0.0.dir/__/__/__/mesh/core/src/mesh_config_backend.c.obj
 *fill*         0x0002daaa        0x2 
 .text.file_get
                0x0002daac       0x34 examples/light_switch/server/CMakeFiles/light_switch_server_nrf52840_xxAA_s140_6.0.0.dir/__/__/__/mesh/core/src/mesh_config_backend.c.obj
 .text.mesh_config_backend_init
                0x0002dae0      0x124 examples/light_switch/server/CMakeFiles/light_switch_server_nrf52840_xxAA_s140_6.0.0.dir/__/__/__/mesh/core/src/mesh_config_backend.c.obj
                0x0002dae0                mesh_config_backend_init
 .text.mesh_config_backend_store
                0x0002dc04       0x4e examples/light_switch/server/CMakeFiles/light_switch_server_nrf52840_xxAA_s140_6.0.0.dir/__/__/__/mesh/core/src/mesh_config_backend.c.obj
                0x0002dc04                mesh_config_backend_store
 .text.mesh_config_backend_erase
                0x0002dc52       0x34 examples/light_switch/server/CMakeFiles/light_switch_server_nrf52840_xxAA_s140_6.0.0.dir/__/__/__/mesh/core/src/mesh_config_backend.c.obj
                0x0002dc52                mesh_config_backend_erase
 *fill*         0x0002dc86        0x2 
 .text.mesh_config_backend_read_all
                0x0002dc88       0x80 examples/light_switch/server/CMakeFiles/light_switch_server_nrf52840_xxAA_s140_6.0.0.dir/__/__/__/mesh/core/src/mesh_config_backend.c.obj
                0x0002dc88                mesh_config_backend_read_all
 .text.write_complete_cb
                0x0002dd08       0x30 examples/light_switch/server/CMakeFiles/light_switch_server_nrf52840_xxAA_s140_6.0.0.dir/__/__/__/mesh/core/src/mesh_config_flashman_glue.c.obj
 .text.invalidate_complete_cb
                0x0002dd38       0x2c examples/light_switch/server/CMakeFiles/light_switch_server_nrf52840_xxAA_s140_6.0.0.dir/__/__/__/mesh/core/src/mesh_config_flashman_glue.c.obj
 .text.remove_complete_cb
                0x0002dd64        0x2 examples/light_switch/server/CMakeFiles/light_switch_server_nrf52840_xxAA_s140_6.0.0.dir/__/__/__/mesh/core/src/mesh_config_flashman_glue.c.obj
 .text.flash_stable_cb
                0x0002dd66       0x20 examples/light_switch/server/CMakeFiles/light_switch_server_nrf52840_xxAA_s140_6.0.0.dir/__/__/__/mesh/core/src/mesh_config_flashman_glue.c.obj
 *fill*         0x0002dd86        0x2 
 .text.mesh_config_backend_glue_init
                0x0002dd88       0x28 examples/light_switch/server/CMakeFiles/light_switch_server_nrf52840_xxAA_s140_6.0.0.dir/__/__/__/mesh/core/src/mesh_config_flashman_glue.c.obj
                0x0002dd88                mesh_config_backend_glue_init
 .text.mesh_config_backend_file_create
                0x0002ddb0       0x58 examples/light_switch/server/CMakeFiles/light_switch_server_nrf52840_xxAA_s140_6.0.0.dir/__/__/__/mesh/core/src/mesh_config_flashman_glue.c.obj
                0x0002ddb0                mesh_config_backend_file_create
 .text.mesh_config_backend_record_write
                0x0002de08       0x2c examples/light_switch/server/CMakeFiles/light_switch_server_nrf52840_xxAA_s140_6.0.0.dir/__/__/__/mesh/core/src/mesh_config_flashman_glue.c.obj
                0x0002de08                mesh_config_backend_record_write
 .text.mesh_config_backend_record_erase
                0x0002de34       0x22 examples/light_switch/server/CMakeFiles/light_switch_server_nrf52840_xxAA_s140_6.0.0.dir/__/__/__/mesh/core/src/mesh_config_flashman_glue.c.obj
                0x0002de34                mesh_config_backend_record_erase
 .text.mesh_config_backend_record_iterate
                0x0002de56       0x38 examples/light_switch/server/CMakeFiles/light_switch_server_nrf52840_xxAA_s140_6.0.0.dir/__/__/__/mesh/core/src/mesh_config_flashman_glue.c.obj
                0x0002de56                mesh_config_backend_record_iterate
 .text.mesh_config_record_size_calculate
                0x0002de8e        0xa examples/light_switch/server/CMakeFiles/light_switch_server_nrf52840_xxAA_s140_6.0.0.dir/__/__/__/mesh/core/src/mesh_config_flashman_glue.c.obj
                0x0002de8e                mesh_config_record_size_calculate
 .text.mesh_config_backend_file_power_down_time_get
                0x0002de98       0x24 examples/light_switch/server/CMakeFiles/light_switch_server_nrf52840_xxAA_s140_6.0.0.dir/__/__/__/mesh/core/src/mesh_config_flashman_glue.c.obj
                0x0002de98                mesh_config_backend_file_power_down_time_get
 .text.core_tx_set
                0x0002debc       0xb0 examples/light_switch/server/CMakeFiles/light_switch_server_nrf52840_xxAA_s140_6.0.0.dir/__/__/__/mesh/core/src/core_tx_adv.c.obj
 .text.packet_discard
                0x0002df6c       0x40 examples/light_switch/server/CMakeFiles/light_switch_server_nrf52840_xxAA_s140_6.0.0.dir/__/__/__/mesh/core/src/core_tx_adv.c.obj
 .text.packet_send
                0x0002dfac       0x58 examples/light_switch/server/CMakeFiles/light_switch_server_nrf52840_xxAA_s140_6.0.0.dir/__/__/__/mesh/core/src/core_tx_adv.c.obj
 .text.packet_alloc
                0x0002e004       0x58 examples/light_switch/server/CMakeFiles/light_switch_server_nrf52840_xxAA_s140_6.0.0.dir/__/__/__/mesh/core/src/core_tx_adv.c.obj
 .text.adv_tx_complete_callback
                0x0002e05c       0x20 examples/light_switch/server/CMakeFiles/light_switch_server_nrf52840_xxAA_s140_6.0.0.dir/__/__/__/mesh/core/src/core_tx_adv.c.obj
 .text.core_tx_get
                0x0002e07c       0x8c examples/light_switch/server/CMakeFiles/light_switch_server_nrf52840_xxAA_s140_6.0.0.dir/__/__/__/mesh/core/src/core_tx_adv.c.obj
 .text.mesh_opt_core_adv_set
                0x0002e108       0x24 examples/light_switch/server/CMakeFiles/light_switch_server_nrf52840_xxAA_s140_6.0.0.dir/__/__/__/mesh/core/src/core_tx_adv.c.obj
                0x0002e108                mesh_opt_core_adv_set
 .text.mesh_opt_core_adv_get
                0x0002e12c       0x24 examples/light_switch/server/CMakeFiles/light_switch_server_nrf52840_xxAA_s140_6.0.0.dir/__/__/__/mesh/core/src/core_tx_adv.c.obj
                0x0002e12c                mesh_opt_core_adv_get
 .text.core_tx_adv_init
                0x0002e150       0x68 examples/light_switch/server/CMakeFiles/light_switch_server_nrf52840_xxAA_s140_6.0.0.dir/__/__/__/mesh/core/src/core_tx_adv.c.obj
                0x0002e150                core_tx_adv_init
 .text.core_tx_adv_is_enabled
                0x0002e1b8       0x20 examples/light_switch/server/CMakeFiles/light_switch_server_nrf52840_xxAA_s140_6.0.0.dir/__/__/__/mesh/core/src/core_tx_adv.c.obj
                0x0002e1b8                core_tx_adv_is_enabled
 .text.ad_listener_subscribe
                0x0002e1d8       0x5c examples/light_switch/server/CMakeFiles/light_switch_server_nrf52840_xxAA_s140_6.0.0.dir/__/__/__/mesh/bearer/src/ad_listener.c.obj
                0x0002e1d8                ad_listener_subscribe
 .text.ad_listener_process
                0x0002e234       0x64 examples/light_switch/server/CMakeFiles/light_switch_server_nrf52840_xxAA_s140_6.0.0.dir/__/__/__/mesh/bearer/src/ad_listener.c.obj
                0x0002e234                ad_listener_process
 .text.adtype_filter_handle
                0x0002e298       0x64 examples/light_switch/server/CMakeFiles/light_switch_server_nrf52840_xxAA_s140_6.0.0.dir/__/__/__/mesh/bearer/src/ad_type_filter.c.obj
 .text.bearer_adtype_filtering_set
                0x0002e2fc       0x1c examples/light_switch/server/CMakeFiles/light_switch_server_nrf52840_xxAA_s140_6.0.0.dir/__/__/__/mesh/bearer/src/ad_type_filter.c.obj
                0x0002e2fc                bearer_adtype_filtering_set
 .text.bearer_adtype_add
                0x0002e318       0x20 examples/light_switch/server/CMakeFiles/light_switch_server_nrf52840_xxAA_s140_6.0.0.dir/__/__/__/mesh/bearer/src/ad_type_filter.c.obj
                0x0002e318                bearer_adtype_add
 .text.bearer_adtype_mode_set
                0x0002e338       0x18 examples/light_switch/server/CMakeFiles/light_switch_server_nrf52840_xxAA_s140_6.0.0.dir/__/__/__/mesh/bearer/src/ad_type_filter.c.obj
                0x0002e338                bearer_adtype_mode_set
 .text.tx_complete_event_callback
                0x0002e350       0x28 examples/light_switch/server/CMakeFiles/light_switch_server_nrf52840_xxAA_s140_6.0.0.dir/__/__/__/mesh/bearer/src/advertiser.c.obj
 .text.set_gap_addr_type
                0x0002e378       0x26 examples/light_switch/server/CMakeFiles/light_switch_server_nrf52840_xxAA_s140_6.0.0.dir/__/__/__/mesh/bearer/src/advertiser.c.obj
 .text.broadcast_complete_cb
                0x0002e39e       0x46 examples/light_switch/server/CMakeFiles/light_switch_server_nrf52840_xxAA_s140_6.0.0.dir/__/__/__/mesh/bearer/src/advertiser.c.obj
 .text.schedule_first_time
                0x0002e3e4       0x28 examples/light_switch/server/CMakeFiles/light_switch_server_nrf52840_xxAA_s140_6.0.0.dir/__/__/__/mesh/bearer/src/advertiser.c.obj
 .text.timeout_event
                0x0002e40c      0x10c examples/light_switch/server/CMakeFiles/light_switch_server_nrf52840_xxAA_s140_6.0.0.dir/__/__/__/mesh/bearer/src/advertiser.c.obj
 .text.advertiser_init
                0x0002e518        0xc examples/light_switch/server/CMakeFiles/light_switch_server_nrf52840_xxAA_s140_6.0.0.dir/__/__/__/mesh/bearer/src/advertiser.c.obj
                0x0002e518                advertiser_init
 .text.advertiser_enable
                0x0002e524       0x2a examples/light_switch/server/CMakeFiles/light_switch_server_nrf52840_xxAA_s140_6.0.0.dir/__/__/__/mesh/bearer/src/advertiser.c.obj
                0x0002e524                advertiser_enable
 .text.advertiser_disable
                0x0002e54e        0xa examples/light_switch/server/CMakeFiles/light_switch_server_nrf52840_xxAA_s140_6.0.0.dir/__/__/__/mesh/bearer/src/advertiser.c.obj
                0x0002e54e                advertiser_disable
 .text.advertiser_packet_alloc
                0x0002e558       0x76 examples/light_switch/server/CMakeFiles/light_switch_server_nrf52840_xxAA_s140_6.0.0.dir/__/__/__/mesh/bearer/src/advertiser.c.obj
                0x0002e558                advertiser_packet_alloc
 .text.advertiser_packet_send
                0x0002e5ce       0x52 examples/light_switch/server/CMakeFiles/light_switch_server_nrf52840_xxAA_s140_6.0.0.dir/__/__/__/mesh/bearer/src/advertiser.c.obj
                0x0002e5ce                advertiser_packet_send
 .text.advertiser_packet_discard
                0x0002e620       0x1e examples/light_switch/server/CMakeFiles/light_switch_server_nrf52840_xxAA_s140_6.0.0.dir/__/__/__/mesh/bearer/src/advertiser.c.obj
                0x0002e620                advertiser_packet_discard
 .text.advertiser_address_set
                0x0002e63e       0x3c examples/light_switch/server/CMakeFiles/light_switch_server_nrf52840_xxAA_s140_6.0.0.dir/__/__/__/mesh/bearer/src/advertiser.c.obj
                0x0002e63e                advertiser_address_set
 .text.advertiser_interval_set
                0x0002e67a       0x40 examples/light_switch/server/CMakeFiles/light_switch_server_nrf52840_xxAA_s140_6.0.0.dir/__/__/__/mesh/bearer/src/advertiser.c.obj
                0x0002e67a                advertiser_interval_set
 .text.advertiser_tx_power_set
                0x0002e6ba       0x14 examples/light_switch/server/CMakeFiles/light_switch_server_nrf52840_xxAA_s140_6.0.0.dir/__/__/__/mesh/bearer/src/advertiser.c.obj
                0x0002e6ba                advertiser_tx_power_set
 .text.advertiser_flush
                0x0002e6ce       0x1e examples/light_switch/server/CMakeFiles/light_switch_server_nrf52840_xxAA_s140_6.0.0.dir/__/__/__/mesh/bearer/src/advertiser.c.obj
                0x0002e6ce                advertiser_flush
 .text.advertiser_address_default_get
                0x0002e6ec       0x38 examples/light_switch/server/CMakeFiles/light_switch_server_nrf52840_xxAA_s140_6.0.0.dir/__/__/__/mesh/bearer/src/advertiser.c.obj
                0x0002e6ec                advertiser_address_default_get
 .text.advertiser_instance_init
                0x0002e724       0xa4 examples/light_switch/server/CMakeFiles/light_switch_server_nrf52840_xxAA_s140_6.0.0.dir/__/__/__/mesh/bearer/src/advertiser.c.obj
                0x0002e724                advertiser_instance_init
 .text.action_timer_start
                0x0002e7c8       0x90 examples/light_switch/server/CMakeFiles/light_switch_server_nrf52840_xxAA_s140_6.0.0.dir/__/__/__/mesh/bearer/src/bearer_handler.c.obj
 .text.action_switch
                0x0002e858       0xe8 examples/light_switch/server/CMakeFiles/light_switch_server_nrf52840_xxAA_s140_6.0.0.dir/__/__/__/mesh/bearer/src/bearer_handler.c.obj
 .text.end_handle
                0x0002e940       0x44 examples/light_switch/server/CMakeFiles/light_switch_server_nrf52840_xxAA_s140_6.0.0.dir/__/__/__/mesh/bearer/src/bearer_handler.c.obj
 .text.TIMER2_IRQHandler
                0x0002e984       0x58 examples/light_switch/server/CMakeFiles/light_switch_server_nrf52840_xxAA_s140_6.0.0.dir/__/__/__/mesh/bearer/src/bearer_handler.c.obj
                0x0002e984                TIMER2_IRQHandler
 .text.bearer_handler_init
                0x0002e9dc       0x44 examples/light_switch/server/CMakeFiles/light_switch_server_nrf52840_xxAA_s140_6.0.0.dir/__/__/__/mesh/bearer/src/bearer_handler.c.obj
                0x0002e9dc                bearer_handler_init
 .text.bearer_handler_start
                0x0002ea20       0x1c examples/light_switch/server/CMakeFiles/light_switch_server_nrf52840_xxAA_s140_6.0.0.dir/__/__/__/mesh/bearer/src/bearer_handler.c.obj
                0x0002ea20                bearer_handler_start
 .text.bearer_handler_action_enqueue
                0x0002ea3c       0x6c examples/light_switch/server/CMakeFiles/light_switch_server_nrf52840_xxAA_s140_6.0.0.dir/__/__/__/mesh/bearer/src/bearer_handler.c.obj
                0x0002ea3c                bearer_handler_action_enqueue
 .text.bearer_handler_action_end
                0x0002eaa8       0x48 examples/light_switch/server/CMakeFiles/light_switch_server_nrf52840_xxAA_s140_6.0.0.dir/__/__/__/mesh/bearer/src/bearer_handler.c.obj
                0x0002eaa8                bearer_handler_action_end
 .text.bearer_handler_radio_irq_handler
                0x0002eaf0       0x64 examples/light_switch/server/CMakeFiles/light_switch_server_nrf52840_xxAA_s140_6.0.0.dir/__/__/__/mesh/bearer/src/bearer_handler.c.obj
                0x0002eaf0                bearer_handler_radio_irq_handler
 .text.bearer_handler_timer_irq_handler
                0x0002eb54       0x24 examples/light_switch/server/CMakeFiles/light_switch_server_nrf52840_xxAA_s140_6.0.0.dir/__/__/__/mesh/bearer/src/bearer_handler.c.obj
                0x0002eb54                bearer_handler_timer_irq_handler
 .text.bearer_handler_on_ts_begin
                0x0002eb78       0x38 examples/light_switch/server/CMakeFiles/light_switch_server_nrf52840_xxAA_s140_6.0.0.dir/__/__/__/mesh/bearer/src/bearer_handler.c.obj
                0x0002eb78                bearer_handler_on_ts_begin
 .text.bearer_handler_on_ts_end
                0x0002ebb0       0x70 examples/light_switch/server/CMakeFiles/light_switch_server_nrf52840_xxAA_s140_6.0.0.dir/__/__/__/mesh/bearer/src/bearer_handler.c.obj
                0x0002ebb0                bearer_handler_on_ts_end
 .text.broadcast_start
                0x0002ec20       0xac examples/light_switch/server/CMakeFiles/light_switch_server_nrf52840_xxAA_s140_6.0.0.dir/__/__/__/mesh/bearer/src/broadcast.c.obj
 .text.radio_irq_handler
                0x0002eccc       0xa4 examples/light_switch/server/CMakeFiles/light_switch_server_nrf52840_xxAA_s140_6.0.0.dir/__/__/__/mesh/bearer/src/broadcast.c.obj
 .text.broadcast_send
                0x0002ed70       0x6c examples/light_switch/server/CMakeFiles/light_switch_server_nrf52840_xxAA_s140_6.0.0.dir/__/__/__/mesh/bearer/src/broadcast.c.obj
                0x0002ed70                broadcast_send
 .text.fen_filter_start
                0x0002eddc       0x28 examples/light_switch/server/CMakeFiles/light_switch_server_nrf52840_xxAA_s140_6.0.0.dir/__/__/__/mesh/bearer/src/filter_engine.c.obj
                0x0002eddc                fen_filter_start
 .text.fen_filter_stop
                0x0002ee04       0x20 examples/light_switch/server/CMakeFiles/light_switch_server_nrf52840_xxAA_s140_6.0.0.dir/__/__/__/mesh/bearer/src/filter_engine.c.obj
                0x0002ee04                fen_filter_stop
 .text.fen_filters_apply
                0x0002ee24       0x34 examples/light_switch/server/CMakeFiles/light_switch_server_nrf52840_xxAA_s140_6.0.0.dir/__/__/__/mesh/bearer/src/filter_engine.c.obj
                0x0002ee24                fen_filters_apply
 .text.radio_config_reset
                0x0002ee58       0x40 examples/light_switch/server/CMakeFiles/light_switch_server_nrf52840_xxAA_s140_6.0.0.dir/__/__/__/mesh/bearer/src/radio_config.c.obj
                0x0002ee58                radio_config_reset
 .text.radio_config_channel_set
                0x0002ee98       0x28 examples/light_switch/server/CMakeFiles/light_switch_server_nrf52840_xxAA_s140_6.0.0.dir/__/__/__/mesh/bearer/src/radio_config.c.obj
                0x0002ee98                radio_config_channel_set
 .text.radio_config_config
                0x0002eec0       0x90 examples/light_switch/server/CMakeFiles/light_switch_server_nrf52840_xxAA_s140_6.0.0.dir/__/__/__/mesh/bearer/src/radio_config.c.obj
                0x0002eec0                radio_config_config
 .text.radio_config_access_addr_set
                0x0002ef50       0x50 examples/light_switch/server/CMakeFiles/light_switch_server_nrf52840_xxAA_s140_6.0.0.dir/__/__/__/mesh/bearer/src/radio_config.c.obj
                0x0002ef50                radio_config_access_addr_set
 .text.radio_trigger
                0x0002efa0       0x24 examples/light_switch/server/CMakeFiles/light_switch_server_nrf52840_xxAA_s140_6.0.0.dir/__/__/__/mesh/bearer/src/scanner.c.obj
 .text.scan_window_end
                0x0002efc4       0x10 examples/light_switch/server/CMakeFiles/light_switch_server_nrf52840_xxAA_s140_6.0.0.dir/__/__/__/mesh/bearer/src/scanner.c.obj
 .text.scan_window_start
                0x0002efd4       0x24 examples/light_switch/server/CMakeFiles/light_switch_server_nrf52840_xxAA_s140_6.0.0.dir/__/__/__/mesh/bearer/src/scanner.c.obj
 .text.radio_configure
                0x0002eff8       0x78 examples/light_switch/server/CMakeFiles/light_switch_server_nrf52840_xxAA_s140_6.0.0.dir/__/__/__/mesh/bearer/src/scanner.c.obj
 .text.radio_set_packet
                0x0002f070       0x4c examples/light_switch/server/CMakeFiles/light_switch_server_nrf52840_xxAA_s140_6.0.0.dir/__/__/__/mesh/bearer/src/scanner.c.obj
 .text.radio_start
                0x0002f0bc       0x78 examples/light_switch/server/CMakeFiles/light_switch_server_nrf52840_xxAA_s140_6.0.0.dir/__/__/__/mesh/bearer/src/scanner.c.obj
 .text.radio_stop
                0x0002f134       0x38 examples/light_switch/server/CMakeFiles/light_switch_server_nrf52840_xxAA_s140_6.0.0.dir/__/__/__/mesh/bearer/src/scanner.c.obj
 .text.schedule_timers
                0x0002f16c       0x38 examples/light_switch/server/CMakeFiles/light_switch_server_nrf52840_xxAA_s140_6.0.0.dir/__/__/__/mesh/bearer/src/scanner.c.obj
 .text.scanner_radio_start
                0x0002f1a4       0x2c examples/light_switch/server/CMakeFiles/light_switch_server_nrf52840_xxAA_s140_6.0.0.dir/__/__/__/mesh/bearer/src/scanner.c.obj
                0x0002f1a4                scanner_radio_start
 .text.scanner_radio_stop
                0x0002f1d0       0x10 examples/light_switch/server/CMakeFiles/light_switch_server_nrf52840_xxAA_s140_6.0.0.dir/__/__/__/mesh/bearer/src/scanner.c.obj
                0x0002f1d0                scanner_radio_stop
 .text.scanner_radio_irq_handler
                0x0002f1e0      0x13c examples/light_switch/server/CMakeFiles/light_switch_server_nrf52840_xxAA_s140_6.0.0.dir/__/__/__/mesh/bearer/src/scanner.c.obj
                0x0002f1e0                scanner_radio_irq_handler
 .text.scanner_timer_irq_handler
                0x0002f31c       0x30 examples/light_switch/server/CMakeFiles/light_switch_server_nrf52840_xxAA_s140_6.0.0.dir/__/__/__/mesh/bearer/src/scanner.c.obj
                0x0002f31c                scanner_timer_irq_handler
 .text.scanner_enable
                0x0002f34c       0x24 examples/light_switch/server/CMakeFiles/light_switch_server_nrf52840_xxAA_s140_6.0.0.dir/__/__/__/mesh/bearer/src/scanner.c.obj
                0x0002f34c                scanner_enable
 .text.scanner_packet_release
                0x0002f370       0x2c examples/light_switch/server/CMakeFiles/light_switch_server_nrf52840_xxAA_s140_6.0.0.dir/__/__/__/mesh/bearer/src/scanner.c.obj
                0x0002f370                scanner_packet_release
 .text.scanner_rx
                0x0002f39c       0x30 examples/light_switch/server/CMakeFiles/light_switch_server_nrf52840_xxAA_s140_6.0.0.dir/__/__/__/mesh/bearer/src/scanner.c.obj
                0x0002f39c                scanner_rx
 .text.scanner_rx_pending
                0x0002f3cc        0xc examples/light_switch/server/CMakeFiles/light_switch_server_nrf52840_xxAA_s140_6.0.0.dir/__/__/__/mesh/bearer/src/scanner.c.obj
                0x0002f3cc                scanner_rx_pending
 .text.scanner_config_scan_time_set
                0x0002f3d8       0x4c examples/light_switch/server/CMakeFiles/light_switch_server_nrf52840_xxAA_s140_6.0.0.dir/__/__/__/mesh/bearer/src/scanner.c.obj
                0x0002f3d8                scanner_config_scan_time_set
 .text.scanner_config_channels_set
                0x0002f424       0x50 examples/light_switch/server/CMakeFiles/light_switch_server_nrf52840_xxAA_s140_6.0.0.dir/__/__/__/mesh/bearer/src/scanner.c.obj
                0x0002f424                scanner_config_channels_set
 .text.scanner_config_access_addresses_set
                0x0002f474       0x38 examples/light_switch/server/CMakeFiles/light_switch_server_nrf52840_xxAA_s140_6.0.0.dir/__/__/__/mesh/bearer/src/scanner.c.obj
                0x0002f474                scanner_config_access_addresses_set
 .text.scanner_config_reset
                0x0002f4ac       0x50 examples/light_switch/server/CMakeFiles/light_switch_server_nrf52840_xxAA_s140_6.0.0.dir/__/__/__/mesh/bearer/src/scanner.c.obj
                0x0002f4ac                scanner_config_reset
 .text.scanner_init
                0x0002f4fc       0x54 examples/light_switch/server/CMakeFiles/light_switch_server_nrf52840_xxAA_s140_6.0.0.dir/__/__/__/mesh/bearer/src/scanner.c.obj
                0x0002f4fc                scanner_init
 .text.pin_clear
                0x0002f550       0x26 examples/light_switch/server/CMakeFiles/light_switch_server_nrf52840_xxAA_s140_6.0.0.dir/__/__/__/mesh/bearer/src/mesh_pa_lna.c.obj
 *fill*         0x0002f576        0x2 
 .text.ppi_setup.isra.0
                0x0002f578       0x3c examples/light_switch/server/CMakeFiles/light_switch_server_nrf52840_xxAA_s140_6.0.0.dir/__/__/__/mesh/bearer/src/mesh_pa_lna.c.obj
 .text.mesh_pa_setup_start
                0x0002f5b4       0x5c examples/light_switch/server/CMakeFiles/light_switch_server_nrf52840_xxAA_s140_6.0.0.dir/__/__/__/mesh/bearer/src/mesh_pa_lna.c.obj
                0x0002f5b4                mesh_pa_setup_start
 .text.mesh_lna_setup_start
                0x0002f610       0x5c examples/light_switch/server/CMakeFiles/light_switch_server_nrf52840_xxAA_s140_6.0.0.dir/__/__/__/mesh/bearer/src/mesh_pa_lna.c.obj
                0x0002f610                mesh_lna_setup_start
 .text.mesh_pa_lna_disable_start
                0x0002f66c       0x1c examples/light_switch/server/CMakeFiles/light_switch_server_nrf52840_xxAA_s140_6.0.0.dir/__/__/__/mesh/bearer/src/mesh_pa_lna.c.obj
                0x0002f66c                mesh_pa_lna_disable_start
 .text.mesh_pa_lna_setup_stop
                0x0002f688       0x4c examples/light_switch/server/CMakeFiles/light_switch_server_nrf52840_xxAA_s140_6.0.0.dir/__/__/__/mesh/bearer/src/mesh_pa_lna.c.obj
                0x0002f688                mesh_pa_lna_setup_stop
 .text.mesh_pa_lna_cleanup
                0x0002f6d4       0x48 examples/light_switch/server/CMakeFiles/light_switch_server_nrf52840_xxAA_s140_6.0.0.dir/__/__/__/mesh/bearer/src/mesh_pa_lna.c.obj
                0x0002f6d4                mesh_pa_lna_cleanup
 .text.config_composition_data_get
                0x0002f71c      0x186 examples/light_switch/server/CMakeFiles/light_switch_server_nrf52840_xxAA_s140_6.0.0.dir/__/__/__/models/foundation/config/src/composition_data.c.obj
                0x0002f71c                config_composition_data_get
 *fill*         0x0002f8a2        0x2 
 .text.app_evt_send
                0x0002f8a4       0x10 examples/light_switch/server/CMakeFiles/light_switch_server_nrf52840_xxAA_s140_6.0.0.dir/__/__/__/models/foundation/config/src/config_server.c.obj
 .text.get_element_index
                0x0002f8b4       0x26 examples/light_switch/server/CMakeFiles/light_switch_server_nrf52840_xxAA_s140_6.0.0.dir/__/__/__/models/foundation/config/src/config_server.c.obj
 .text.config_server_heartbeat_publication_params_get
                0x0002f8da       0x30 examples/light_switch/server/CMakeFiles/light_switch_server_nrf52840_xxAA_s140_6.0.0.dir/__/__/__/models/foundation/config/src/config_server.c.obj
 .text.send_reply
                0x0002f90a       0x34 examples/light_switch/server/CMakeFiles/light_switch_server_nrf52840_xxAA_s140_6.0.0.dir/__/__/__/models/foundation/config/src/config_server.c.obj
 .text.send_network_transmit_status
                0x0002f93e       0x5a examples/light_switch/server/CMakeFiles/light_switch_server_nrf52840_xxAA_s140_6.0.0.dir/__/__/__/models/foundation/config/src/config_server.c.obj
 .text.handle_config_network_transmit_set
                0x0002f998       0x74 examples/light_switch/server/CMakeFiles/light_switch_server_nrf52840_xxAA_s140_6.0.0.dir/__/__/__/models/foundation/config/src/config_server.c.obj
 .text.handle_config_network_transmit_get
                0x0002fa0c        0xa examples/light_switch/server/CMakeFiles/light_switch_server_nrf52840_xxAA_s140_6.0.0.dir/__/__/__/models/foundation/config/src/config_server.c.obj
 *fill*         0x0002fa16        0x2 
 .text.handle_node_reset
                0x0002fa18       0x34 examples/light_switch/server/CMakeFiles/light_switch_server_nrf52840_xxAA_s140_6.0.0.dir/__/__/__/models/foundation/config/src/config_server.c.obj
 .text.send_netkey_status
                0x0002fa4c       0x2c examples/light_switch/server/CMakeFiles/light_switch_server_nrf52840_xxAA_s140_6.0.0.dir/__/__/__/models/foundation/config/src/config_server.c.obj
 .text.send_relay_status
                0x0002fa78       0x7e examples/light_switch/server/CMakeFiles/light_switch_server_nrf52840_xxAA_s140_6.0.0.dir/__/__/__/models/foundation/config/src/config_server.c.obj
 .text.handle_config_relay_set
                0x0002faf6       0x9a examples/light_switch/server/CMakeFiles/light_switch_server_nrf52840_xxAA_s140_6.0.0.dir/__/__/__/models/foundation/config/src/config_server.c.obj
 .text.handle_config_relay_get
                0x0002fb90        0xa examples/light_switch/server/CMakeFiles/light_switch_server_nrf52840_xxAA_s140_6.0.0.dir/__/__/__/models/foundation/config/src/config_server.c.obj
 .text.send_subscription_status
                0x0002fb9a       0x42 examples/light_switch/server/CMakeFiles/light_switch_server_nrf52840_xxAA_s140_6.0.0.dir/__/__/__/models/foundation/config/src/config_server.c.obj
 .text.send_appkey_status
                0x0002fbdc       0x3a examples/light_switch/server/CMakeFiles/light_switch_server_nrf52840_xxAA_s140_6.0.0.dir/__/__/__/models/foundation/config/src/config_server.c.obj
 .text.handle_netkey_get
                0x0002fc16       0x50 examples/light_switch/server/CMakeFiles/light_switch_server_nrf52840_xxAA_s140_6.0.0.dir/__/__/__/models/foundation/config/src/config_server.c.obj
 .text.handle_netkey_delete
                0x0002fc66       0xbc examples/light_switch/server/CMakeFiles/light_switch_server_nrf52840_xxAA_s140_6.0.0.dir/__/__/__/models/foundation/config/src/config_server.c.obj
 *fill*         0x0002fd22        0x2 
 .text.handle_netkey_add_update
                0x0002fd24       0x78 examples/light_switch/server/CMakeFiles/light_switch_server_nrf52840_xxAA_s140_6.0.0.dir/__/__/__/models/foundation/config/src/config_server.c.obj
 .text.status_error_sub_send
                0x0002fd9c      0x124 examples/light_switch/server/CMakeFiles/light_switch_server_nrf52840_xxAA_s140_6.0.0.dir/__/__/__/models/foundation/config/src/config_server.c.obj
 .text.delete_all_subscriptions
                0x0002fec0       0x66 examples/light_switch/server/CMakeFiles/light_switch_server_nrf52840_xxAA_s140_6.0.0.dir/__/__/__/models/foundation/config/src/config_server.c.obj
 .text.send_publication_status
                0x0002ff26      0x170 examples/light_switch/server/CMakeFiles/light_switch_server_nrf52840_xxAA_s140_6.0.0.dir/__/__/__/models/foundation/config/src/config_server.c.obj
 .text.handle_config_key_refresh_phase_set
                0x00030096       0xc8 examples/light_switch/server/CMakeFiles/light_switch_server_nrf52840_xxAA_s140_6.0.0.dir/__/__/__/models/foundation/config/src/config_server.c.obj
 .text.handle_config_default_ttl_set
                0x0003015e       0x50 examples/light_switch/server/CMakeFiles/light_switch_server_nrf52840_xxAA_s140_6.0.0.dir/__/__/__/models/foundation/config/src/config_server.c.obj
 .text.send_net_beacon_state
                0x000301ae       0x2c examples/light_switch/server/CMakeFiles/light_switch_server_nrf52840_xxAA_s140_6.0.0.dir/__/__/__/models/foundation/config/src/config_server.c.obj
 .text.handle_config_beacon_get
                0x000301da        0xa examples/light_switch/server/CMakeFiles/light_switch_server_nrf52840_xxAA_s140_6.0.0.dir/__/__/__/models/foundation/config/src/config_server.c.obj
 .text.handle_heartbeat_publication_set
                0x000301e4      0x136 examples/light_switch/server/CMakeFiles/light_switch_server_nrf52840_xxAA_s140_6.0.0.dir/__/__/__/models/foundation/config/src/config_server.c.obj
 *fill*         0x0003031a        0x2 
 .text.mesh_event_cb
                0x0003031c       0x70 examples/light_switch/server/CMakeFiles/light_switch_server_nrf52840_xxAA_s140_6.0.0.dir/__/__/__/models/foundation/config/src/config_server.c.obj
 .text.handle_node_identity_set
                0x0003038c       0x3e examples/light_switch/server/CMakeFiles/light_switch_server_nrf52840_xxAA_s140_6.0.0.dir/__/__/__/models/foundation/config/src/config_server.c.obj
 .text.handle_node_identity_get
                0x000303ca       0x3c examples/light_switch/server/CMakeFiles/light_switch_server_nrf52840_xxAA_s140_6.0.0.dir/__/__/__/models/foundation/config/src/config_server.c.obj
 .text.handle_config_gatt_proxy_get.part.8
                0x00030406       0x2a examples/light_switch/server/CMakeFiles/light_switch_server_nrf52840_xxAA_s140_6.0.0.dir/__/__/__/models/foundation/config/src/config_server.c.obj
 .text.handle_config_gatt_proxy_set
                0x00030430       0x14 examples/light_switch/server/CMakeFiles/light_switch_server_nrf52840_xxAA_s140_6.0.0.dir/__/__/__/models/foundation/config/src/config_server.c.obj
 .text.handle_config_gatt_proxy_get
                0x00030444        0xa examples/light_switch/server/CMakeFiles/light_switch_server_nrf52840_xxAA_s140_6.0.0.dir/__/__/__/models/foundation/config/src/config_server.c.obj
 .text.handle_config_friend_get.part.10
                0x0003044e       0x2a examples/light_switch/server/CMakeFiles/light_switch_server_nrf52840_xxAA_s140_6.0.0.dir/__/__/__/models/foundation/config/src/config_server.c.obj
 .text.handle_config_friend_set
                0x00030478       0x14 examples/light_switch/server/CMakeFiles/light_switch_server_nrf52840_xxAA_s140_6.0.0.dir/__/__/__/models/foundation/config/src/config_server.c.obj
 .text.handle_config_friend_get
                0x0003048c        0xa examples/light_switch/server/CMakeFiles/light_switch_server_nrf52840_xxAA_s140_6.0.0.dir/__/__/__/models/foundation/config/src/config_server.c.obj
 .text.status_error_pub_send
                0x00030496       0x9c examples/light_switch/server/CMakeFiles/light_switch_server_nrf52840_xxAA_s140_6.0.0.dir/__/__/__/models/foundation/config/src/config_server.c.obj
 .text.handle_config_key_refresh_phase_get
                0x00030532       0x58 examples/light_switch/server/CMakeFiles/light_switch_server_nrf52840_xxAA_s140_6.0.0.dir/__/__/__/models/foundation/config/src/config_server.c.obj
 .text.handle_config_default_ttl_get
                0x0003058a       0x30 examples/light_switch/server/CMakeFiles/light_switch_server_nrf52840_xxAA_s140_6.0.0.dir/__/__/__/models/foundation/config/src/config_server.c.obj
 .text.handle_config_beacon_set
                0x000305ba       0x42 examples/light_switch/server/CMakeFiles/light_switch_server_nrf52840_xxAA_s140_6.0.0.dir/__/__/__/models/foundation/config/src/config_server.c.obj
 .text.handle_composition_data_get
                0x000305fc       0x50 examples/light_switch/server/CMakeFiles/light_switch_server_nrf52840_xxAA_s140_6.0.0.dir/__/__/__/models/foundation/config/src/config_server.c.obj
 .text.handle_appkey_delete
                0x0003064c       0xc2 examples/light_switch/server/CMakeFiles/light_switch_server_nrf52840_xxAA_s140_6.0.0.dir/__/__/__/models/foundation/config/src/config_server.c.obj
 .text.get_subscription_list.constprop.24
                0x0003070e       0x50 examples/light_switch/server/CMakeFiles/light_switch_server_nrf52840_xxAA_s140_6.0.0.dir/__/__/__/models/foundation/config/src/config_server.c.obj
 .text.handle_appkey_get
                0x0003075e       0xb8 examples/light_switch/server/CMakeFiles/light_switch_server_nrf52840_xxAA_s140_6.0.0.dir/__/__/__/models/foundation/config/src/config_server.c.obj
 .text.heartbeat_subscription_count_encode
                0x00030816       0x26 examples/light_switch/server/CMakeFiles/light_switch_server_nrf52840_xxAA_s140_6.0.0.dir/__/__/__/models/foundation/config/src/config_server.c.obj
 .text.handle_appkey_add
                0x0003083c       0xba examples/light_switch/server/CMakeFiles/light_switch_server_nrf52840_xxAA_s140_6.0.0.dir/__/__/__/models/foundation/config/src/config_server.c.obj
 .text.handle_appkey_update
                0x000308f6       0xbc examples/light_switch/server/CMakeFiles/light_switch_server_nrf52840_xxAA_s140_6.0.0.dir/__/__/__/models/foundation/config/src/config_server.c.obj
 .text.heartbeat_pubsub_period_encode
                0x000309b2       0x26 examples/light_switch/server/CMakeFiles/light_switch_server_nrf52840_xxAA_s140_6.0.0.dir/__/__/__/models/foundation/config/src/config_server.c.obj
 .text.handle_heartbeat_publication_get
                0x000309d8       0x7e examples/light_switch/server/CMakeFiles/light_switch_server_nrf52840_xxAA_s140_6.0.0.dir/__/__/__/models/foundation/config/src/config_server.c.obj
 .text.handle_heartbeat_subscription_get
                0x00030a56       0x84 examples/light_switch/server/CMakeFiles/light_switch_server_nrf52840_xxAA_s140_6.0.0.dir/__/__/__/models/foundation/config/src/config_server.c.obj
 .text.handle_heartbeat_subscription_set
                0x00030ada       0xa8 examples/light_switch/server/CMakeFiles/light_switch_server_nrf52840_xxAA_s140_6.0.0.dir/__/__/__/models/foundation/config/src/config_server.c.obj
 .text.handle_config_model_publication_get
                0x00030b82       0x94 examples/light_switch/server/CMakeFiles/light_switch_server_nrf52840_xxAA_s140_6.0.0.dir/__/__/__/models/foundation/config/src/config_server.c.obj
 .text.handle_config_model_subscription_delete_all
                0x00030c16       0xca examples/light_switch/server/CMakeFiles/light_switch_server_nrf52840_xxAA_s140_6.0.0.dir/__/__/__/models/foundation/config/src/config_server.c.obj
 .text.handle_config_sig_model_subscription_get
                0x00030ce0       0xc2 examples/light_switch/server/CMakeFiles/light_switch_server_nrf52840_xxAA_s140_6.0.0.dir/__/__/__/models/foundation/config/src/config_server.c.obj
 .text.handle_config_vendor_model_subscription_get
                0x00030da2      0x100 examples/light_switch/server/CMakeFiles/light_switch_server_nrf52840_xxAA_s140_6.0.0.dir/__/__/__/models/foundation/config/src/config_server.c.obj
 .text.handle_config_model_subscription_virtual_address_delete
                0x00030ea2      0x110 examples/light_switch/server/CMakeFiles/light_switch_server_nrf52840_xxAA_s140_6.0.0.dir/__/__/__/models/foundation/config/src/config_server.c.obj
 .text.handle_config_model_subscription_virtual_address_add
                0x00030fb2      0x10e examples/light_switch/server/CMakeFiles/light_switch_server_nrf52840_xxAA_s140_6.0.0.dir/__/__/__/models/foundation/config/src/config_server.c.obj
 .text.handle_config_model_subscription_delete
                0x000310c0      0x116 examples/light_switch/server/CMakeFiles/light_switch_server_nrf52840_xxAA_s140_6.0.0.dir/__/__/__/models/foundation/config/src/config_server.c.obj
 .text.handle_config_model_subscription_add
                0x000311d6      0x114 examples/light_switch/server/CMakeFiles/light_switch_server_nrf52840_xxAA_s140_6.0.0.dir/__/__/__/models/foundation/config/src/config_server.c.obj
 .text.handle_config_model_subscription_virtual_address_overwrite
                0x000312ea      0x128 examples/light_switch/server/CMakeFiles/light_switch_server_nrf52840_xxAA_s140_6.0.0.dir/__/__/__/models/foundation/config/src/config_server.c.obj
 .text.handle_model_app_get
                0x00031412      0x1a4 examples/light_switch/server/CMakeFiles/light_switch_server_nrf52840_xxAA_s140_6.0.0.dir/__/__/__/models/foundation/config/src/config_server.c.obj
 .text.handle_config_model_subscription_overwrite
                0x000315b6      0x122 examples/light_switch/server/CMakeFiles/light_switch_server_nrf52840_xxAA_s140_6.0.0.dir/__/__/__/models/foundation/config/src/config_server.c.obj
 .text.handle_model_app_bind_unbind
                0x000316d8      0x17a examples/light_switch/server/CMakeFiles/light_switch_server_nrf52840_xxAA_s140_6.0.0.dir/__/__/__/models/foundation/config/src/config_server.c.obj
 .text.handle_config_model_publication_set
                0x00031852      0x2c6 examples/light_switch/server/CMakeFiles/light_switch_server_nrf52840_xxAA_s140_6.0.0.dir/__/__/__/models/foundation/config/src/config_server.c.obj
 .text.config_server_init
                0x00031b18       0x60 examples/light_switch/server/CMakeFiles/light_switch_server_nrf52840_xxAA_s140_6.0.0.dir/__/__/__/models/foundation/config/src/config_server.c.obj
                0x00031b18                config_server_init
 .text.config_server_bind
                0x00031b78       0x10 examples/light_switch/server/CMakeFiles/light_switch_server_nrf52840_xxAA_s140_6.0.0.dir/__/__/__/models/foundation/config/src/config_server.c.obj
                0x00031b78                config_server_bind
 .text.packed_index_list_create
                0x00031b88       0x32 examples/light_switch/server/CMakeFiles/light_switch_server_nrf52840_xxAA_s140_6.0.0.dir/__/__/__/models/foundation/config/src/packed_index_list.c.obj
                0x00031b88                packed_index_list_create
 *fill*         0x00031bba        0x2 
 .text.attention_timer_set
                0x00031bbc       0x8c examples/light_switch/server/CMakeFiles/light_switch_server_nrf52840_xxAA_s140_6.0.0.dir/__/__/__/models/foundation/health/src/health_server.c.obj
 .text.attention_timer_handler
                0x00031c48       0x5c examples/light_switch/server/CMakeFiles/light_switch_server_nrf52840_xxAA_s140_6.0.0.dir/__/__/__/models/foundation/health/src/health_server.c.obj
 .text.send_attention_status
                0x00031ca4       0x4a examples/light_switch/server/CMakeFiles/light_switch_server_nrf52840_xxAA_s140_6.0.0.dir/__/__/__/models/foundation/health/src/health_server.c.obj
 .text.handle_attention_get
                0x00031cee        0xc examples/light_switch/server/CMakeFiles/light_switch_server_nrf52840_xxAA_s140_6.0.0.dir/__/__/__/models/foundation/health/src/health_server.c.obj
 .text.send_period_status
                0x00031cfa       0x48 examples/light_switch/server/CMakeFiles/light_switch_server_nrf52840_xxAA_s140_6.0.0.dir/__/__/__/models/foundation/health/src/health_server.c.obj
 .text.handle_period_get
                0x00031d42        0xc examples/light_switch/server/CMakeFiles/light_switch_server_nrf52840_xxAA_s140_6.0.0.dir/__/__/__/models/foundation/health/src/health_server.c.obj
 .text.handle_attention_set
                0x00031d4e       0x2e examples/light_switch/server/CMakeFiles/light_switch_server_nrf52840_xxAA_s140_6.0.0.dir/__/__/__/models/foundation/health/src/health_server.c.obj
 .text.handle_period_set
                0x00031d7c       0x22 examples/light_switch/server/CMakeFiles/light_switch_server_nrf52840_xxAA_s140_6.0.0.dir/__/__/__/models/foundation/health/src/health_server.c.obj
 *fill*         0x00031d9e        0x2 
 .text.bitfield_next_get.part.0.constprop.9
                0x00031da0       0x44 examples/light_switch/server/CMakeFiles/light_switch_server_nrf52840_xxAA_s140_6.0.0.dir/__/__/__/models/foundation/health/src/health_server.c.obj
 .text.bitfield_popcount.constprop.7
                0x00031de4       0x28 examples/light_switch/server/CMakeFiles/light_switch_server_nrf52840_xxAA_s140_6.0.0.dir/__/__/__/models/foundation/health/src/health_server.c.obj
 .text.send_fault_status
                0x00031e0c       0xa8 examples/light_switch/server/CMakeFiles/light_switch_server_nrf52840_xxAA_s140_6.0.0.dir/__/__/__/models/foundation/health/src/health_server.c.obj
 .text.health_publish_timeout_handler
                0x00031eb4        0xa examples/light_switch/server/CMakeFiles/light_switch_server_nrf52840_xxAA_s140_6.0.0.dir/__/__/__/models/foundation/health/src/health_server.c.obj
 .text.handle_fault_test
                0x00031ebe       0x68 examples/light_switch/server/CMakeFiles/light_switch_server_nrf52840_xxAA_s140_6.0.0.dir/__/__/__/models/foundation/health/src/health_server.c.obj
 .text.handle_fault_get
                0x00031f26       0x32 examples/light_switch/server/CMakeFiles/light_switch_server_nrf52840_xxAA_s140_6.0.0.dir/__/__/__/models/foundation/health/src/health_server.c.obj
 .text.handle_fault_clear
                0x00031f58       0x48 examples/light_switch/server/CMakeFiles/light_switch_server_nrf52840_xxAA_s140_6.0.0.dir/__/__/__/models/foundation/health/src/health_server.c.obj
 .text.health_server_init
                0x00031fa0       0x6c examples/light_switch/server/CMakeFiles/light_switch_server_nrf52840_xxAA_s140_6.0.0.dir/__/__/__/models/foundation/health/src/health_server.c.obj
                0x00031fa0                health_server_init
 .text.status_send
                0x0003200c       0x8c examples/light_switch/server/CMakeFiles/light_switch_server_nrf52840_xxAA_s140_6.0.0.dir/__/__/__/models/model_spec/generic_onoff/src/generic_onoff_server.c.obj
 .text.periodic_publish_cb
                0x00032098       0x24 examples/light_switch/server/CMakeFiles/light_switch_server_nrf52840_xxAA_s140_6.0.0.dir/__/__/__/models/model_spec/generic_onoff/src/generic_onoff_server.c.obj
 .text.handle_get
                0x000320bc       0x2a examples/light_switch/server/CMakeFiles/light_switch_server_nrf52840_xxAA_s140_6.0.0.dir/__/__/__/models/model_spec/generic_onoff/src/generic_onoff_server.c.obj
 .text.handle_set
                0x000320e6       0xae examples/light_switch/server/CMakeFiles/light_switch_server_nrf52840_xxAA_s140_6.0.0.dir/__/__/__/models/model_spec/generic_onoff/src/generic_onoff_server.c.obj
 .text.generic_onoff_server_init
                0x00032194       0x58 examples/light_switch/server/CMakeFiles/light_switch_server_nrf52840_xxAA_s140_6.0.0.dir/__/__/__/models/model_spec/generic_onoff/src/generic_onoff_server.c.obj
                0x00032194                generic_onoff_server_init
 .text.generic_onoff_server_status_publish
                0x000321ec       0x10 examples/light_switch/server/CMakeFiles/light_switch_server_nrf52840_xxAA_s140_6.0.0.dir/__/__/__/models/model_spec/generic_onoff/src/generic_onoff_server.c.obj
                0x000321ec                generic_onoff_server_status_publish
 .text.model_tid_timer_cb
                0x000321fc        0x6 examples/light_switch/server/CMakeFiles/light_switch_server_nrf52840_xxAA_s140_6.0.0.dir/__/__/__/models/model_spec/common/src/model_common.c.obj
 *fill*         0x00032202        0x2 
 .text.model_tid_validate
                0x00032204       0x5c examples/light_switch/server/CMakeFiles/light_switch_server_nrf52840_xxAA_s140_6.0.0.dir/__/__/__/models/model_spec/common/src/model_common.c.obj
                0x00032204                model_tid_validate
 .text.model_transition_time_decode
                0x00032260       0x3c examples/light_switch/server/CMakeFiles/light_switch_server_nrf52840_xxAA_s140_6.0.0.dir/__/__/__/models/model_spec/common/src/model_common.c.obj
                0x00032260                model_transition_time_decode
 .text.model_transition_time_encode
                0x0003229c       0x60 examples/light_switch/server/CMakeFiles/light_switch_server_nrf52840_xxAA_s140_6.0.0.dir/__/__/__/models/model_spec/common/src/model_common.c.obj
                0x0003229c                model_transition_time_encode
 .text.model_transition_time_is_valid
                0x000322fc        0xc examples/light_switch/server/CMakeFiles/light_switch_server_nrf52840_xxAA_s140_6.0.0.dir/__/__/__/models/model_spec/common/src/model_common.c.obj
                0x000322fc                model_transition_time_is_valid
 .text.model_delay_decode
                0x00032308        0x6 examples/light_switch/server/CMakeFiles/light_switch_server_nrf52840_xxAA_s140_6.0.0.dir/__/__/__/models/model_spec/common/src/model_common.c.obj
                0x00032308                model_delay_decode
 *fill*         0x0003230e        0x2 
 .text.add_to_publication_list
                0x00032310       0x78 examples/light_switch/server/CMakeFiles/light_switch_server_nrf52840_xxAA_s140_6.0.0.dir/__/__/__/mesh/access/src/access_publish.c.obj
 .text.step_resolution_to_us
                0x00032388       0x38 examples/light_switch/server/CMakeFiles/light_switch_server_nrf52840_xxAA_s140_6.0.0.dir/__/__/__/mesh/access/src/access_publish.c.obj
 .text.schedule_publication_timer
                0x000323c0      0x184 examples/light_switch/server/CMakeFiles/light_switch_server_nrf52840_xxAA_s140_6.0.0.dir/__/__/__/mesh/access/src/access_publish.c.obj
 .text.publish_timer_tick
                0x00032544       0xa8 examples/light_switch/server/CMakeFiles/light_switch_server_nrf52840_xxAA_s140_6.0.0.dir/__/__/__/mesh/access/src/access_publish.c.obj
 .text.access_publish_init
                0x000325ec       0x38 examples/light_switch/server/CMakeFiles/light_switch_server_nrf52840_xxAA_s140_6.0.0.dir/__/__/__/mesh/access/src/access_publish.c.obj
                0x000325ec                access_publish_init
 .text.access_publish_period_set
                0x00032624       0x60 examples/light_switch/server/CMakeFiles/light_switch_server_nrf52840_xxAA_s140_6.0.0.dir/__/__/__/mesh/access/src/access_publish.c.obj
                0x00032624                access_publish_period_set
 .text.access_publish_period_get
                0x00032684       0x22 examples/light_switch/server/CMakeFiles/light_switch_server_nrf52840_xxAA_s140_6.0.0.dir/__/__/__/mesh/access/src/access_publish.c.obj
                0x00032684                access_publish_period_get
 .text.bitfield_get
                0x000326a6       0x1a examples/light_switch/server/CMakeFiles/light_switch_server_nrf52840_xxAA_s140_6.0.0.dir/__/__/__/mesh/access/src/access.c.obj
 .text.is_valid_opcode
                0x000326c0       0x42 examples/light_switch/server/CMakeFiles/light_switch_server_nrf52840_xxAA_s140_6.0.0.dir/__/__/__/mesh/access/src/access.c.obj
 *fill*         0x00032702        0x2 
 .text.model_handle_valid_and_allocated
                0x00032704       0x20 examples/light_switch/server/CMakeFiles/light_switch_server_nrf52840_xxAA_s140_6.0.0.dir/__/__/__/mesh/access/src/access.c.obj
 .text.flash_manager_mem_available
                0x00032724        0x2 examples/light_switch/server/CMakeFiles/light_switch_server_nrf52840_xxAA_s140_6.0.0.dir/__/__/__/mesh/access/src/access.c.obj
 *fill*         0x00032726        0x2 
 .text.restore_acquired_subscription
                0x00032728       0x24 examples/light_switch/server/CMakeFiles/light_switch_server_nrf52840_xxAA_s140_6.0.0.dir/__/__/__/mesh/access/src/access.c.obj
 .text.restore_acquired_element
                0x0003274c       0x1c examples/light_switch/server/CMakeFiles/light_switch_server_nrf52840_xxAA_s140_6.0.0.dir/__/__/__/mesh/access/src/access.c.obj
 .text.restore_flash_data
                0x00032768       0x50 examples/light_switch/server/CMakeFiles/light_switch_server_nrf52840_xxAA_s140_6.0.0.dir/__/__/__/mesh/access/src/access.c.obj
 .text.flash_invalidate_complete
                0x000327b8        0x6 examples/light_switch/server/CMakeFiles/light_switch_server_nrf52840_xxAA_s140_6.0.0.dir/__/__/__/mesh/access/src/access.c.obj
 *fill*         0x000327be        0x2 
 .text.access_flash_config_clear
                0x000327c0       0x28 examples/light_switch/server/CMakeFiles/light_switch_server_nrf52840_xxAA_s140_6.0.0.dir/__/__/__/mesh/access/src/access.c.obj
 .text.access_flash_config_store
                0x000327e8      0x114 examples/light_switch/server/CMakeFiles/light_switch_server_nrf52840_xxAA_s140_6.0.0.dir/__/__/__/mesh/access/src/access.c.obj
                0x000327e8                access_flash_config_store
 .text.access_state_clear
                0x000328fc       0x48 examples/light_switch/server/CMakeFiles/light_switch_server_nrf52840_xxAA_s140_6.0.0.dir/__/__/__/mesh/access/src/access.c.obj
 .text.flash_write_complete
                0x00032944       0x46 examples/light_switch/server/CMakeFiles/light_switch_server_nrf52840_xxAA_s140_6.0.0.dir/__/__/__/mesh/access/src/access.c.obj
 *fill*         0x0003298a        0x2 
 .text.unlikely.bitfield_next_get.part.0.constprop.5
                0x0003298c       0x34 examples/light_switch/server/CMakeFiles/light_switch_server_nrf52840_xxAA_s140_6.0.0.dir/__/__/__/mesh/access/src/access.c.obj
 .text.packet_tx
                0x000329c0      0x31c examples/light_switch/server/CMakeFiles/light_switch_server_nrf52840_xxAA_s140_6.0.0.dir/__/__/__/mesh/access/src/access.c.obj
 .text.restore_acquired_model
                0x00032cdc       0x84 examples/light_switch/server/CMakeFiles/light_switch_server_nrf52840_xxAA_s140_6.0.0.dir/__/__/__/mesh/access/src/access.c.obj
 .text.access_flash_config_load
                0x00032d60      0x118 examples/light_switch/server/CMakeFiles/light_switch_server_nrf52840_xxAA_s140_6.0.0.dir/__/__/__/mesh/access/src/access.c.obj
                0x00032d60                access_flash_config_load
 .text.access_incoming_handle
                0x00032e78      0x100 examples/light_switch/server/CMakeFiles/light_switch_server_nrf52840_xxAA_s140_6.0.0.dir/__/__/__/mesh/access/src/access.c.obj
                0x00032e78                access_incoming_handle
 .text.mesh_evt_cb
                0x00032f78      0x134 examples/light_switch/server/CMakeFiles/light_switch_server_nrf52840_xxAA_s140_6.0.0.dir/__/__/__/mesh/access/src/access.c.obj
 .text.access_clear
                0x000330ac       0x12 examples/light_switch/server/CMakeFiles/light_switch_server_nrf52840_xxAA_s140_6.0.0.dir/__/__/__/mesh/access/src/access.c.obj
                0x000330ac                access_clear
 *fill*         0x000330be        0x2 
 .text.access_model_add
                0x000330c0      0x1b8 examples/light_switch/server/CMakeFiles/light_switch_server_nrf52840_xxAA_s140_6.0.0.dir/__/__/__/mesh/access/src/access.c.obj
                0x000330c0                access_model_add
 .text.access_model_publish
                0x00033278        0xc examples/light_switch/server/CMakeFiles/light_switch_server_nrf52840_xxAA_s140_6.0.0.dir/__/__/__/mesh/access/src/access.c.obj
                0x00033278                access_model_publish
 .text.access_model_reply
                0x00033284       0x12 examples/light_switch/server/CMakeFiles/light_switch_server_nrf52840_xxAA_s140_6.0.0.dir/__/__/__/mesh/access/src/access.c.obj
                0x00033284                access_model_reply
 *fill*         0x00033296        0x2 
 .text.access_model_publish_address_set
                0x00033298       0x3c examples/light_switch/server/CMakeFiles/light_switch_server_nrf52840_xxAA_s140_6.0.0.dir/__/__/__/mesh/access/src/access.c.obj
                0x00033298                access_model_publish_address_set
 .text.access_model_publish_address_get
                0x000332d4       0x28 examples/light_switch/server/CMakeFiles/light_switch_server_nrf52840_xxAA_s140_6.0.0.dir/__/__/__/mesh/access/src/access.c.obj
                0x000332d4                access_model_publish_address_get
 .text.access_model_publish_retransmit_set
                0x000332fc       0x4c examples/light_switch/server/CMakeFiles/light_switch_server_nrf52840_xxAA_s140_6.0.0.dir/__/__/__/mesh/access/src/access.c.obj
                0x000332fc                access_model_publish_retransmit_set
 .text.access_model_publish_retransmit_get
                0x00033348       0x2c examples/light_switch/server/CMakeFiles/light_switch_server_nrf52840_xxAA_s140_6.0.0.dir/__/__/__/mesh/access/src/access.c.obj
                0x00033348                access_model_publish_retransmit_get
 .text.access_model_publish_period_set
                0x00033374       0x6c examples/light_switch/server/CMakeFiles/light_switch_server_nrf52840_xxAA_s140_6.0.0.dir/__/__/__/mesh/access/src/access.c.obj
                0x00033374                access_model_publish_period_set
 .text.access_model_publish_period_get
                0x000333e0       0x3c examples/light_switch/server/CMakeFiles/light_switch_server_nrf52840_xxAA_s140_6.0.0.dir/__/__/__/mesh/access/src/access.c.obj
                0x000333e0                access_model_publish_period_get
 .text.access_model_subscription_list_alloc
                0x0003341c       0x40 examples/light_switch/server/CMakeFiles/light_switch_server_nrf52840_xxAA_s140_6.0.0.dir/__/__/__/mesh/access/src/access.c.obj
                0x0003341c                access_model_subscription_list_alloc
 .text.access_model_subscription_add
                0x0003345c       0x60 examples/light_switch/server/CMakeFiles/light_switch_server_nrf52840_xxAA_s140_6.0.0.dir/__/__/__/mesh/access/src/access.c.obj
                0x0003345c                access_model_subscription_add
 .text.access_model_subscription_remove
                0x000334bc       0x60 examples/light_switch/server/CMakeFiles/light_switch_server_nrf52840_xxAA_s140_6.0.0.dir/__/__/__/mesh/access/src/access.c.obj
                0x000334bc                access_model_subscription_remove
 .text.access_model_subscriptions_get
                0x0003351c       0x78 examples/light_switch/server/CMakeFiles/light_switch_server_nrf52840_xxAA_s140_6.0.0.dir/__/__/__/mesh/access/src/access.c.obj
                0x0003351c                access_model_subscriptions_get
 .text.access_model_application_bind
                0x00033594       0x50 examples/light_switch/server/CMakeFiles/light_switch_server_nrf52840_xxAA_s140_6.0.0.dir/__/__/__/mesh/access/src/access.c.obj
                0x00033594                access_model_application_bind
 .text.access_model_application_unbind
                0x000335e4       0x50 examples/light_switch/server/CMakeFiles/light_switch_server_nrf52840_xxAA_s140_6.0.0.dir/__/__/__/mesh/access/src/access.c.obj
                0x000335e4                access_model_application_unbind
 .text.access_model_applications_get
                0x00033634       0x58 examples/light_switch/server/CMakeFiles/light_switch_server_nrf52840_xxAA_s140_6.0.0.dir/__/__/__/mesh/access/src/access.c.obj
                0x00033634                access_model_applications_get
 .text.access_model_publish_application_set
                0x0003368c       0x3c examples/light_switch/server/CMakeFiles/light_switch_server_nrf52840_xxAA_s140_6.0.0.dir/__/__/__/mesh/access/src/access.c.obj
                0x0003368c                access_model_publish_application_set
 .text.access_model_publish_application_get
                0x000336c8       0x28 examples/light_switch/server/CMakeFiles/light_switch_server_nrf52840_xxAA_s140_6.0.0.dir/__/__/__/mesh/access/src/access.c.obj
                0x000336c8                access_model_publish_application_get
 .text.access_default_ttl_set
                0x000336f0       0x18 examples/light_switch/server/CMakeFiles/light_switch_server_nrf52840_xxAA_s140_6.0.0.dir/__/__/__/mesh/access/src/access.c.obj
                0x000336f0                access_default_ttl_set
 .text.access_default_ttl_get
                0x00033708        0xc examples/light_switch/server/CMakeFiles/light_switch_server_nrf52840_xxAA_s140_6.0.0.dir/__/__/__/mesh/access/src/access.c.obj
                0x00033708                access_default_ttl_get
 .text.access_model_publish_ttl_set
                0x00033714       0x40 examples/light_switch/server/CMakeFiles/light_switch_server_nrf52840_xxAA_s140_6.0.0.dir/__/__/__/mesh/access/src/access.c.obj
                0x00033714                access_model_publish_ttl_set
 .text.access_model_publish_ttl_get
                0x00033754       0x28 examples/light_switch/server/CMakeFiles/light_switch_server_nrf52840_xxAA_s140_6.0.0.dir/__/__/__/mesh/access/src/access.c.obj
                0x00033754                access_model_publish_ttl_get
 .text.access_element_location_get
                0x0003377c       0x18 examples/light_switch/server/CMakeFiles/light_switch_server_nrf52840_xxAA_s140_6.0.0.dir/__/__/__/mesh/access/src/access.c.obj
                0x0003377c                access_element_location_get
 .text.access_element_sig_model_count_get
                0x00033794       0x18 examples/light_switch/server/CMakeFiles/light_switch_server_nrf52840_xxAA_s140_6.0.0.dir/__/__/__/mesh/access/src/access.c.obj
                0x00033794                access_element_sig_model_count_get
 .text.access_element_vendor_model_count_get
                0x000337ac       0x18 examples/light_switch/server/CMakeFiles/light_switch_server_nrf52840_xxAA_s140_6.0.0.dir/__/__/__/mesh/access/src/access.c.obj
                0x000337ac                access_element_vendor_model_count_get
 .text.access_model_id_get
                0x000337c4       0x2c examples/light_switch/server/CMakeFiles/light_switch_server_nrf52840_xxAA_s140_6.0.0.dir/__/__/__/mesh/access/src/access.c.obj
                0x000337c4                access_model_id_get
 .text.access_handle_get
                0x000337f0       0x4c examples/light_switch/server/CMakeFiles/light_switch_server_nrf52840_xxAA_s140_6.0.0.dir/__/__/__/mesh/access/src/access.c.obj
                0x000337f0                access_handle_get
 .text.access_element_models_get
                0x0003383c       0x48 examples/light_switch/server/CMakeFiles/light_switch_server_nrf52840_xxAA_s140_6.0.0.dir/__/__/__/mesh/access/src/access.c.obj
                0x0003383c                access_element_models_get
 .text.access_model_p_args_get
                0x00033884       0x28 examples/light_switch/server/CMakeFiles/light_switch_server_nrf52840_xxAA_s140_6.0.0.dir/__/__/__/mesh/access/src/access.c.obj
                0x00033884                access_model_p_args_get
 .text.access_model_publication_stop
                0x000338ac       0x74 examples/light_switch/server/CMakeFiles/light_switch_server_nrf52840_xxAA_s140_6.0.0.dir/__/__/__/mesh/access/src/access.c.obj
                0x000338ac                access_model_publication_stop
 .text.access_model_publication_by_appkey_stop
                0x00033920       0x36 examples/light_switch/server/CMakeFiles/light_switch_server_nrf52840_xxAA_s140_6.0.0.dir/__/__/__/mesh/access/src/access.c.obj
                0x00033920                access_model_publication_by_appkey_stop
 .text.access_flash_area_get
                0x00033956        0xc examples/light_switch/server/CMakeFiles/light_switch_server_nrf52840_xxAA_s140_6.0.0.dir/__/__/__/mesh/access/src/access.c.obj
                0x00033956                access_flash_area_get
 *fill*         0x00033962        0x2 
 .text.add_flash_manager
                0x00033964       0x54 examples/light_switch/server/CMakeFiles/light_switch_server_nrf52840_xxAA_s140_6.0.0.dir/__/__/__/mesh/access/src/access.c.obj
 .text.access_init
                0x000339b8       0x2c examples/light_switch/server/CMakeFiles/light_switch_server_nrf52840_xxAA_s140_6.0.0.dir/__/__/__/mesh/access/src/access.c.obj
                0x000339b8                access_init
 .text.flash_remove_complete
                0x000339e4       0x4c examples/light_switch/server/CMakeFiles/light_switch_server_nrf52840_xxAA_s140_6.0.0.dir/__/__/__/mesh/access/src/access.c.obj
 .text.reliable_timer_cb
                0x00033a30      0x11c examples/light_switch/server/CMakeFiles/light_switch_server_nrf52840_xxAA_s140_6.0.0.dir/__/__/__/mesh/access/src/access_reliable.c.obj
 .text.remove_and_reschedule
                0x00033b4c       0xac examples/light_switch/server/CMakeFiles/light_switch_server_nrf52840_xxAA_s140_6.0.0.dir/__/__/__/mesh/access/src/access_reliable.c.obj
 .text.access_reliable_message_rx_cb
                0x00033bf8       0x68 examples/light_switch/server/CMakeFiles/light_switch_server_nrf52840_xxAA_s140_6.0.0.dir/__/__/__/mesh/access/src/access_reliable.c.obj
                0x00033bf8                access_reliable_message_rx_cb
 .text.access_reliable_init
                0x00033c60       0x1c examples/light_switch/server/CMakeFiles/light_switch_server_nrf52840_xxAA_s140_6.0.0.dir/__/__/__/mesh/access/src/access_reliable.c.obj
                0x00033c60                access_reliable_init
 .text.access_reliable_cancel_all
                0x00033c7c       0x60 examples/light_switch/server/CMakeFiles/light_switch_server_nrf52840_xxAA_s140_6.0.0.dir/__/__/__/mesh/access/src/access_reliable.c.obj
                0x00033c7c                access_reliable_cancel_all
 .text.access_model_reliable_cancel
                0x00033cdc       0x68 examples/light_switch/server/CMakeFiles/light_switch_server_nrf52840_xxAA_s140_6.0.0.dir/__/__/__/mesh/access/src/access_reliable.c.obj
                0x00033cdc                access_model_reliable_cancel
 .text.access_loopback_process
                0x00033d44       0x28 examples/light_switch/server/CMakeFiles/light_switch_server_nrf52840_xxAA_s140_6.0.0.dir/__/__/__/mesh/access/src/access_loopback.c.obj
 .text.is_access_loopback
                0x00033d6c        0x4 examples/light_switch/server/CMakeFiles/light_switch_server_nrf52840_xxAA_s140_6.0.0.dir/__/__/__/mesh/access/src/access_loopback.c.obj
                0x00033d6c                is_access_loopback
 .text.access_loopback_init
                0x00033d70       0x18 examples/light_switch/server/CMakeFiles/light_switch_server_nrf52840_xxAA_s140_6.0.0.dir/__/__/__/mesh/access/src/access_loopback.c.obj
                0x00033d70                access_loopback_init
 .text.access_loopback_handle
                0x00033d88       0x80 examples/light_switch/server/CMakeFiles/light_switch_server_nrf52840_xxAA_s140_6.0.0.dir/__/__/__/mesh/access/src/access_loopback.c.obj
                0x00033d88                access_loopback_handle
 .text.bitfield_get
                0x00033e08       0x1a examples/light_switch/server/CMakeFiles/light_switch_server_nrf52840_xxAA_s140_6.0.0.dir/__/__/__/mesh/access/src/device_state_manager.c.obj
 .text.bitfield_set
                0x00033e22       0x18 examples/light_switch/server/CMakeFiles/light_switch_server_nrf52840_xxAA_s140_6.0.0.dir/__/__/__/mesh/access/src/device_state_manager.c.obj
 .text.bitfield_clear
                0x00033e3a       0x1a examples/light_switch/server/CMakeFiles/light_switch_server_nrf52840_xxAA_s140_6.0.0.dir/__/__/__/mesh/access/src/device_state_manager.c.obj
 .text.bitfield_is_all_clear
                0x00033e54       0x3c examples/light_switch/server/CMakeFiles/light_switch_server_nrf52840_xxAA_s140_6.0.0.dir/__/__/__/mesh/access/src/device_state_manager.c.obj
 .text.address_handle_virtual_valid
                0x00033e90       0x14 examples/light_switch/server/CMakeFiles/light_switch_server_nrf52840_xxAA_s140_6.0.0.dir/__/__/__/mesh/access/src/device_state_manager.c.obj
 .text.net_key_handle_get
                0x00033ea4       0x38 examples/light_switch/server/CMakeFiles/light_switch_server_nrf52840_xxAA_s140_6.0.0.dir/__/__/__/mesh/access/src/device_state_manager.c.obj
 .text.dev_key_handle_get
                0x00033edc       0x30 examples/light_switch/server/CMakeFiles/light_switch_server_nrf52840_xxAA_s140_6.0.0.dir/__/__/__/mesh/access/src/device_state_manager.c.obj
 .text.app_key_handle_get
                0x00033f0c       0x38 examples/light_switch/server/CMakeFiles/light_switch_server_nrf52840_xxAA_s140_6.0.0.dir/__/__/__/mesh/access/src/device_state_manager.c.obj
 .text.addr_nonvirtual_to_flash_entry
                0x00033f44       0x10 examples/light_switch/server/CMakeFiles/light_switch_server_nrf52840_xxAA_s140_6.0.0.dir/__/__/__/mesh/access/src/device_state_manager.c.obj
 .text.devkey_set
                0x00033f54       0x4c examples/light_switch/server/CMakeFiles/light_switch_server_nrf52840_xxAA_s140_6.0.0.dir/__/__/__/mesh/access/src/device_state_manager.c.obj
 .text.devkey_to_dsm_entry
                0x00033fa0       0x16 examples/light_switch/server/CMakeFiles/light_switch_server_nrf52840_xxAA_s140_6.0.0.dir/__/__/__/mesh/access/src/device_state_manager.c.obj
 *fill*         0x00033fb6        0x2 
 .text.devkey_to_flash_entry
                0x00033fb8       0x28 examples/light_switch/server/CMakeFiles/light_switch_server_nrf52840_xxAA_s140_6.0.0.dir/__/__/__/mesh/access/src/device_state_manager.c.obj
 .text.addr_virtual_to_flash_entry
                0x00033fe0       0x18 examples/light_switch/server/CMakeFiles/light_switch_server_nrf52840_xxAA_s140_6.0.0.dir/__/__/__/mesh/access/src/device_state_manager.c.obj
 .text.addr_unicast_to_dsm_entry
                0x00033ff8        0xc examples/light_switch/server/CMakeFiles/light_switch_server_nrf52840_xxAA_s140_6.0.0.dir/__/__/__/mesh/access/src/device_state_manager.c.obj
 .text.addr_unicast_to_flash_entry
                0x00034004       0x10 examples/light_switch/server/CMakeFiles/light_switch_server_nrf52840_xxAA_s140_6.0.0.dir/__/__/__/mesh/access/src/device_state_manager.c.obj
 .text.flash_mem_listener_callback
                0x00034014       0x14 examples/light_switch/server/CMakeFiles/light_switch_server_nrf52840_xxAA_s140_6.0.0.dir/__/__/__/mesh/access/src/device_state_manager.c.obj
 .text.get_subnet_handle
                0x00034028       0x34 examples/light_switch/server/CMakeFiles/light_switch_server_nrf52840_xxAA_s140_6.0.0.dir/__/__/__/mesh/access/src/device_state_manager.c.obj
 .text.appkey_set
                0x0003405c       0x70 examples/light_switch/server/CMakeFiles/light_switch_server_nrf52840_xxAA_s140_6.0.0.dir/__/__/__/mesh/access/src/device_state_manager.c.obj
 .text.appkey_to_flash_entry
                0x000340cc       0x54 examples/light_switch/server/CMakeFiles/light_switch_server_nrf52840_xxAA_s140_6.0.0.dir/__/__/__/mesh/access/src/device_state_manager.c.obj
 .text.subnet_to_flash_entry
                0x00034120       0x60 examples/light_switch/server/CMakeFiles/light_switch_server_nrf52840_xxAA_s140_6.0.0.dir/__/__/__/mesh/access/src/device_state_manager.c.obj
 .text.bitfield_clear_all
                0x00034180        0xe examples/light_switch/server/CMakeFiles/light_switch_server_nrf52840_xxAA_s140_6.0.0.dir/__/__/__/mesh/access/src/device_state_manager.c.obj
 *fill*         0x0003418e        0x2 
 .text.subnet_set
                0x00034190       0x98 examples/light_switch/server/CMakeFiles/light_switch_server_nrf52840_xxAA_s140_6.0.0.dir/__/__/__/mesh/access/src/device_state_manager.c.obj
 .text.virtual_address_set
                0x00034228       0x48 examples/light_switch/server/CMakeFiles/light_switch_server_nrf52840_xxAA_s140_6.0.0.dir/__/__/__/mesh/access/src/device_state_manager.c.obj
 .text.addr_virtual_to_dsm_entry
                0x00034270        0xc examples/light_switch/server/CMakeFiles/light_switch_server_nrf52840_xxAA_s140_6.0.0.dir/__/__/__/mesh/access/src/device_state_manager.c.obj
 .text.reset_flash_area
                0x0003427c       0x28 examples/light_switch/server/CMakeFiles/light_switch_server_nrf52840_xxAA_s140_6.0.0.dir/__/__/__/mesh/access/src/device_state_manager.c.obj
 .text.flash_save
                0x000342a4       0x7c examples/light_switch/server/CMakeFiles/light_switch_server_nrf52840_xxAA_s140_6.0.0.dir/__/__/__/mesh/access/src/device_state_manager.c.obj
 .text.flash_invalidate
                0x00034320       0x64 examples/light_switch/server/CMakeFiles/light_switch_server_nrf52840_xxAA_s140_6.0.0.dir/__/__/__/mesh/access/src/device_state_manager.c.obj
 .text.flash_update_all
                0x00034384       0x6c examples/light_switch/server/CMakeFiles/light_switch_server_nrf52840_xxAA_s140_6.0.0.dir/__/__/__/mesh/access/src/device_state_manager.c.obj
 .text.virtual_address_uuid_index_get
                0x000343f0       0x3c examples/light_switch/server/CMakeFiles/light_switch_server_nrf52840_xxAA_s140_6.0.0.dir/__/__/__/mesh/access/src/device_state_manager.c.obj
 .text.add_address_virtual
                0x0003442c       0x70 examples/light_switch/server/CMakeFiles/light_switch_server_nrf52840_xxAA_s140_6.0.0.dir/__/__/__/mesh/access/src/device_state_manager.c.obj
 .text.get_subnet_handle_by_beacon_info
                0x0003449c       0x24 examples/light_switch/server/CMakeFiles/light_switch_server_nrf52840_xxAA_s140_6.0.0.dir/__/__/__/mesh/access/src/device_state_manager.c.obj
 .text.get_app_handle
                0x000344c0       0x34 examples/light_switch/server/CMakeFiles/light_switch_server_nrf52840_xxAA_s140_6.0.0.dir/__/__/__/mesh/access/src/device_state_manager.c.obj
 .text.appkey_to_dsm_entry
                0x000344f4       0x68 examples/light_switch/server/CMakeFiles/light_switch_server_nrf52840_xxAA_s140_6.0.0.dir/__/__/__/mesh/access/src/device_state_manager.c.obj
 .text.subnet_to_dsm_entry
                0x0003455c       0x68 examples/light_switch/server/CMakeFiles/light_switch_server_nrf52840_xxAA_s140_6.0.0.dir/__/__/__/mesh/access/src/device_state_manager.c.obj
 .text.flash_operation_complete
                0x000345c4       0x4c examples/light_switch/server/CMakeFiles/light_switch_server_nrf52840_xxAA_s140_6.0.0.dir/__/__/__/mesh/access/src/device_state_manager.c.obj
 .text.flash_invalidate_complete
                0x00034610        0x8 examples/light_switch/server/CMakeFiles/light_switch_server_nrf52840_xxAA_s140_6.0.0.dir/__/__/__/mesh/access/src/device_state_manager.c.obj
 .text.flash_write_complete
                0x00034618        0x8 examples/light_switch/server/CMakeFiles/light_switch_server_nrf52840_xxAA_s140_6.0.0.dir/__/__/__/mesh/access/src/device_state_manager.c.obj
 .text.add_address.part.8
                0x00034620      0x144 examples/light_switch/server/CMakeFiles/light_switch_server_nrf52840_xxAA_s140_6.0.0.dir/__/__/__/mesh/access/src/device_state_manager.c.obj
 .text.bitfield_next_get.part.0.constprop.17
                0x00034764       0x38 examples/light_switch/server/CMakeFiles/light_switch_server_nrf52840_xxAA_s140_6.0.0.dir/__/__/__/mesh/access/src/device_state_manager.c.obj
 .text.address_handle_valid
                0x0003479c       0x28 examples/light_switch/server/CMakeFiles/light_switch_server_nrf52840_xxAA_s140_6.0.0.dir/__/__/__/mesh/access/src/device_state_manager.c.obj
 .text.address_handle_nonvirtual_valid
                0x000347c4       0x14 examples/light_switch/server/CMakeFiles/light_switch_server_nrf52840_xxAA_s140_6.0.0.dir/__/__/__/mesh/access/src/device_state_manager.c.obj
 .text.address_delete_if_unused
                0x000347d8       0x78 examples/light_switch/server/CMakeFiles/light_switch_server_nrf52840_xxAA_s140_6.0.0.dir/__/__/__/mesh/access/src/device_state_manager.c.obj
 .text.addr_nonvirtual_to_dsm_entry
                0x00034850       0x38 examples/light_switch/server/CMakeFiles/light_switch_server_nrf52840_xxAA_s140_6.0.0.dir/__/__/__/mesh/access/src/device_state_manager.c.obj
 .text.dsm_flash_config_load
                0x00034888      0x120 examples/light_switch/server/CMakeFiles/light_switch_server_nrf52840_xxAA_s140_6.0.0.dir/__/__/__/mesh/access/src/device_state_manager.c.obj
                0x00034888                dsm_flash_config_load
 .text.dsm_flash_area_get
                0x000349a8        0xc examples/light_switch/server/CMakeFiles/light_switch_server_nrf52840_xxAA_s140_6.0.0.dir/__/__/__/mesh/access/src/device_state_manager.c.obj
                0x000349a8                dsm_flash_area_get
 .text.build_flash_area
                0x000349b4       0x8c examples/light_switch/server/CMakeFiles/light_switch_server_nrf52840_xxAA_s140_6.0.0.dir/__/__/__/mesh/access/src/device_state_manager.c.obj
 .text.flash_remove_complete
                0x00034a40        0x4 examples/light_switch/server/CMakeFiles/light_switch_server_nrf52840_xxAA_s140_6.0.0.dir/__/__/__/mesh/access/src/device_state_manager.c.obj
 .text.dsm_clear
                0x00034a44       0xa4 examples/light_switch/server/CMakeFiles/light_switch_server_nrf52840_xxAA_s140_6.0.0.dir/__/__/__/mesh/access/src/device_state_manager.c.obj
                0x00034a44                dsm_clear
 .text.dsm_init
                0x00034ae8       0x3c examples/light_switch/server/CMakeFiles/light_switch_server_nrf52840_xxAA_s140_6.0.0.dir/__/__/__/mesh/access/src/device_state_manager.c.obj
                0x00034ae8                dsm_init
 .text.dsm_local_unicast_addresses_set
                0x00034b24       0x78 examples/light_switch/server/CMakeFiles/light_switch_server_nrf52840_xxAA_s140_6.0.0.dir/__/__/__/mesh/access/src/device_state_manager.c.obj
                0x00034b24                dsm_local_unicast_addresses_set
 .text.dsm_local_unicast_addresses_get
                0x00034b9c       0x20 examples/light_switch/server/CMakeFiles/light_switch_server_nrf52840_xxAA_s140_6.0.0.dir/__/__/__/mesh/access/src/device_state_manager.c.obj
                0x00034b9c                dsm_local_unicast_addresses_get
 .text.dsm_address_publish_add
                0x00034bbc        0xc examples/light_switch/server/CMakeFiles/light_switch_server_nrf52840_xxAA_s140_6.0.0.dir/__/__/__/mesh/access/src/device_state_manager.c.obj
                0x00034bbc                dsm_address_publish_add
 .text.dsm_address_publish_add_handle
                0x00034bc8       0x38 examples/light_switch/server/CMakeFiles/light_switch_server_nrf52840_xxAA_s140_6.0.0.dir/__/__/__/mesh/access/src/device_state_manager.c.obj
                0x00034bc8                dsm_address_publish_add_handle
 .text.dsm_address_publish_virtual_add
                0x00034c00        0x6 examples/light_switch/server/CMakeFiles/light_switch_server_nrf52840_xxAA_s140_6.0.0.dir/__/__/__/mesh/access/src/device_state_manager.c.obj
                0x00034c00                dsm_address_publish_virtual_add
 *fill*         0x00034c06        0x2 
 .text.dsm_address_publish_remove
                0x00034c08       0x40 examples/light_switch/server/CMakeFiles/light_switch_server_nrf52840_xxAA_s140_6.0.0.dir/__/__/__/mesh/access/src/device_state_manager.c.obj
                0x00034c08                dsm_address_publish_remove
 .text.dsm_address_subscription_add
                0x00034c48        0xc examples/light_switch/server/CMakeFiles/light_switch_server_nrf52840_xxAA_s140_6.0.0.dir/__/__/__/mesh/access/src/device_state_manager.c.obj
                0x00034c48                dsm_address_subscription_add
 .text.dsm_address_subscription_virtual_add
                0x00034c54        0x6 examples/light_switch/server/CMakeFiles/light_switch_server_nrf52840_xxAA_s140_6.0.0.dir/__/__/__/mesh/access/src/device_state_manager.c.obj
                0x00034c54                dsm_address_subscription_virtual_add
 *fill*         0x00034c5a        0x2 
 .text.dsm_address_subscription_add_handle
                0x00034c5c       0x38 examples/light_switch/server/CMakeFiles/light_switch_server_nrf52840_xxAA_s140_6.0.0.dir/__/__/__/mesh/access/src/device_state_manager.c.obj
                0x00034c5c                dsm_address_subscription_add_handle
 .text.dsm_address_get
                0x00034c94       0x5c examples/light_switch/server/CMakeFiles/light_switch_server_nrf52840_xxAA_s140_6.0.0.dir/__/__/__/mesh/access/src/device_state_manager.c.obj
                0x00034c94                dsm_address_get
 .text.dsm_address_subscription_remove
                0x00034cf0       0x58 examples/light_switch/server/CMakeFiles/light_switch_server_nrf52840_xxAA_s140_6.0.0.dir/__/__/__/mesh/access/src/device_state_manager.c.obj
                0x00034cf0                dsm_address_subscription_remove
 .text.dsm_address_handle_get
                0x00034d48       0x98 examples/light_switch/server/CMakeFiles/light_switch_server_nrf52840_xxAA_s140_6.0.0.dir/__/__/__/mesh/access/src/device_state_manager.c.obj
                0x00034d48                dsm_address_handle_get
 .text.dsm_net_key_index_to_subnet_handle
                0x00034de0       0x1c examples/light_switch/server/CMakeFiles/light_switch_server_nrf52840_xxAA_s140_6.0.0.dir/__/__/__/mesh/access/src/device_state_manager.c.obj
                0x00034de0                dsm_net_key_index_to_subnet_handle
 .text.dsm_subnet_handle_get
                0x00034dfc        0xc examples/light_switch/server/CMakeFiles/light_switch_server_nrf52840_xxAA_s140_6.0.0.dir/__/__/__/mesh/access/src/device_state_manager.c.obj
                0x00034dfc                dsm_subnet_handle_get
 .text.dsm_appkey_index_to_appkey_handle
                0x00034e08       0x1c examples/light_switch/server/CMakeFiles/light_switch_server_nrf52840_xxAA_s140_6.0.0.dir/__/__/__/mesh/access/src/device_state_manager.c.obj
                0x00034e08                dsm_appkey_index_to_appkey_handle
 .text.dsm_appkey_handle_get
                0x00034e24        0xc examples/light_switch/server/CMakeFiles/light_switch_server_nrf52840_xxAA_s140_6.0.0.dir/__/__/__/mesh/access/src/device_state_manager.c.obj
                0x00034e24                dsm_appkey_handle_get
 .text.dsm_appkey_handle_to_appkey_index
                0x00034e30       0x30 examples/light_switch/server/CMakeFiles/light_switch_server_nrf52840_xxAA_s140_6.0.0.dir/__/__/__/mesh/access/src/device_state_manager.c.obj
                0x00034e30                dsm_appkey_handle_to_appkey_index
 .text.dsm_appkey_handle_to_subnet_handle
                0x00034e60       0x64 examples/light_switch/server/CMakeFiles/light_switch_server_nrf52840_xxAA_s140_6.0.0.dir/__/__/__/mesh/access/src/device_state_manager.c.obj
                0x00034e60                dsm_appkey_handle_to_subnet_handle
 .text.dsm_subnet_add
                0x00034ec4       0x78 examples/light_switch/server/CMakeFiles/light_switch_server_nrf52840_xxAA_s140_6.0.0.dir/__/__/__/mesh/access/src/device_state_manager.c.obj
                0x00034ec4                dsm_subnet_add
 .text.dsm_subnet_kr_phase_get
                0x00034f3c       0x2c examples/light_switch/server/CMakeFiles/light_switch_server_nrf52840_xxAA_s140_6.0.0.dir/__/__/__/mesh/access/src/device_state_manager.c.obj
                0x00034f3c                dsm_subnet_kr_phase_get
 .text.dsm_subnet_update
                0x00034f68       0xa4 examples/light_switch/server/CMakeFiles/light_switch_server_nrf52840_xxAA_s140_6.0.0.dir/__/__/__/mesh/access/src/device_state_manager.c.obj
                0x00034f68                dsm_subnet_update
 .text.dsm_subnet_update_swap_keys
                0x0003500c       0x50 examples/light_switch/server/CMakeFiles/light_switch_server_nrf52840_xxAA_s140_6.0.0.dir/__/__/__/mesh/access/src/device_state_manager.c.obj
                0x0003500c                dsm_subnet_update_swap_keys
 .text.dsm_subnet_update_commit
                0x0003505c       0xbc examples/light_switch/server/CMakeFiles/light_switch_server_nrf52840_xxAA_s140_6.0.0.dir/__/__/__/mesh/access/src/device_state_manager.c.obj
                0x0003505c                dsm_subnet_update_commit
 .text.mesh_evt_handler
                0x00035118       0x4c examples/light_switch/server/CMakeFiles/light_switch_server_nrf52840_xxAA_s140_6.0.0.dir/__/__/__/mesh/access/src/device_state_manager.c.obj
 .text.dsm_subnet_get_all
                0x00035164       0x3c examples/light_switch/server/CMakeFiles/light_switch_server_nrf52840_xxAA_s140_6.0.0.dir/__/__/__/mesh/access/src/device_state_manager.c.obj
                0x00035164                dsm_subnet_get_all
 .text.dsm_devkey_add
                0x000351a0       0x78 examples/light_switch/server/CMakeFiles/light_switch_server_nrf52840_xxAA_s140_6.0.0.dir/__/__/__/mesh/access/src/device_state_manager.c.obj
                0x000351a0                dsm_devkey_add
 .text.dsm_appkey_add
                0x00035218       0x7c examples/light_switch/server/CMakeFiles/light_switch_server_nrf52840_xxAA_s140_6.0.0.dir/__/__/__/mesh/access/src/device_state_manager.c.obj
                0x00035218                dsm_appkey_add
 .text.dsm_appkey_update
                0x00035294       0x90 examples/light_switch/server/CMakeFiles/light_switch_server_nrf52840_xxAA_s140_6.0.0.dir/__/__/__/mesh/access/src/device_state_manager.c.obj
                0x00035294                dsm_appkey_update
 .text.dsm_appkey_delete
                0x00035324       0x2c examples/light_switch/server/CMakeFiles/light_switch_server_nrf52840_xxAA_s140_6.0.0.dir/__/__/__/mesh/access/src/device_state_manager.c.obj
                0x00035324                dsm_appkey_delete
 .text.dsm_subnet_delete
                0x00035350       0x84 examples/light_switch/server/CMakeFiles/light_switch_server_nrf52840_xxAA_s140_6.0.0.dir/__/__/__/mesh/access/src/device_state_manager.c.obj
                0x00035350                dsm_subnet_delete
 .text.dsm_appkey_get_all
                0x000353d4       0x58 examples/light_switch/server/CMakeFiles/light_switch_server_nrf52840_xxAA_s140_6.0.0.dir/__/__/__/mesh/access/src/device_state_manager.c.obj
                0x000353d4                dsm_appkey_get_all
 .text.dsm_tx_secmat_get
                0x0003542c       0xa4 examples/light_switch/server/CMakeFiles/light_switch_server_nrf52840_xxAA_s140_6.0.0.dir/__/__/__/mesh/access/src/device_state_manager.c.obj
                0x0003542c                dsm_tx_secmat_get
 .text.dsm_net_secmat_from_keyindex_get
                0x000354d0       0x30 examples/light_switch/server/CMakeFiles/light_switch_server_nrf52840_xxAA_s140_6.0.0.dir/__/__/__/mesh/access/src/device_state_manager.c.obj
                0x000354d0                dsm_net_secmat_from_keyindex_get
 .text.nrf_mesh_net_secmat_next_get
                0x00035500       0x90 examples/light_switch/server/CMakeFiles/light_switch_server_nrf52840_xxAA_s140_6.0.0.dir/__/__/__/mesh/access/src/device_state_manager.c.obj
                0x00035500                nrf_mesh_net_secmat_next_get
 .text.nrf_mesh_app_secmat_next_get
                0x00035590       0x70 examples/light_switch/server/CMakeFiles/light_switch_server_nrf52840_xxAA_s140_6.0.0.dir/__/__/__/mesh/access/src/device_state_manager.c.obj
                0x00035590                nrf_mesh_app_secmat_next_get
 .text.nrf_mesh_devkey_secmat_get
                0x00035600       0x28 examples/light_switch/server/CMakeFiles/light_switch_server_nrf52840_xxAA_s140_6.0.0.dir/__/__/__/mesh/access/src/device_state_manager.c.obj
                0x00035600                nrf_mesh_devkey_secmat_get
 .text.nrf_mesh_beacon_info_next_get
                0x00035628       0xb4 examples/light_switch/server/CMakeFiles/light_switch_server_nrf52840_xxAA_s140_6.0.0.dir/__/__/__/mesh/access/src/device_state_manager.c.obj
                0x00035628                nrf_mesh_beacon_info_next_get
 .text.nrf_mesh_rx_address_get
                0x000356dc      0x12c examples/light_switch/server/CMakeFiles/light_switch_server_nrf52840_xxAA_s140_6.0.0.dir/__/__/__/mesh/access/src/device_state_manager.c.obj
                0x000356dc                nrf_mesh_rx_address_get
 .text.dsm_address_is_rx
                0x00035808       0x48 examples/light_switch/server/CMakeFiles/light_switch_server_nrf52840_xxAA_s140_6.0.0.dir/__/__/__/mesh/access/src/device_state_manager.c.obj
                0x00035808                dsm_address_is_rx
 .text.nrf_mesh_unicast_address_get
                0x00035850       0x20 examples/light_switch/server/CMakeFiles/light_switch_server_nrf52840_xxAA_s140_6.0.0.dir/__/__/__/mesh/access/src/device_state_manager.c.obj
                0x00035850                nrf_mesh_unicast_address_get
 .text.complete_provisioning
                0x00035870       0x24 examples/light_switch/server/CMakeFiles/light_switch_server_nrf52840_xxAA_s140_6.0.0.dir/__/__/__/mesh/prov/src/prov_provisionee.c.obj
 .text.prov_provisionee_cb_link_established
                0x00035894       0x36 examples/light_switch/server/CMakeFiles/light_switch_server_nrf52840_xxAA_s140_6.0.0.dir/__/__/__/mesh/prov/src/prov_provisionee.c.obj
 .text.prov_provisionee_cb_link_closed
                0x000358ca       0x34 examples/light_switch/server/CMakeFiles/light_switch_server_nrf52840_xxAA_s140_6.0.0.dir/__/__/__/mesh/prov/src/prov_provisionee.c.obj
 .text.request_authentication
                0x000358fe       0x8a examples/light_switch/server/CMakeFiles/light_switch_server_nrf52840_xxAA_s140_6.0.0.dir/__/__/__/mesh/prov/src/prov_provisionee.c.obj
 .text.send_failed
                0x00035988       0x3a examples/light_switch/server/CMakeFiles/light_switch_server_nrf52840_xxAA_s140_6.0.0.dir/__/__/__/mesh/prov/src/prov_provisionee.c.obj
 .text.start_authentication
                0x000359c2       0x52 examples/light_switch/server/CMakeFiles/light_switch_server_nrf52840_xxAA_s140_6.0.0.dir/__/__/__/mesh/prov/src/prov_provisionee.c.obj
 .text.prov_provisionee_cb_ack_received
                0x00035a14       0xc8 examples/light_switch/server/CMakeFiles/light_switch_server_nrf52840_xxAA_s140_6.0.0.dir/__/__/__/mesh/prov/src/prov_provisionee.c.obj
 .text.prov_provisionee_pkt_in
                0x00035adc      0x350 examples/light_switch/server/CMakeFiles/light_switch_server_nrf52840_xxAA_s140_6.0.0.dir/__/__/__/mesh/prov/src/prov_provisionee.c.obj
 .text.prov_provisionee_listen
                0x00035e2c       0x30 examples/light_switch/server/CMakeFiles/light_switch_server_nrf52840_xxAA_s140_6.0.0.dir/__/__/__/mesh/prov/src/prov_provisionee.c.obj
                0x00035e2c                prov_provisionee_listen
 .text.prov_provisionee_auth_data
                0x00035e5c       0x98 examples/light_switch/server/CMakeFiles/light_switch_server_nrf52840_xxAA_s140_6.0.0.dir/__/__/__/mesh/prov/src/prov_provisionee.c.obj
                0x00035e5c                prov_provisionee_auth_data
 .text.bearer_compare_callback
                0x00035ef4        0xc examples/light_switch/server/CMakeFiles/light_switch_server_nrf52840_xxAA_s140_6.0.0.dir/__/__/__/mesh/prov/src/nrf_mesh_prov.c.obj
 .text.bitfield_next_get.part.0.constprop.4
                0x00035f00       0x34 examples/light_switch/server/CMakeFiles/light_switch_server_nrf52840_xxAA_s140_6.0.0.dir/__/__/__/mesh/prov/src/nrf_mesh_prov.c.obj
 .text.nrf_mesh_prov_init
                0x00035f34       0x32 examples/light_switch/server/CMakeFiles/light_switch_server_nrf52840_xxAA_s140_6.0.0.dir/__/__/__/mesh/prov/src/nrf_mesh_prov.c.obj
                0x00035f34                nrf_mesh_prov_init
 *fill*         0x00035f66        0x2 
 .text.nrf_mesh_prov_bearer_add
                0x00035f68       0x28 examples/light_switch/server/CMakeFiles/light_switch_server_nrf52840_xxAA_s140_6.0.0.dir/__/__/__/mesh/prov/src/nrf_mesh_prov.c.obj
                0x00035f68                nrf_mesh_prov_bearer_add
 .text.nrf_mesh_prov_generate_keys
                0x00035f90        0x4 examples/light_switch/server/CMakeFiles/light_switch_server_nrf52840_xxAA_s140_6.0.0.dir/__/__/__/mesh/prov/src/nrf_mesh_prov.c.obj
                0x00035f90                nrf_mesh_prov_generate_keys
 .text.nrf_mesh_prov_listen_stop
                0x00035f94       0x2e examples/light_switch/server/CMakeFiles/light_switch_server_nrf52840_xxAA_s140_6.0.0.dir/__/__/__/mesh/prov/src/nrf_mesh_prov.c.obj
                0x00035f94                nrf_mesh_prov_listen_stop
 .text.nrf_mesh_prov_listen
                0x00035fc2       0x88 examples/light_switch/server/CMakeFiles/light_switch_server_nrf52840_xxAA_s140_6.0.0.dir/__/__/__/mesh/prov/src/nrf_mesh_prov.c.obj
                0x00035fc2                nrf_mesh_prov_listen
 .text.nrf_mesh_prov_auth_data_provide
                0x0003604a        0xe examples/light_switch/server/CMakeFiles/light_switch_server_nrf52840_xxAA_s140_6.0.0.dir/__/__/__/mesh/prov/src/nrf_mesh_prov.c.obj
                0x0003604a                nrf_mesh_prov_auth_data_provide
 .text.send_data
                0x00036058       0x28 examples/light_switch/server/CMakeFiles/light_switch_server_nrf52840_xxAA_s140_6.0.0.dir/__/__/__/mesh/prov/src/provisioning.c.obj
 .text.prov_packet_length_valid
                0x00036080       0x1c examples/light_switch/server/CMakeFiles/light_switch_server_nrf52840_xxAA_s140_6.0.0.dir/__/__/__/mesh/prov/src/provisioning.c.obj
                0x00036080                prov_packet_length_valid
 .text.prov_tx_capabilities
                0x0003609c       0x1e examples/light_switch/server/CMakeFiles/light_switch_server_nrf52840_xxAA_s140_6.0.0.dir/__/__/__/mesh/prov/src/provisioning.c.obj
                0x0003609c                prov_tx_capabilities
 .text.prov_tx_public_key
                0x000360ba       0x26 examples/light_switch/server/CMakeFiles/light_switch_server_nrf52840_xxAA_s140_6.0.0.dir/__/__/__/mesh/prov/src/provisioning.c.obj
                0x000360ba                prov_tx_public_key
 .text.prov_tx_input_complete
                0x000360e0       0x16 examples/light_switch/server/CMakeFiles/light_switch_server_nrf52840_xxAA_s140_6.0.0.dir/__/__/__/mesh/prov/src/provisioning.c.obj
                0x000360e0                prov_tx_input_complete
 .text.prov_tx_confirmation
                0x000360f6       0x26 examples/light_switch/server/CMakeFiles/light_switch_server_nrf52840_xxAA_s140_6.0.0.dir/__/__/__/mesh/prov/src/provisioning.c.obj
                0x000360f6                prov_tx_confirmation
 .text.prov_tx_random
                0x0003611c       0x26 examples/light_switch/server/CMakeFiles/light_switch_server_nrf52840_xxAA_s140_6.0.0.dir/__/__/__/mesh/prov/src/provisioning.c.obj
                0x0003611c                prov_tx_random
 .text.prov_tx_complete
                0x00036142       0x16 examples/light_switch/server/CMakeFiles/light_switch_server_nrf52840_xxAA_s140_6.0.0.dir/__/__/__/mesh/prov/src/provisioning.c.obj
                0x00036142                prov_tx_complete
 .text.prov_tx_failed
                0x00036158       0x1a examples/light_switch/server/CMakeFiles/light_switch_server_nrf52840_xxAA_s140_6.0.0.dir/__/__/__/mesh/prov/src/provisioning.c.obj
                0x00036158                prov_tx_failed
 .text.prov_beacon_unprov_build
                0x00036172       0x54 examples/light_switch/server/CMakeFiles/light_switch_server_nrf52840_xxAA_s140_6.0.0.dir/__/__/__/mesh/prov/src/prov_beacon.c.obj
                0x00036172                prov_beacon_unprov_build
 *fill*         0x000361c6        0x2 
 .text.prov_beacon_unprov_packet_in
                0x000361c8       0x88 examples/light_switch/server/CMakeFiles/light_switch_server_nrf52840_xxAA_s140_6.0.0.dir/__/__/__/mesh/prov/src/prov_beacon.c.obj
                0x000361c8                prov_beacon_unprov_packet_in
 .text.ecdh_offloading_get
                0x00036250       0x1c examples/light_switch/server/CMakeFiles/light_switch_server_nrf52840_xxAA_s140_6.0.0.dir/__/__/__/mesh/prov/src/prov_utils.c.obj
 .text.ecdh_offloading_set
                0x0003626c       0x1c examples/light_switch/server/CMakeFiles/light_switch_server_nrf52840_xxAA_s140_6.0.0.dir/__/__/__/mesh/prov/src/prov_utils.c.obj
 .text.oob_gen_numeric
                0x00036288       0x3c examples/light_switch/server/CMakeFiles/light_switch_server_nrf52840_xxAA_s140_6.0.0.dir/__/__/__/mesh/prov/src/prov_utils.c.obj
 .text.oob_gen_alphanumeric
                0x000362c4       0x34 examples/light_switch/server/CMakeFiles/light_switch_server_nrf52840_xxAA_s140_6.0.0.dir/__/__/__/mesh/prov/src/prov_utils.c.obj
 .text.prov_utils_authentication_values_derive
                0x000362f8       0xa0 examples/light_switch/server/CMakeFiles/light_switch_server_nrf52840_xxAA_s140_6.0.0.dir/__/__/__/mesh/prov/src/prov_utils.c.obj
                0x000362f8                prov_utils_authentication_values_derive
 .text.prov_utils_keys_generate
                0x00036398       0x1e examples/light_switch/server/CMakeFiles/light_switch_server_nrf52840_xxAA_s140_6.0.0.dir/__/__/__/mesh/prov/src/prov_utils.c.obj
                0x00036398                prov_utils_keys_generate
 *fill*         0x000363b6        0x2 
 .text.prov_utils_derive_keys
                0x000363b8       0xac examples/light_switch/server/CMakeFiles/light_switch_server_nrf52840_xxAA_s140_6.0.0.dir/__/__/__/mesh/prov/src/prov_utils.c.obj
                0x000363b8                prov_utils_derive_keys
 .text.prov_utils_calculate_shared_secret
                0x00036464       0x36 examples/light_switch/server/CMakeFiles/light_switch_server_nrf52840_xxAA_s140_6.0.0.dir/__/__/__/mesh/prov/src/prov_utils.c.obj
                0x00036464                prov_utils_calculate_shared_secret
 .text.prov_utils_generate_oob_data
                0x0003649a       0x8a examples/light_switch/server/CMakeFiles/light_switch_server_nrf52840_xxAA_s140_6.0.0.dir/__/__/__/mesh/prov/src/prov_utils.c.obj
                0x0003649a                prov_utils_generate_oob_data
 .text.prov_utils_confirmation_check
                0x00036524       0x5c examples/light_switch/server/CMakeFiles/light_switch_server_nrf52840_xxAA_s140_6.0.0.dir/__/__/__/mesh/prov/src/prov_utils.c.obj
                0x00036524                prov_utils_confirmation_check
 .text.mesh_opt_prov_ecdh_offloading_get
                0x00036580       0x10 examples/light_switch/server/CMakeFiles/light_switch_server_nrf52840_xxAA_s140_6.0.0.dir/__/__/__/mesh/prov/src/prov_utils.c.obj
                0x00036580                mesh_opt_prov_ecdh_offloading_get
 .text.prov_utils_use_ecdh_offloading
                0x00036590       0x1c examples/light_switch/server/CMakeFiles/light_switch_server_nrf52840_xxAA_s140_6.0.0.dir/__/__/__/mesh/prov/src/prov_utils.c.obj
                0x00036590                prov_utils_use_ecdh_offloading
 .text.link_timeout_cb
                0x000365ac       0x10 examples/light_switch/server/CMakeFiles/light_switch_server_nrf52840_xxAA_s140_6.0.0.dir/__/__/__/mesh/prov/src/prov_bearer_adv.c.obj
 .text.remove_active_bearer
                0x000365bc       0x4c examples/light_switch/server/CMakeFiles/light_switch_server_nrf52840_xxAA_s140_6.0.0.dir/__/__/__/mesh/prov/src/prov_bearer_adv.c.obj
 .text.close_link
                0x00036608       0x58 examples/light_switch/server/CMakeFiles/light_switch_server_nrf52840_xxAA_s140_6.0.0.dir/__/__/__/mesh/prov/src/prov_bearer_adv.c.obj
 .text.prov_bearer_adv_listen_stop
                0x00036660       0x30 examples/light_switch/server/CMakeFiles/light_switch_server_nrf52840_xxAA_s140_6.0.0.dir/__/__/__/mesh/prov/src/prov_bearer_adv.c.obj
 .text.send_packet
                0x00036690       0x5e examples/light_switch/server/CMakeFiles/light_switch_server_nrf52840_xxAA_s140_6.0.0.dir/__/__/__/mesh/prov/src/prov_bearer_adv.c.obj
 .text.prov_buffer_tx
                0x000366ee      0x134 examples/light_switch/server/CMakeFiles/light_switch_server_nrf52840_xxAA_s140_6.0.0.dir/__/__/__/mesh/prov/src/prov_bearer_adv.c.obj
 .text.send_link_close
                0x00036822       0x38 examples/light_switch/server/CMakeFiles/light_switch_server_nrf52840_xxAA_s140_6.0.0.dir/__/__/__/mesh/prov/src/prov_bearer_adv.c.obj
 .text.prov_bearer_adv_link_close
                0x0003685a       0x56 examples/light_switch/server/CMakeFiles/light_switch_server_nrf52840_xxAA_s140_6.0.0.dir/__/__/__/mesh/prov/src/prov_bearer_adv.c.obj
 .text.send_transaction_ack
                0x000368b0       0x24 examples/light_switch/server/CMakeFiles/light_switch_server_nrf52840_xxAA_s140_6.0.0.dir/__/__/__/mesh/prov/src/prov_bearer_adv.c.obj
 .text.send_link_ack
                0x000368d4       0x32 examples/light_switch/server/CMakeFiles/light_switch_server_nrf52840_xxAA_s140_6.0.0.dir/__/__/__/mesh/prov/src/prov_bearer_adv.c.obj
 .text.reset_timeout_timer
                0x00036906       0x1a examples/light_switch/server/CMakeFiles/light_switch_server_nrf52840_xxAA_s140_6.0.0.dir/__/__/__/mesh/prov/src/prov_bearer_adv.c.obj
 .text.init_bearer_structure
                0x00036920       0x5c examples/light_switch/server/CMakeFiles/light_switch_server_nrf52840_xxAA_s140_6.0.0.dir/__/__/__/mesh/prov/src/prov_bearer_adv.c.obj
 .text.tx_complete_cb
                0x0003697c       0x1c examples/light_switch/server/CMakeFiles/light_switch_server_nrf52840_xxAA_s140_6.0.0.dir/__/__/__/mesh/prov/src/prov_bearer_adv.c.obj
 .text.tx_retry_cb
                0x00036998       0xcc examples/light_switch/server/CMakeFiles/light_switch_server_nrf52840_xxAA_s140_6.0.0.dir/__/__/__/mesh/prov/src/prov_bearer_adv.c.obj
 .text.add_active_bearer
                0x00036a64       0x80 examples/light_switch/server/CMakeFiles/light_switch_server_nrf52840_xxAA_s140_6.0.0.dir/__/__/__/mesh/prov/src/prov_bearer_adv.c.obj
 .text.prov_bearer_adv_link_open
                0x00036ae4       0x9c examples/light_switch/server/CMakeFiles/light_switch_server_nrf52840_xxAA_s140_6.0.0.dir/__/__/__/mesh/prov/src/prov_bearer_adv.c.obj
 .text.prov_bearer_adv_listen
                0x00036b80       0x86 examples/light_switch/server/CMakeFiles/light_switch_server_nrf52840_xxAA_s140_6.0.0.dir/__/__/__/mesh/prov/src/prov_bearer_adv.c.obj
 *fill*         0x00036c06        0x2 
 .text.async_process
                0x00036c08       0x50 examples/light_switch/server/CMakeFiles/light_switch_server_nrf52840_xxAA_s140_6.0.0.dir/__/__/__/mesh/prov/src/prov_bearer_adv.c.obj
 .text.calculate_3GPP_CRC
                0x00036c58       0x24 examples/light_switch/server/CMakeFiles/light_switch_server_nrf52840_xxAA_s140_6.0.0.dir/__/__/__/mesh/prov/src/prov_bearer_adv.c.obj
                0x00036c58                calculate_3GPP_CRC
 .text.prov_bearer_adv_tx
                0x00036c7c       0xb4 examples/light_switch/server/CMakeFiles/light_switch_server_nrf52840_xxAA_s140_6.0.0.dir/__/__/__/mesh/prov/src/prov_bearer_adv.c.obj
 .text.prov_buffer_rx
                0x00036d30       0x6e examples/light_switch/server/CMakeFiles/light_switch_server_nrf52840_xxAA_s140_6.0.0.dir/__/__/__/mesh/prov/src/prov_bearer_adv.c.obj
 *fill*         0x00036d9e        0x2 
 .text.nrf_mesh_prov_bearer_adv_interface_get
                0x00036da0       0x3c examples/light_switch/server/CMakeFiles/light_switch_server_nrf52840_xxAA_s140_6.0.0.dir/__/__/__/mesh/prov/src/prov_bearer_adv.c.obj
                0x00036da0                nrf_mesh_prov_bearer_adv_interface_get
 .text.prov_bearer_adv_packet_in
                0x00036ddc      0x7f8 examples/light_switch/server/CMakeFiles/light_switch_server_nrf52840_xxAA_s140_6.0.0.dir/__/__/__/mesh/prov/src/prov_bearer_adv.c.obj
                0x00036ddc                prov_bearer_adv_packet_in
 .text.errata_120
                0x000375d4       0x20 examples/light_switch/server/CMakeFiles/light_switch_server_nrf52840_xxAA_s140_6.0.0.dir/C_/sdks/nRF5_SDK_15.0.0_a53641a/modules/nrfx/mdk/system_nrf52840.c.obj
 .text.SystemInit
                0x000375f4      0x1b8 examples/light_switch/server/CMakeFiles/light_switch_server_nrf52840_xxAA_s140_6.0.0.dir/C_/sdks/nRF5_SDK_15.0.0_a53641a/modules/nrfx/mdk/system_nrf52840.c.obj
                0x000375f4                SystemInit
 .text          0x000377ac       0x3c examples/light_switch/server/CMakeFiles/light_switch_server_nrf52840_xxAA_s140_6.0.0.dir/C_/sdks/nRF5_SDK_15.0.0_a53641a/modules/nrfx/mdk/gcc_startup_nrf52840.S.obj
                0x000377ac                Reset_Handler
                0x000377d4                NMI_Handler
                0x000377d6                HardFault_Handler
                0x000377d8                MemoryManagement_Handler
                0x000377da                BusFault_Handler
                0x000377dc                UsageFault_Handler
                0x000377de                SVC_Handler
                0x000377e0                DebugMon_Handler
                0x000377e2                PendSV_Handler
                0x000377e4                SysTick_Handler
                0x000377e6                TEMP_IRQHandler
                0x000377e6                TIMER3_IRQHandler
                0x000377e6                PWM3_IRQHandler
                0x000377e6                FPU_IRQHandler
                0x000377e6                USBD_IRQHandler
                0x000377e6                SPIM0_SPIS0_TWIM0_TWIS0_SPI0_TWI0_IRQHandler
                0x000377e6                PDM_IRQHandler
                0x000377e6                UARTE0_UART0_IRQHandler
                0x000377e6                TIMER4_IRQHandler
                0x000377e6                CRYPTOCELL_IRQHandler
                0x000377e6                I2S_IRQHandler
                0x000377e6                SWI4_EGU4_IRQHandler
                0x000377e6                TIMER0_IRQHandler
                0x000377e6                RTC0_IRQHandler
                0x000377e6                POWER_CLOCK_IRQHandler
                0x000377e6                TIMER1_IRQHandler
                0x000377e6                SPIM3_IRQHandler
                0x000377e6                PWM2_IRQHandler
                0x000377e6                ECB_IRQHandler
                0x000377e6                SPIM1_SPIS1_TWIM1_TWIS1_SPI1_TWI1_IRQHandler
                0x000377e6                Default_Handler
                0x000377e6                SAADC_IRQHandler
                0x000377e6                CCM_AAR_IRQHandler
                0x000377e6                WDT_IRQHandler
                0x000377e6                RADIO_IRQHandler
                0x000377e6                SWI5_EGU5_IRQHandler
                0x000377e6                RNG_IRQHandler
                0x000377e6                RTC2_IRQHandler
                0x000377e6                PWM0_IRQHandler
                0x000377e6                SWI3_EGU3_IRQHandler
                0x000377e6                SWI1_EGU1_IRQHandler
                0x000377e6                SPIM2_SPIS2_SPI2_IRQHandler
                0x000377e6                NFCT_IRQHandler
                0x000377e6                UARTE1_IRQHandler
                0x000377e6                MWU_IRQHandler
                0x000377e6                PWM1_IRQHandler
                0x000377e6                QSPI_IRQHandler
                0x000377e6                COMP_LPCOMP_IRQHandler
 .text.app_error_handler_bare
                0x000377e8       0x1a examples/light_switch/server/CMakeFiles/light_switch_server_nrf52840_xxAA_s140_6.0.0.dir/C_/sdks/nRF5_SDK_15.0.0_a53641a/components/libraries/util/app_error.c.obj
                0x000377e8                app_error_handler_bare
 *fill*         0x00037802        0x2 
 .text.app_util_critical_region_enter
                0x00037804       0x48 examples/light_switch/server/CMakeFiles/light_switch_server_nrf52840_xxAA_s140_6.0.0.dir/C_/sdks/nRF5_SDK_15.0.0_a53641a/components/libraries/util/app_util_platform.c.obj
                0x00037804                app_util_critical_region_enter
 .text.app_util_critical_region_exit
                0x0003784c       0x2c examples/light_switch/server/CMakeFiles/light_switch_server_nrf52840_xxAA_s140_6.0.0.dir/C_/sdks/nRF5_SDK_15.0.0_a53641a/components/libraries/util/app_util_platform.c.obj
                0x0003784c                app_util_critical_region_exit
 .text.user_op_alloc
                0x00037878       0x2c examples/light_switch/server/CMakeFiles/light_switch_server_nrf52840_xxAA_s140_6.0.0.dir/C_/sdks/nRF5_SDK_15.0.0_a53641a/components/libraries/timer/app_timer.c.obj
 .text.timer_stop_op_schedule
                0x000378a4       0x50 examples/light_switch/server/CMakeFiles/light_switch_server_nrf52840_xxAA_s140_6.0.0.dir/C_/sdks/nRF5_SDK_15.0.0_a53641a/components/libraries/timer/app_timer.c.obj
 .text.nrfx_coredep_delay_us.part.0.constprop.4
                0x000378f4       0x10 examples/light_switch/server/CMakeFiles/light_switch_server_nrf52840_xxAA_s140_6.0.0.dir/C_/sdks/nRF5_SDK_15.0.0_a53641a/components/libraries/timer/app_timer.c.obj
 .text.rtc1_stop
                0x00037904       0x44 examples/light_switch/server/CMakeFiles/light_switch_server_nrf52840_xxAA_s140_6.0.0.dir/C_/sdks/nRF5_SDK_15.0.0_a53641a/components/libraries/timer/app_timer.c.obj
 .text.RTC1_IRQHandler
                0x00037948       0x9c examples/light_switch/server/CMakeFiles/light_switch_server_nrf52840_xxAA_s140_6.0.0.dir/C_/sdks/nRF5_SDK_15.0.0_a53641a/components/libraries/timer/app_timer.c.obj
                0x00037948                RTC1_IRQHandler
 .text.SWI0_EGU0_IRQHandler
                0x000379e4      0x2a4 examples/light_switch/server/CMakeFiles/light_switch_server_nrf52840_xxAA_s140_6.0.0.dir/C_/sdks/nRF5_SDK_15.0.0_a53641a/components/libraries/timer/app_timer.c.obj
                0x000379e4                SWI0_EGU0_IRQHandler
 .text.app_timer_init
                0x00037c88       0x64 examples/light_switch/server/CMakeFiles/light_switch_server_nrf52840_xxAA_s140_6.0.0.dir/C_/sdks/nRF5_SDK_15.0.0_a53641a/components/libraries/timer/app_timer.c.obj
                0x00037c88                app_timer_init
 .text.app_timer_create
                0x00037cec       0x24 examples/light_switch/server/CMakeFiles/light_switch_server_nrf52840_xxAA_s140_6.0.0.dir/C_/sdks/nRF5_SDK_15.0.0_a53641a/components/libraries/timer/app_timer.c.obj
                0x00037cec                app_timer_create
 .text.app_timer_start
                0x00037d10       0x8c examples/light_switch/server/CMakeFiles/light_switch_server_nrf52840_xxAA_s140_6.0.0.dir/C_/sdks/nRF5_SDK_15.0.0_a53641a/components/libraries/timer/app_timer.c.obj
                0x00037d10                app_timer_start
 .text.app_timer_stop
                0x00037d9c       0x20 examples/light_switch/server/CMakeFiles/light_switch_server_nrf52840_xxAA_s140_6.0.0.dir/C_/sdks/nRF5_SDK_15.0.0_a53641a/components/libraries/timer/app_timer.c.obj
                0x00037d9c                app_timer_stop
 .text.app_timer_cnt_get
                0x00037dbc        0xc examples/light_switch/server/CMakeFiles/light_switch_server_nrf52840_xxAA_s140_6.0.0.dir/C_/sdks/nRF5_SDK_15.0.0_a53641a/components/libraries/timer/app_timer.c.obj
                0x00037dbc                app_timer_cnt_get
 .text.app_timer_cnt_diff_compute
                0x00037dc8        0x8 examples/light_switch/server/CMakeFiles/light_switch_server_nrf52840_xxAA_s140_6.0.0.dir/C_/sdks/nRF5_SDK_15.0.0_a53641a/components/libraries/timer/app_timer.c.obj
                0x00037dc8                app_timer_cnt_diff_compute
 .text.app_error_handler
                0x00037dd0       0x1a examples/light_switch/server/CMakeFiles/light_switch_server_nrf52840_xxAA_s140_6.0.0.dir/C_/sdks/nRF5_SDK_15.0.0_a53641a/components/libraries/util/app_error_handler_gcc.c.obj
                0x00037dd0                app_error_handler
 .text._GetAvailWriteSpace
                0x00037dea       0x1c external/rtt/librtt_nrf52840_xxAA.a(SEGGER_RTT.c.obj)
 .text._WriteNoCheck
                0x00037e06       0x3c external/rtt/librtt_nrf52840_xxAA.a(SEGGER_RTT.c.obj)
 .text._WriteBlocking
                0x00037e42       0x52 external/rtt/librtt_nrf52840_xxAA.a(SEGGER_RTT.c.obj)
 .text._DoInit  0x00037e94       0x60 external/rtt/librtt_nrf52840_xxAA.a(SEGGER_RTT.c.obj)
 .text.SEGGER_RTT_ReadNoLock
                0x00037ef4       0x88 external/rtt/librtt_nrf52840_xxAA.a(SEGGER_RTT.c.obj)
                0x00037ef4                SEGGER_RTT_ReadNoLock
 .text.SEGGER_RTT_Read
                0x00037f7c       0x1c external/rtt/librtt_nrf52840_xxAA.a(SEGGER_RTT.c.obj)
                0x00037f7c                SEGGER_RTT_Read
 .text.SEGGER_RTT_WriteNoLock
                0x00037f98       0x68 external/rtt/librtt_nrf52840_xxAA.a(SEGGER_RTT.c.obj)
                0x00037f98                SEGGER_RTT_WriteNoLock
 .text.SEGGER_RTT_Write
                0x00038000       0x34 external/rtt/librtt_nrf52840_xxAA.a(SEGGER_RTT.c.obj)
                0x00038000                SEGGER_RTT_Write
 .text.SEGGER_RTT_GetKey
                0x00038034       0x20 external/rtt/librtt_nrf52840_xxAA.a(SEGGER_RTT.c.obj)
                0x00038034                SEGGER_RTT_GetKey
 .text._StoreChar
                0x00038054       0x3e external/rtt/librtt_nrf52840_xxAA.a(SEGGER_RTT_printf.c.obj)
 *fill*         0x00038092        0x2 
 .text._PrintUnsigned
                0x00038094       0xd0 external/rtt/librtt_nrf52840_xxAA.a(SEGGER_RTT_printf.c.obj)
 .text.SEGGER_RTT_vprintf
                0x00038164      0x246 external/rtt/librtt_nrf52840_xxAA.a(SEGGER_RTT_printf.c.obj)
                0x00038164                SEGGER_RTT_vprintf
 .text.SEGGER_RTT_printf
                0x000383aa       0x1e external/rtt/librtt_nrf52840_xxAA.a(SEGGER_RTT_printf.c.obj)
                0x000383aa                SEGGER_RTT_printf
 .text.uECC_vli_mult
                0x000383c8       0x64 external/micro-ecc/libuECC_nrf52840_xxAA.a(uECC.c.obj)
 .text.uECC_vli_clear
                0x0003842c       0x16 external/micro-ecc/libuECC_nrf52840_xxAA.a(uECC.c.obj)
 .text.uECC_vli_isZero
                0x00038442       0x1e external/micro-ecc/libuECC_nrf52840_xxAA.a(uECC.c.obj)
 .text.uECC_vli_testBit
                0x00038460       0x14 external/micro-ecc/libuECC_nrf52840_xxAA.a(uECC.c.obj)
 .text.uECC_vli_numBits
                0x00038474       0x3a external/micro-ecc/libuECC_nrf52840_xxAA.a(uECC.c.obj)
 .text.uECC_vli_set
                0x000384ae       0x18 external/micro-ecc/libuECC_nrf52840_xxAA.a(uECC.c.obj)
 .text.uECC_vli_cmp_unsafe
                0x000384c6       0x28 external/micro-ecc/libuECC_nrf52840_xxAA.a(uECC.c.obj)
 .text.uECC_vli_rshift1
                0x000384ee       0x1c external/micro-ecc/libuECC_nrf52840_xxAA.a(uECC.c.obj)
 .text.uECC_vli_modMult_fast
                0x0003850a       0x20 external/micro-ecc/libuECC_nrf52840_xxAA.a(uECC.c.obj)
 .text.uECC_vli_modSquare_fast
                0x0003852a        0x8 external/micro-ecc/libuECC_nrf52840_xxAA.a(uECC.c.obj)
 .text.apply_z  0x00038532       0x3e external/micro-ecc/libuECC_nrf52840_xxAA.a(uECC.c.obj)
 .text.uECC_vli_nativeToBytes
                0x00038570       0x28 external/micro-ecc/libuECC_nrf52840_xxAA.a(uECC.c.obj)
 .text.uECC_vli_bytesToNative
                0x00038598       0x40 external/micro-ecc/libuECC_nrf52840_xxAA.a(uECC.c.obj)
 .text.default_RNG
                0x000385d8        0xc external/micro-ecc/libuECC_nrf52840_xxAA.a(uECC.c.obj)
 .text.uECC_vli_add.isra.0
                0x000385e4       0x4a external/micro-ecc/libuECC_nrf52840_xxAA.a(uECC.c.obj)
 .text.regularize_k
                0x0003862e       0x50 external/micro-ecc/libuECC_nrf52840_xxAA.a(uECC.c.obj)
 .text.uECC_vli_sub.isra.1
                0x0003867e       0x4e external/micro-ecc/libuECC_nrf52840_xxAA.a(uECC.c.obj)
 .text.uECC_vli_cmp
                0x000386cc       0x30 external/micro-ecc/libuECC_nrf52840_xxAA.a(uECC.c.obj)
 .text.uECC_generate_random_int
                0x000386fc       0x78 external/micro-ecc/libuECC_nrf52840_xxAA.a(uECC.c.obj)
 .text.uECC_vli_modAdd
                0x00038774       0x2e external/micro-ecc/libuECC_nrf52840_xxAA.a(uECC.c.obj)
 *fill*         0x000387a2        0x2 
 .text.vli_mmod_fast_secp256r1
                0x000387a4      0x194 external/micro-ecc/libuECC_nrf52840_xxAA.a(uECC.c.obj)
 .text.uECC_vli_modSub.isra.2
                0x00038938       0x1c external/micro-ecc/libuECC_nrf52840_xxAA.a(uECC.c.obj)
 .text.double_jacobian_default
                0x00038954      0x14a external/micro-ecc/libuECC_nrf52840_xxAA.a(uECC.c.obj)
 .text.x_side_default
                0x00038a9e       0x5a external/micro-ecc/libuECC_nrf52840_xxAA.a(uECC.c.obj)
 .text.XYcZ_add
                0x00038af8       0xbc external/micro-ecc/libuECC_nrf52840_xxAA.a(uECC.c.obj)
 .text.XYcZ_addC
                0x00038bb4      0x10a external/micro-ecc/libuECC_nrf52840_xxAA.a(uECC.c.obj)
 .text.vli_modInv_update
                0x00038cbe       0x36 external/micro-ecc/libuECC_nrf52840_xxAA.a(uECC.c.obj)
 .text.uECC_vli_modInv
                0x00038cf4      0x102 external/micro-ecc/libuECC_nrf52840_xxAA.a(uECC.c.obj)
 .text.EccPoint_mult
                0x00038df6      0x19e external/micro-ecc/libuECC_nrf52840_xxAA.a(uECC.c.obj)
 .text.EccPoint_compute_public_key
                0x00038f94       0x54 external/micro-ecc/libuECC_nrf52840_xxAA.a(uECC.c.obj)
 .text.uECC_secp256r1
                0x00038fe8        0x8 external/micro-ecc/libuECC_nrf52840_xxAA.a(uECC.c.obj)
                0x00038fe8                uECC_secp256r1
 .text.uECC_make_key
                0x00038ff0       0x7e external/micro-ecc/libuECC_nrf52840_xxAA.a(uECC.c.obj)
                0x00038ff0                uECC_make_key
 *fill*         0x0003906e        0x2 
 .text.uECC_shared_secret
                0x00039070       0xbc external/micro-ecc/libuECC_nrf52840_xxAA.a(uECC.c.obj)
                0x00039070                uECC_shared_secret
 .text.uECC_valid_point
                0x0003912c       0x86 external/micro-ecc/libuECC_nrf52840_xxAA.a(uECC.c.obj)
                0x0003912c                uECC_valid_point
 .text.uECC_valid_public_key
                0x000391b2       0x32 external/micro-ecc/libuECC_nrf52840_xxAA.a(uECC.c.obj)
                0x000391b2                uECC_valid_public_key
 .text          0x000391e4       0x30 c:/arm_gcc/bin/../lib/gcc/arm-none-eabi/6.3.1/thumb/v7e-m/fpv4-sp/hard\libgcc.a(_aeabi_uldivmod.o)
                0x000391e4                __aeabi_uldivmod
 .text          0x00039214      0x2dc c:/arm_gcc/bin/../lib/gcc/arm-none-eabi/6.3.1/thumb/v7e-m/fpv4-sp/hard\libgcc.a(_udivmoddi4.o)
                0x00039214                __udivmoddi4
 .text          0x000394f0        0x4 c:/arm_gcc/bin/../lib/gcc/arm-none-eabi/6.3.1/thumb/v7e-m/fpv4-sp/hard\libgcc.a(_dvmd_tls.o)
                0x000394f0                __aeabi_idiv0
                0x000394f0                __aeabi_ldiv0
 .text.exit     0x000394f4       0x28 c:/arm_gcc/bin/../lib/gcc/arm-none-eabi/6.3.1/../../../../arm-none-eabi/lib/thumb/v7e-m/fpv4-sp/hard\libg_nano.a(lib_a-exit.o)
                0x000394f4                exit
 .text.__libc_init_array
                0x0003951c       0x48 c:/arm_gcc/bin/../lib/gcc/arm-none-eabi/6.3.1/../../../../arm-none-eabi/lib/thumb/v7e-m/fpv4-sp/hard\libg_nano.a(lib_a-init.o)
                0x0003951c                __libc_init_array
 .text.malloc   0x00039564       0x10 c:/arm_gcc/bin/../lib/gcc/arm-none-eabi/6.3.1/../../../../arm-none-eabi/lib/thumb/v7e-m/fpv4-sp/hard\libg_nano.a(lib_a-malloc.o)
                0x00039564                malloc
 .text.free     0x00039574       0x10 c:/arm_gcc/bin/../lib/gcc/arm-none-eabi/6.3.1/../../../../arm-none-eabi/lib/thumb/v7e-m/fpv4-sp/hard\libg_nano.a(lib_a-malloc.o)
                0x00039574                free
 .text.memcmp   0x00039584       0x1e c:/arm_gcc/bin/../lib/gcc/arm-none-eabi/6.3.1/../../../../arm-none-eabi/lib/thumb/v7e-m/fpv4-sp/hard\libg_nano.a(lib_a-memcmp.o)
                0x00039584                memcmp
 .text.memcpy   0x000395a2       0x16 c:/arm_gcc/bin/../lib/gcc/arm-none-eabi/6.3.1/../../../../arm-none-eabi/lib/thumb/v7e-m/fpv4-sp/hard\libg_nano.a(lib_a-memcpy-stub.o)
                0x000395a2                memcpy
 .text.memset   0x000395b8       0x10 c:/arm_gcc/bin/../lib/gcc/arm-none-eabi/6.3.1/../../../../arm-none-eabi/lib/thumb/v7e-m/fpv4-sp/hard\libg_nano.a(lib_a-memset.o)
                0x000395b8                memset
 .text._free_r  0x000395c8       0x9c c:/arm_gcc/bin/../lib/gcc/arm-none-eabi/6.3.1/../../../../arm-none-eabi/lib/thumb/v7e-m/fpv4-sp/hard\libg_nano.a(lib_a-nano-freer.o)
                0x000395c8                _free_r
 .text._malloc_r
                0x00039664       0xbc c:/arm_gcc/bin/../lib/gcc/arm-none-eabi/6.3.1/../../../../arm-none-eabi/lib/thumb/v7e-m/fpv4-sp/hard\libg_nano.a(lib_a-nano-mallocr.o)
                0x00039664                _malloc_r
 .text._sbrk_r  0x00039720       0x20 c:/arm_gcc/bin/../lib/gcc/arm-none-eabi/6.3.1/../../../../arm-none-eabi/lib/thumb/v7e-m/fpv4-sp/hard\libg_nano.a(lib_a-sbrkr.o)
                0x00039720                _sbrk_r
 .text.strcpy   0x00039740       0x10 c:/arm_gcc/bin/../lib/gcc/arm-none-eabi/6.3.1/../../../../arm-none-eabi/lib/thumb/v7e-m/fpv4-sp/hard\libg_nano.a(lib_a-strcpy.o)
                0x00039740                strcpy
 .text          0x00039750       0x10 c:/arm_gcc/bin/../lib/gcc/arm-none-eabi/6.3.1/../../../../arm-none-eabi/lib/thumb/v7e-m/fpv4-sp/hard\libg_nano.a(lib_a-strlen.o)
                0x00039750                strlen
 .text.strrchr  0x00039760       0x26 c:/arm_gcc/bin/../lib/gcc/arm-none-eabi/6.3.1/../../../../arm-none-eabi/lib/thumb/v7e-m/fpv4-sp/hard\libg_nano.a(lib_a-strrchr.o)
                0x00039760                strrchr
 .text.__malloc_lock
                0x00039786        0x2 c:/arm_gcc/bin/../lib/gcc/arm-none-eabi/6.3.1/../../../../arm-none-eabi/lib/thumb/v7e-m/fpv4-sp/hard\libg_nano.a(lib_a-mlock.o)
                0x00039786                __malloc_lock
 .text.__malloc_unlock
                0x00039788        0x2 c:/arm_gcc/bin/../lib/gcc/arm-none-eabi/6.3.1/../../../../arm-none-eabi/lib/thumb/v7e-m/fpv4-sp/hard\libg_nano.a(lib_a-mlock.o)
                0x00039788                __malloc_unlock
 .text.strchr   0x0003978a       0x1c c:/arm_gcc/bin/../lib/gcc/arm-none-eabi/6.3.1/../../../../arm-none-eabi/lib/thumb/v7e-m/fpv4-sp/hard\libg_nano.a(lib_a-strchr.o)
                0x0003978a                strchr
 *fill*         0x000397a6        0x2 
 .text._sbrk    0x000397a8       0x1c c:/arm_gcc/bin/../lib/gcc/arm-none-eabi/6.3.1/../../../../arm-none-eabi/lib/thumb/v7e-m/fpv4-sp/hard\libnosys.a(sbrk.o)
                0x000397a8                _sbrk
 .text._exit    0x000397c4        0x4 c:/arm_gcc/bin/../lib/gcc/arm-none-eabi/6.3.1/../../../../arm-none-eabi/lib/thumb/v7e-m/fpv4-sp/hard\libnosys.a(_exit.o)
                0x000397c4                _exit
 *(.init)
 .init          0x000397c8        0x4 c:/arm_gcc/bin/../lib/gcc/arm-none-eabi/6.3.1/thumb/v7e-m/fpv4-sp/hard/crti.o
                0x000397c8                _init
 .init          0x000397cc        0x8 c:/arm_gcc/bin/../lib/gcc/arm-none-eabi/6.3.1/thumb/v7e-m/fpv4-sp/hard/crtn.o
 *(.fini)
 .fini          0x000397d4        0x4 c:/arm_gcc/bin/../lib/gcc/arm-none-eabi/6.3.1/thumb/v7e-m/fpv4-sp/hard/crti.o
                0x000397d4                _fini
 .fini          0x000397d8        0x8 c:/arm_gcc/bin/../lib/gcc/arm-none-eabi/6.3.1/thumb/v7e-m/fpv4-sp/hard/crtn.o
 *crtbegin.o(.ctors)
 *crtbegin?.o(.ctors)
 *(EXCLUDE_FILE(*crtend.o *crtend?.o) .ctors)
 *(SORT(.ctors.*))
 *(.ctors)
 *crtbegin.o(.dtors)
 *crtbegin?.o(.dtors)
 *(EXCLUDE_FILE(*crtend.o *crtend?.o) .dtors)
 *(SORT(.dtors.*))
 *(.dtors)
 *(.rodata*)
 .rodata        0x000397e0        0xc examples/light_switch/server/CMakeFiles/light_switch_server_nrf52840_xxAA_s140_6.0.0.dir/src/main.c.obj
 .rodata.app_onoff_server_set_cb.str1.1
                0x000397ec       0x18 examples/light_switch/server/CMakeFiles/light_switch_server_nrf52840_xxAA_s140_6.0.0.dir/src/main.c.obj
 .rodata.button_event_handler.str1.1
                0x00039804       0x21 examples/light_switch/server/CMakeFiles/light_switch_server_nrf52840_xxAA_s140_6.0.0.dir/src/main.c.obj
 *fill*         0x00039825        0x3 
 .rodata.m_onoff_server_0_timer
                0x00039828        0x4 examples/light_switch/server/CMakeFiles/light_switch_server_nrf52840_xxAA_s140_6.0.0.dir/src/main.c.obj
 .rodata.main.str1.1
                0x0003982c       0x44 examples/light_switch/server/CMakeFiles/light_switch_server_nrf52840_xxAA_s140_6.0.0.dir/src/main.c.obj
 .rodata.models_init_cb.str1.1
                0x00039870       0x20 examples/light_switch/server/CMakeFiles/light_switch_server_nrf52840_xxAA_s140_6.0.0.dir/src/main.c.obj
 .rodata.node_reset.str1.1
                0x00039890       0x19 examples/light_switch/server/CMakeFiles/light_switch_server_nrf52840_xxAA_s140_6.0.0.dir/src/main.c.obj
 .rodata.provisioning_complete_cb.str1.1
                0x000398a9       0x5c examples/light_switch/server/CMakeFiles/light_switch_server_nrf52840_xxAA_s140_6.0.0.dir/src/main.c.obj
 .rodata.static_auth_data.12493
                0x00039905       0x10 examples/light_switch/server/CMakeFiles/light_switch_server_nrf52840_xxAA_s140_6.0.0.dir/src/main.c.obj
 .rodata.generic_onoff_state_get_cb.str1.1
                0x00039915       0x2e examples/light_switch/server/CMakeFiles/light_switch_server_nrf52840_xxAA_s140_6.0.0.dir/__/__/common/src/app_onoff.c.obj
 .rodata.generic_onoff_state_set_cb.str1.1
                0x00039943        0xe examples/light_switch/server/CMakeFiles/light_switch_server_nrf52840_xxAA_s140_6.0.0.dir/__/__/common/src/app_onoff.c.obj
 *fill*         0x00039951        0x3 
 .rodata.onoff_srv_cbs
                0x00039954        0x8 examples/light_switch/server/CMakeFiles/light_switch_server_nrf52840_xxAA_s140_6.0.0.dir/__/__/common/src/app_onoff.c.obj
                0x00039954                onoff_srv_cbs
 .rodata.onoff_state_process_timing.str1.1
                0x0003995c       0x1e examples/light_switch/server/CMakeFiles/light_switch_server_nrf52840_xxAA_s140_6.0.0.dir/__/__/common/src/app_onoff.c.obj
 .rodata.onoff_state_value_update.str1.1
                0x0003997a       0x40 examples/light_switch/server/CMakeFiles/light_switch_server_nrf52840_xxAA_s140_6.0.0.dir/__/__/common/src/app_onoff.c.obj
 .rodata.mesh_softdevice_init.str1.1
                0x000399ba       0x94 examples/light_switch/server/CMakeFiles/light_switch_server_nrf52840_xxAA_s140_6.0.0.dir/__/__/common/src/mesh_softdevice_init.c.obj
 .rodata        0x00039a4e        0xb examples/light_switch/server/CMakeFiles/light_switch_server_nrf52840_xxAA_s140_6.0.0.dir/__/__/common/src/mesh_provisionee.c.obj
 *fill*         0x00039a59        0x3 
 .rodata.m_rtt_timer
                0x00039a5c        0x4 examples/light_switch/server/CMakeFiles/light_switch_server_nrf52840_xxAA_s140_6.0.0.dir/__/__/common/src/rtt_input.c.obj
 .rodata.rtt_input_enable.str1.1
                0x00039a60       0x23 examples/light_switch/server/CMakeFiles/light_switch_server_nrf52840_xxAA_s140_6.0.0.dir/__/__/common/src/rtt_input.c.obj
 *fill*         0x00039a83        0x1 
 .rodata.m_blink_timer
                0x00039a84        0x4 examples/light_switch/server/CMakeFiles/light_switch_server_nrf52840_xxAA_s140_6.0.0.dir/__/__/common/src/simple_hal.c.obj
 .rodata.m_buttons_list
                0x00039a88        0x4 examples/light_switch/server/CMakeFiles/light_switch_server_nrf52840_xxAA_s140_6.0.0.dir/__/__/common/src/simple_hal.c.obj
 .rodata.app_error_fault_handler.str1.1
                0x00039a8c       0xbd examples/light_switch/server/CMakeFiles/light_switch_server_nrf52840_xxAA_s140_6.0.0.dir/__/__/common/src/app_error_weak.c.obj
 .rodata.mesh_assertion_handler.str1.1
                0x00039b49       0xbd examples/light_switch/server/CMakeFiles/light_switch_server_nrf52840_xxAA_s140_6.0.0.dir/__/__/common/src/assertion_handler_weak.c.obj
                                  0x1 (size before relaxing)
 .rodata.sar_ctx_cancel.str1.1
                0x00039b49       0x23 examples/light_switch/server/CMakeFiles/light_switch_server_nrf52840_xxAA_s140_6.0.0.dir/__/__/__/mesh/core/src/transport.c.obj
 .rodata.test_transport_decrypt.str1.1
                0x00039b6c       0x30 examples/light_switch/server/CMakeFiles/light_switch_server_nrf52840_xxAA_s140_6.0.0.dir/__/__/__/mesh/core/src/transport.c.obj
 .rodata.transport_packet_in.str1.1
                0x00039b9c       0x24 examples/light_switch/server/CMakeFiles/light_switch_server_nrf52840_xxAA_s140_6.0.0.dir/__/__/__/mesh/core/src/transport.c.obj
 .rodata.upper_transport_access_packet_in.str1.1
                0x00039bc0       0x29 examples/light_switch/server/CMakeFiles/light_switch_server_nrf52840_xxAA_s140_6.0.0.dir/__/__/__/mesh/core/src/transport.c.obj
 .rodata.upper_transport_packet_in.str1.1
                0x00039be9       0x2e examples/light_switch/server/CMakeFiles/light_switch_server_nrf52840_xxAA_s140_6.0.0.dir/__/__/__/mesh/core/src/transport.c.obj
 .rodata.upper_transport_tx.str1.1
                0x00039c17        0xe examples/light_switch/server/CMakeFiles/light_switch_server_nrf52840_xxAA_s140_6.0.0.dir/__/__/__/mesh/core/src/transport.c.obj
                                 0x16 (size before relaxing)
 *fill*         0x00039c25        0x3 
 .rodata.m_procedure_steps
                0x00039c28       0x28 examples/light_switch/server/CMakeFiles/light_switch_server_nrf52840_xxAA_s140_6.0.0.dir/__/__/__/mesh/core/src/flash_manager_defrag.c.obj
 .rodata.m_all_operations
                0x00039c50       0x10 examples/light_switch/server/CMakeFiles/light_switch_server_nrf52840_xxAA_s140_6.0.0.dir/__/__/__/mesh/core/src/mesh_flash.c.obj
 .rodata.types_lookup.9494
                0x00039c60        0x4 examples/light_switch/server/CMakeFiles/light_switch_server_nrf52840_xxAA_s140_6.0.0.dir/__/__/__/mesh/core/src/nrf_mesh_utils.c.obj
 .rodata.__func__.12409
                0x00039c64       0x15 examples/light_switch/server/CMakeFiles/light_switch_server_nrf52840_xxAA_s140_6.0.0.dir/__/__/__/mesh/core/src/nrf_mesh.c.obj
 .rodata.nrf_mesh_enable.str1.1
                0x00039c79       0x25 examples/light_switch/server/CMakeFiles/light_switch_server_nrf52840_xxAA_s140_6.0.0.dir/__/__/__/mesh/core/src/nrf_mesh.c.obj
 .rodata.nrf_mesh_listen.str1.1
                0x00039c9e       0x70 examples/light_switch/server/CMakeFiles/light_switch_server_nrf52840_xxAA_s140_6.0.0.dir/__/__/__/mesh/core/src/nrf_mesh.c.obj
 .rodata.nrf_mesh_packet_send.str1.1
                0x00039d0e       0x70 examples/light_switch/server/CMakeFiles/light_switch_server_nrf52840_xxAA_s140_6.0.0.dir/__/__/__/mesh/core/src/nrf_mesh.c.obj
                                  0x4 (size before relaxing)
 .rodata.CSWTCH.7
                0x00039d0e       0x10 examples/light_switch/server/CMakeFiles/light_switch_server_nrf52840_xxAA_s140_6.0.0.dir/__/__/__/mesh/core/src/hal.c.obj
 .rodata        0x00039d1e       0x15 examples/light_switch/server/CMakeFiles/light_switch_server_nrf52840_xxAA_s140_6.0.0.dir/__/__/__/mesh/core/src/enc.c.obj
 .rodata.network_packet_in.str1.1
                0x00039d33       0x48 examples/light_switch/server/CMakeFiles/light_switch_server_nrf52840_xxAA_s140_6.0.0.dir/__/__/__/mesh/core/src/network.c.obj
 .rodata.net_packet_decrypt.str1.1
                0x00039d7b       0x31 examples/light_switch/server/CMakeFiles/light_switch_server_nrf52840_xxAA_s140_6.0.0.dir/__/__/__/mesh/core/src/net_packet.c.obj
                                 0x39 (size before relaxing)
 .rodata        0x00039dac        0x7 examples/light_switch/server/CMakeFiles/light_switch_server_nrf52840_xxAA_s140_6.0.0.dir/__/__/__/mesh/core/src/nrf_mesh_keygen.c.obj
 .rodata.log_callback_rtt.str1.1
                0x00039db3       0x15 examples/light_switch/server/CMakeFiles/light_switch_server_nrf52840_xxAA_s140_6.0.0.dir/__/__/__/mesh/core/src/log.c.obj
 .rodata.str1.1
                0x00039dc8       0x11 examples/light_switch/server/CMakeFiles/light_switch_server_nrf52840_xxAA_s140_6.0.0.dir/__/__/__/mesh/core/src/log.c.obj
 *fill*         0x00039dd9        0x3 
 .rodata.INVALID_HEADER
                0x00039ddc        0x4 examples/light_switch/server/CMakeFiles/light_switch_server_nrf52840_xxAA_s140_6.0.0.dir/__/__/__/mesh/core/src/flash_manager.c.obj
                0x00039ddc                INVALID_HEADER
 .rodata.PADDING_HEADER
                0x00039de0        0x4 examples/light_switch/server/CMakeFiles/light_switch_server_nrf52840_xxAA_s140_6.0.0.dir/__/__/__/mesh/core/src/flash_manager.c.obj
                0x00039de0                PADDING_HEADER
 .rodata.SEAL_HEADER
                0x00039de4        0x4 examples/light_switch/server/CMakeFiles/light_switch_server_nrf52840_xxAA_s140_6.0.0.dir/__/__/__/mesh/core/src/flash_manager.c.obj
                0x00039de4                SEAL_HEADER
 .rodata.beacon_packet_in.str1.1
                0x00039de8       0x51 examples/light_switch/server/CMakeFiles/light_switch_server_nrf52840_xxAA_s140_6.0.0.dir/__/__/__/mesh/core/src/beacon.c.obj
                                 0x59 (size before relaxing)
 *fill*         0x00039e39        0x1 
 .rodata.__compound_literal.0
                0x00039e3a        0x4 examples/light_switch/server/CMakeFiles/light_switch_server_nrf52840_xxAA_s140_6.0.0.dir/__/__/__/mesh/core/src/heartbeat.c.obj
 .rodata.__compound_literal.1
                0x00039e3e        0x4 examples/light_switch/server/CMakeFiles/light_switch_server_nrf52840_xxAA_s140_6.0.0.dir/__/__/__/mesh/core/src/heartbeat.c.obj
 *fill*         0x00039e42        0x2 
 .rodata.cp_handler
                0x00039e44        0x8 examples/light_switch/server/CMakeFiles/light_switch_server_nrf52840_xxAA_s140_6.0.0.dir/__/__/__/mesh/core/src/heartbeat.c.obj
 .rodata.__compound_literal.0
                0x00039e4c        0x4 examples/light_switch/server/CMakeFiles/light_switch_server_nrf52840_xxAA_s140_6.0.0.dir/__/__/__/mesh/core/src/net_beacon.c.obj
 .rodata.beacon_tx.str1.1
                0x00039e50       0x35 examples/light_switch/server/CMakeFiles/light_switch_server_nrf52840_xxAA_s140_6.0.0.dir/__/__/__/mesh/core/src/net_beacon.c.obj
 .rodata.net_beacon_init.str1.1
                0x00039e85        0x5 examples/light_switch/server/CMakeFiles/light_switch_server_nrf52840_xxAA_s140_6.0.0.dir/__/__/__/mesh/core/src/net_beacon.c.obj
 .rodata.__compound_literal.0
                0x00039e8a        0x4 examples/light_switch/server/CMakeFiles/light_switch_server_nrf52840_xxAA_s140_6.0.0.dir/__/__/__/mesh/core/src/core_tx_adv.c.obj
 .rodata.__compound_literal.1
                0x00039e8e        0x4 examples/light_switch/server/CMakeFiles/light_switch_server_nrf52840_xxAA_s140_6.0.0.dir/__/__/__/mesh/core/src/core_tx_adv.c.obj
 .rodata.__compound_literal.2
                0x00039e92        0x4 examples/light_switch/server/CMakeFiles/light_switch_server_nrf52840_xxAA_s140_6.0.0.dir/__/__/__/mesh/core/src/core_tx_adv.c.obj
 .rodata.m_default_tx_power
                0x00039e96        0x1 examples/light_switch/server/CMakeFiles/light_switch_server_nrf52840_xxAA_s140_6.0.0.dir/__/__/__/mesh/core/src/core_tx_adv.c.obj
 *fill*         0x00039e97        0x1 
 .rodata.m_interface
                0x00039e98        0xc examples/light_switch/server/CMakeFiles/light_switch_server_nrf52840_xxAA_s140_6.0.0.dir/__/__/__/mesh/core/src/core_tx_adv.c.obj
 .rodata.radio_mode_to_us_per_byte.9850
                0x00039ea4        0x6 examples/light_switch/server/CMakeFiles/light_switch_server_nrf52840_xxAA_s140_6.0.0.dir/__/__/__/mesh/bearer/src/broadcast.c.obj
 .rodata.channel_rf_offsets.8993
                0x00039eaa       0x28 examples/light_switch/server/CMakeFiles/light_switch_server_nrf52840_xxAA_s140_6.0.0.dir/__/__/__/mesh/bearer/src/radio_config.c.obj
 .rodata        0x00039ed2        0x3 examples/light_switch/server/CMakeFiles/light_switch_server_nrf52840_xxAA_s140_6.0.0.dir/__/__/__/mesh/bearer/src/scanner.c.obj
 .rodata.CSWTCH.123
                0x00039ed5       0x10 examples/light_switch/server/CMakeFiles/light_switch_server_nrf52840_xxAA_s140_6.0.0.dir/__/__/__/models/foundation/config/src/config_server.c.obj
 *fill*         0x00039ee5        0x3 
 .rodata.opcode_handlers
                0x00039ee8      0x170 examples/light_switch/server/CMakeFiles/light_switch_server_nrf52840_xxAA_s140_6.0.0.dir/__/__/__/models/foundation/config/src/config_server.c.obj
 .rodata.m_opcode_handlers
                0x0003a058       0x58 examples/light_switch/server/CMakeFiles/light_switch_server_nrf52840_xxAA_s140_6.0.0.dir/__/__/__/models/foundation/health/src/health_server.c.obj
 .rodata.multiply_de_bruijn_bit_position.9607
                0x0003a0b0       0x20 examples/light_switch/server/CMakeFiles/light_switch_server_nrf52840_xxAA_s140_6.0.0.dir/__/__/__/models/foundation/health/src/health_server.c.obj
 .rodata.m_opcode_handlers
                0x0003a0d0       0x18 examples/light_switch/server/CMakeFiles/light_switch_server_nrf52840_xxAA_s140_6.0.0.dir/__/__/__/models/model_spec/generic_onoff/src/generic_onoff_server.c.obj
 .rodata.mesh_evt_cb.str1.1
                0x0003a0e8       0x13 examples/light_switch/server/CMakeFiles/light_switch_server_nrf52840_xxAA_s140_6.0.0.dir/__/__/__/mesh/access/src/access.c.obj
 .rodata.multiply_de_bruijn_bit_position.9563
                0x0003a0fb       0x20 examples/light_switch/server/CMakeFiles/light_switch_server_nrf52840_xxAA_s140_6.0.0.dir/__/__/__/mesh/access/src/access.c.obj
 .rodata.packet_tx.str1.1
                0x0003a11b       0x38 examples/light_switch/server/CMakeFiles/light_switch_server_nrf52840_xxAA_s140_6.0.0.dir/__/__/__/mesh/access/src/access.c.obj
                                 0x40 (size before relaxing)
 *fill*         0x0003a153        0x1 
 .rodata.m_flash_groups
                0x0003a154       0xa8 examples/light_switch/server/CMakeFiles/light_switch_server_nrf52840_xxAA_s140_6.0.0.dir/__/__/__/mesh/access/src/device_state_manager.c.obj
 .rodata.multiply_de_bruijn_bit_position.9666
                0x0003a1fc       0x20 examples/light_switch/server/CMakeFiles/light_switch_server_nrf52840_xxAA_s140_6.0.0.dir/__/__/__/mesh/access/src/device_state_manager.c.obj
 .rodata.m_prov_callbacks
                0x0003a21c       0x10 examples/light_switch/server/CMakeFiles/light_switch_server_nrf52840_xxAA_s140_6.0.0.dir/__/__/__/mesh/prov/src/prov_provisionee.c.obj
 .rodata.prov_provisionee_cb_ack_received.str1.1
                0x0003a22c       0x53 examples/light_switch/server/CMakeFiles/light_switch_server_nrf52840_xxAA_s140_6.0.0.dir/__/__/__/mesh/prov/src/prov_provisionee.c.obj
 .rodata.multiply_de_bruijn_bit_position.9619
                0x0003a27f       0x20 examples/light_switch/server/CMakeFiles/light_switch_server_nrf52840_xxAA_s140_6.0.0.dir/__/__/__/mesh/prov/src/nrf_mesh_prov.c.obj
 .rodata.pdu_sizes.11358
                0x0003a29f        0xa examples/light_switch/server/CMakeFiles/light_switch_server_nrf52840_xxAA_s140_6.0.0.dir/__/__/__/mesh/prov/src/provisioning.c.obj
 *fill*         0x0003a2a9        0x1 
 .rodata.C.8.12461
                0x0003a2aa        0x4 examples/light_switch/server/CMakeFiles/light_switch_server_nrf52840_xxAA_s140_6.0.0.dir/__/__/__/mesh/prov/src/prov_utils.c.obj
 .rodata.alphanumeric.12382
                0x0003a2ae       0x25 examples/light_switch/server/CMakeFiles/light_switch_server_nrf52840_xxAA_s140_6.0.0.dir/__/__/__/mesh/prov/src/prov_utils.c.obj
 .rodata.m_ecdh_offloading_default
                0x0003a2d3        0x1 examples/light_switch/server/CMakeFiles/light_switch_server_nrf52840_xxAA_s140_6.0.0.dir/__/__/__/mesh/prov/src/prov_utils.c.obj
 .rodata.numeric_max.12376
                0x0003a2d4       0x24 examples/light_switch/server/CMakeFiles/light_switch_server_nrf52840_xxAA_s140_6.0.0.dir/__/__/__/mesh/prov/src/prov_utils.c.obj
 .rodata.prov_utils_authentication_values_derive.str1.1
                0x0003a2f8        0x5 examples/light_switch/server/CMakeFiles/light_switch_server_nrf52840_xxAA_s140_6.0.0.dir/__/__/__/mesh/prov/src/prov_utils.c.obj
 .rodata.prov_utils_derive_keys.str1.1
                0x0003a2fd        0xf examples/light_switch/server/CMakeFiles/light_switch_server_nrf52840_xxAA_s140_6.0.0.dir/__/__/__/mesh/prov/src/prov_utils.c.obj
 .rodata.add_active_bearer.str1.1
                0x0003a30c       0x2c examples/light_switch/server/CMakeFiles/light_switch_server_nrf52840_xxAA_s140_6.0.0.dir/__/__/__/mesh/prov/src/prov_bearer_adv.c.obj
 .rodata.crctable.11386
                0x0003a338      0x100 examples/light_switch/server/CMakeFiles/light_switch_server_nrf52840_xxAA_s140_6.0.0.dir/__/__/__/mesh/prov/src/prov_bearer_adv.c.obj
 .rodata.interface.11616
                0x0003a438       0x14 examples/light_switch/server/CMakeFiles/light_switch_server_nrf52840_xxAA_s140_6.0.0.dir/__/__/__/mesh/prov/src/prov_bearer_adv.c.obj
 .rodata.prov_bearer_adv_packet_in.str1.1
                0x0003a44c      0x26e examples/light_switch/server/CMakeFiles/light_switch_server_nrf52840_xxAA_s140_6.0.0.dir/__/__/__/mesh/prov/src/prov_bearer_adv.c.obj
 .rodata.tx_retry_cb.str1.1
                0x0003a6ba       0x37 examples/light_switch/server/CMakeFiles/light_switch_server_nrf52840_xxAA_s140_6.0.0.dir/__/__/__/mesh/prov/src/prov_bearer_adv.c.obj
 *fill*         0x0003a6f1        0xf 
 .rodata.delay_bytecode.9306
                0x0003a700        0x6 examples/light_switch/server/CMakeFiles/light_switch_server_nrf52840_xxAA_s140_6.0.0.dir/C_/sdks/nRF5_SDK_15.0.0_a53641a/components/libraries/timer/app_timer.c.obj
 .rodata._DoInit.str1.1
                0x0003a706       0x14 external/rtt/librtt_nrf52840_xxAA.a(SEGGER_RTT.c.obj)
 .rodata._aV2C.5497
                0x0003a71a       0x10 external/rtt/librtt_nrf52840_xxAA.a(SEGGER_RTT_printf.c.obj)
 *fill*         0x0003a72a        0x2 
 .rodata.curve_secp256r1
                0x0003a72c       0xb0 external/micro-ecc/libuECC_nrf52840_xxAA.a(uECC.c.obj)
 .rodata._global_impure_ptr
                0x0003a7dc        0x4 c:/arm_gcc/bin/../lib/gcc/arm-none-eabi/6.3.1/../../../../arm-none-eabi/lib/thumb/v7e-m/fpv4-sp/hard\libg_nano.a(lib_a-impure.o)
                0x0003a7dc                _global_impure_ptr
 *(.eh_frame*)
 .eh_frame      0x0003a7e0        0x0 c:/arm_gcc/bin/../lib/gcc/arm-none-eabi/6.3.1/thumb/v7e-m/fpv4-sp/hard/crtbegin.o
 .eh_frame      0x0003a7e0        0x4 c:/arm_gcc/bin/../lib/gcc/arm-none-eabi/6.3.1/thumb/v7e-m/fpv4-sp/hard/crtend.o

.glue_7         0x0003a7e4        0x0
 .glue_7        0x0003a7e4        0x0 linker stubs

.glue_7t        0x0003a7e4        0x0
 .glue_7t       0x0003a7e4        0x0 linker stubs

.vfp11_veneer   0x0003a7e4        0x0
 .vfp11_veneer  0x0003a7e4        0x0 linker stubs

.v4_bx          0x0003a7e4        0x0
 .v4_bx         0x0003a7e4        0x0 linker stubs

.iplt           0x0003a7e4        0x0
 .iplt          0x0003a7e4        0x0 c:/arm_gcc/bin/../lib/gcc/arm-none-eabi/6.3.1/thumb/v7e-m/fpv4-sp/hard/crtbegin.o

.pwr_mgmt_data  0x0003a7e4        0x0
                [!provide]                PROVIDE (__start_pwr_mgmt_data, .)
 *(SORT(.pwr_mgmt_data*))
                [!provide]                PROVIDE (__stop_pwr_mgmt_data, .)

.log_const_data
                0x0003a7e4        0x0
                [!provide]                PROVIDE (__start_log_const_data, .)
 *(.log_const_data)
                [!provide]                PROVIDE (__stop_log_const_data, .)

.cli_command    0x0003a7e4        0x0
                [!provide]                PROVIDE (__start_cli_command, .)
 *(.cli_command)
                [!provide]                PROVIDE (__stop_cli_command, .)

.sdh_stack_observers
                0x0003a7e4        0x0
                [!provide]                PROVIDE (__start_sdh_stack_observers, .)
 *(SORT(.sdh_stack_observers*))
                [!provide]                PROVIDE (__stop_sdh_stack_observers, .)

.sdh_req_observers
                0x0003a7e4        0x0
                [!provide]                PROVIDE (__start_sdh_req_observers, .)
 *(SORT(.sdh_req_observers*))
                [!provide]                PROVIDE (__stop_sdh_req_observers, .)

.sdh_state_observers
                0x0003a7e4        0x0
                [!provide]                PROVIDE (__start_sdh_state_observers, .)
 *(SORT(.sdh_state_observers*))
                [!provide]                PROVIDE (__stop_sdh_state_observers, .)

.sdh_ant_observers
                0x0003a7e4        0x0
                [!provide]                PROVIDE (__start_sdh_ant_observers, .)
 *(SORT(.sdh_ant_observers*))
                [!provide]                PROVIDE (__stop_sdh_ant_observers, .)

.sdh_ble_observers
                0x0003a7e4        0x0
                [!provide]                PROVIDE (__start_sdh_ble_observers, .)
 *(SORT(.sdh_ble_observers*))
                [!provide]                PROVIDE (__stop_sdh_ble_observers, .)

.sdh_soc_observers
                0x0003a7e4        0x0
                [!provide]                PROVIDE (__start_sdh_soc_observers, .)
 *(SORT(.sdh_soc_observers*))
                [!provide]                PROVIDE (__stop_sdh_soc_observers, .)

.nrf_mesh_flash
                0x0003a7e4       0xb8
                [!provide]                PROVIDE (__start_nrf_mesh_flash, .)
 *(SORT(.nrf_mesh_flash.*))
 .nrf_mesh_flash.mesh_config_entries__0
                0x0003a7e4        0x0 examples/light_switch/server/CMakeFiles/light_switch_server_nrf52840_xxAA_s140_6.0.0.dir/__/__/__/mesh/core/src/mesh_config.c.obj
                0x0003a7e4                __nrf_mesh_start_mesh_config_entries
 .nrf_mesh_flash.mesh_config_entries__1
                0x0003a7e4       0x1c examples/light_switch/server/CMakeFiles/light_switch_server_nrf52840_xxAA_s140_6.0.0.dir/__/__/__/mesh/core/src/heartbeat.c.obj
                0x0003a7e4                m_heartbeat_publication_params
 .nrf_mesh_flash.mesh_config_entries__1
                0x0003a800       0x1c examples/light_switch/server/CMakeFiles/light_switch_server_nrf52840_xxAA_s140_6.0.0.dir/__/__/__/mesh/core/src/net_beacon.c.obj
                0x0003a800                m_net_beacon_enable_params
 .nrf_mesh_flash.mesh_config_entries__1
                0x0003a81c       0x54 examples/light_switch/server/CMakeFiles/light_switch_server_nrf52840_xxAA_s140_6.0.0.dir/__/__/__/mesh/core/src/core_tx_adv.c.obj
                0x0003a81c                m_mesh_opt_core_adv_addr_params
                0x0003a838                m_mesh_opt_core_tx_power_params
                0x0003a854                m_mesh_opt_core_adv_params
 .nrf_mesh_flash.mesh_config_entries__1
                0x0003a870       0x1c examples/light_switch/server/CMakeFiles/light_switch_server_nrf52840_xxAA_s140_6.0.0.dir/__/__/__/mesh/prov/src/prov_utils.c.obj
                0x0003a870                m_ecdh_offloading_params
 .nrf_mesh_flash.mesh_config_entries__2
                0x0003a88c        0x0 examples/light_switch/server/CMakeFiles/light_switch_server_nrf52840_xxAA_s140_6.0.0.dir/__/__/__/mesh/core/src/mesh_config.c.obj
                0x0003a88c                __nrf_mesh_stop_mesh_config_entries
 .nrf_mesh_flash.mesh_config_entry_listeners__0
                0x0003a88c        0x0 examples/light_switch/server/CMakeFiles/light_switch_server_nrf52840_xxAA_s140_6.0.0.dir/__/__/__/mesh/core/src/mesh_config.c.obj
                0x0003a88c                __nrf_mesh_start_mesh_config_entry_listeners
 .nrf_mesh_flash.mesh_config_entry_listeners__1
                0x0003a88c        0x8 examples/light_switch/server/CMakeFiles/light_switch_server_nrf52840_xxAA_s140_6.0.0.dir/__/__/__/mesh/core/src/heartbeat.c.obj
                0x0003a88c                m_heartbeat_relay_listener
 .nrf_mesh_flash.mesh_config_entry_listeners__2
                0x0003a894        0x0 examples/light_switch/server/CMakeFiles/light_switch_server_nrf52840_xxAA_s140_6.0.0.dir/__/__/__/mesh/core/src/mesh_config.c.obj
                0x0003a894                __nrf_mesh_stop_mesh_config_entry_listeners
 .nrf_mesh_flash.mesh_config_files__0
                0x0003a894        0x0 examples/light_switch/server/CMakeFiles/light_switch_server_nrf52840_xxAA_s140_6.0.0.dir/__/__/__/mesh/core/src/mesh_config.c.obj
                0x0003a894                __nrf_mesh_start_mesh_config_files
 .nrf_mesh_flash.mesh_config_files__1
                0x0003a894        0x8 examples/light_switch/server/CMakeFiles/light_switch_server_nrf52840_xxAA_s140_6.0.0.dir/__/__/__/mesh/core/src/mesh_opt.c.obj
                0x0003a894                m_mesh_opt_core_file
 .nrf_mesh_flash.mesh_config_files__2
                0x0003a89c        0x0 examples/light_switch/server/CMakeFiles/light_switch_server_nrf52840_xxAA_s140_6.0.0.dir/__/__/__/mesh/core/src/mesh_config.c.obj
                0x0003a89c                __nrf_mesh_stop_mesh_config_files
                [!provide]                PROVIDE (__stop_nrf_mesh_flash, .)

.ARM.extab
 *(.ARM.extab* .gnu.linkonce.armextab.*)
                0x0003a89c                __exidx_start = .

.ARM.exidx      0x0003a89c        0x8
 *(.ARM.exidx* .gnu.linkonce.armexidx.*)
 .ARM.exidx     0x0003a89c        0x8 c:/arm_gcc/bin/../lib/gcc/arm-none-eabi/6.3.1/../../../../arm-none-eabi/lib/thumb/v7e-m/fpv4-sp/hard/crt0.o
 .ARM.exidx     0x0003a8a4        0x0 c:/arm_gcc/bin/../lib/gcc/arm-none-eabi/6.3.1/thumb/v7e-m/fpv4-sp/hard\libgcc.a(_udivmoddi4.o)
                                  0x8 (size before relaxing)
                0x0003a8a4                __exidx_end = .
                0x0003a8a4                __etext = .

.rel.dyn        0x0003a8a4        0x0
 .rel.iplt      0x0003a8a4        0x0 c:/arm_gcc/bin/../lib/gcc/arm-none-eabi/6.3.1/thumb/v7e-m/fpv4-sp/hard/crtbegin.o

.data           0x20002da0      0x1a0 load address 0x0003a8a4
                0x20002da0                __data_start__ = .
 *(vtable)
 *(.data*)
 .data.m_onoff_server_0
                0x20002da0       0x50 examples/light_switch/server/CMakeFiles/light_switch_server_nrf52840_xxAA_s140_6.0.0.dir/src/main.c.obj
 .data.s_evt_handler.12015
                0x20002df0        0xc examples/light_switch/server/CMakeFiles/light_switch_server_nrf52840_xxAA_s140_6.0.0.dir/__/__/__/mesh/stack/src/mesh_stack.c.obj
 .data.wait.9235
                0x20002dfc        0x1 examples/light_switch/server/CMakeFiles/light_switch_server_nrf52840_xxAA_s140_6.0.0.dir/__/__/common/src/app_error_weak.c.obj
 *fill*         0x20002dfd        0x3 
 .data.mem_listener.10713
                0x20002e00       0x10 examples/light_switch/server/CMakeFiles/light_switch_server_nrf52840_xxAA_s140_6.0.0.dir/__/__/__/mesh/core/src/net_state.c.obj
 .data.mem_listener.10718
                0x20002e10       0x10 examples/light_switch/server/CMakeFiles/light_switch_server_nrf52840_xxAA_s140_6.0.0.dir/__/__/__/mesh/core/src/net_state.c.obj
 .data.mem_listener.10732
                0x20002e20       0x10 examples/light_switch/server/CMakeFiles/light_switch_server_nrf52840_xxAA_s140_6.0.0.dir/__/__/__/mesh/core/src/net_state.c.obj
 .data.mem_listener.10749
                0x20002e30       0x10 examples/light_switch/server/CMakeFiles/light_switch_server_nrf52840_xxAA_s140_6.0.0.dir/__/__/__/mesh/core/src/net_state.c.obj
 .data.m_nrf_mesh_listener
                0x20002e40        0xc examples/light_switch/server/CMakeFiles/light_switch_server_nrf52840_xxAA_s140_6.0.0.dir/__/__/__/mesh/core/src/nrf_mesh.c.obj
 .data.g_log_dbg_lvl
                0x20002e4c        0x4 examples/light_switch/server/CMakeFiles/light_switch_server_nrf52840_xxAA_s140_6.0.0.dir/__/__/__/mesh/core/src/log.c.obj
                0x20002e4c                g_log_dbg_lvl
 .data.g_log_dbg_msk
                0x20002e50        0x4 examples/light_switch/server/CMakeFiles/light_switch_server_nrf52840_xxAA_s140_6.0.0.dir/__/__/__/mesh/core/src/log.c.obj
                0x20002e50                g_log_dbg_msk
 .data.g_log_hex_digits
                0x20002e54        0x4 examples/light_switch/server/CMakeFiles/light_switch_server_nrf52840_xxAA_s140_6.0.0.dir/__/__/__/mesh/core/src/log.c.obj
                0x20002e54                g_log_hex_digits
 .data.m_log_callback
                0x20002e58        0x4 examples/light_switch/server/CMakeFiles/light_switch_server_nrf52840_xxAA_s140_6.0.0.dir/__/__/__/mesh/core/src/log.c.obj
                0x20002e58                m_log_callback
 .data.m_default_adv
                0x20002e5c        0x4 examples/light_switch/server/CMakeFiles/light_switch_server_nrf52840_xxAA_s140_6.0.0.dir/__/__/__/mesh/core/src/core_tx_adv.c.obj
 .data.m_config_server_handle
                0x20002e60        0x2 examples/light_switch/server/CMakeFiles/light_switch_server_nrf52840_xxAA_s140_6.0.0.dir/__/__/__/models/foundation/config/src/config_server.c.obj
 *fill*         0x20002e62        0x2 
 .data.m_mesh_evt_handler
                0x20002e64        0xc examples/light_switch/server/CMakeFiles/light_switch_server_nrf52840_xxAA_s140_6.0.0.dir/__/__/__/models/foundation/config/src/config_server.c.obj
 .data.flash_add_mem_available_struct.11290
                0x20002e70       0x10 examples/light_switch/server/CMakeFiles/light_switch_server_nrf52840_xxAA_s140_6.0.0.dir/__/__/__/mesh/access/src/access.c.obj
 .data.flash_clear_mem_available_struct.11379
                0x20002e80       0x10 examples/light_switch/server/CMakeFiles/light_switch_server_nrf52840_xxAA_s140_6.0.0.dir/__/__/__/mesh/access/src/access.c.obj
 .data.flash_store_mem_available_struct.11403
                0x20002e90       0x10 examples/light_switch/server/CMakeFiles/light_switch_server_nrf52840_xxAA_s140_6.0.0.dir/__/__/__/mesh/access/src/access.c.obj
 .data.m_default_ttl
                0x20002ea0        0x1 examples/light_switch/server/CMakeFiles/light_switch_server_nrf52840_xxAA_s140_6.0.0.dir/__/__/__/mesh/access/src/access.c.obj
 *fill*         0x20002ea1        0x3 
 .data.mem_listener.11801
                0x20002ea4       0x10 examples/light_switch/server/CMakeFiles/light_switch_server_nrf52840_xxAA_s140_6.0.0.dir/__/__/__/mesh/access/src/device_state_manager.c.obj
 .data.mem_listener.11827
                0x20002eb4       0x10 examples/light_switch/server/CMakeFiles/light_switch_server_nrf52840_xxAA_s140_6.0.0.dir/__/__/__/mesh/access/src/device_state_manager.c.obj
 .data.m_async_process_flag
                0x20002ec4        0x4 examples/light_switch/server/CMakeFiles/light_switch_server_nrf52840_xxAA_s140_6.0.0.dir/__/__/__/mesh/prov/src/prov_bearer_adv.c.obj
 .data.SystemCoreClock
                0x20002ec8        0x4 examples/light_switch/server/CMakeFiles/light_switch_server_nrf52840_xxAA_s140_6.0.0.dir/C_/sdks/nRF5_SDK_15.0.0_a53641a/modules/nrfx/mdk/system_nrf52840.c.obj
                0x20002ec8                SystemCoreClock
 .data.g_rng_function
                0x20002ecc        0x4 external/micro-ecc/libuECC_nrf52840_xxAA.a(uECC.c.obj)
 .data._impure_ptr
                0x20002ed0        0x4 c:/arm_gcc/bin/../lib/gcc/arm-none-eabi/6.3.1/../../../../arm-none-eabi/lib/thumb/v7e-m/fpv4-sp/hard\libg_nano.a(lib_a-impure.o)
                0x20002ed0                _impure_ptr
 .data.impure_data
                0x20002ed4       0x60 c:/arm_gcc/bin/../lib/gcc/arm-none-eabi/6.3.1/../../../../arm-none-eabi/lib/thumb/v7e-m/fpv4-sp/hard\libg_nano.a(lib_a-impure.o)
                0x20002f34                . = ALIGN (0x4)
                0x20002f34                PROVIDE (__preinit_array_start, .)
 *(.preinit_array)
                0x20002f34                PROVIDE (__preinit_array_end, .)
                0x20002f34                . = ALIGN (0x4)
                0x20002f34                PROVIDE (__init_array_start, .)
 *(SORT(.init_array.*))
 *(.init_array)
 .init_array    0x20002f34        0x4 c:/arm_gcc/bin/../lib/gcc/arm-none-eabi/6.3.1/thumb/v7e-m/fpv4-sp/hard/crtbegin.o
                0x20002f38                PROVIDE (__init_array_end, .)
                0x20002f38                . = ALIGN (0x4)
                [!provide]                PROVIDE (__fini_array_start, .)
 *(SORT(.fini_array.*))
 *(.fini_array)
 .fini_array    0x20002f38        0x4 c:/arm_gcc/bin/../lib/gcc/arm-none-eabi/6.3.1/thumb/v7e-m/fpv4-sp/hard/crtbegin.o
                [!provide]                PROVIDE (__fini_array_end, .)
 *(.jcr*)
 .jcr           0x20002f3c        0x0 c:/arm_gcc/bin/../lib/gcc/arm-none-eabi/6.3.1/thumb/v7e-m/fpv4-sp/hard/crtbegin.o
 .jcr           0x20002f3c        0x4 c:/arm_gcc/bin/../lib/gcc/arm-none-eabi/6.3.1/thumb/v7e-m/fpv4-sp/hard/crtend.o
                0x20002f40                . = ALIGN (0x4)
                0x20002f40                __data_end__ = .
LOAD c:/arm_gcc/bin/../lib/gcc/arm-none-eabi/6.3.1/thumb/v7e-m/fpv4-sp/hard/crti.o
LOAD c:/arm_gcc/bin/../lib/gcc/arm-none-eabi/6.3.1/thumb/v7e-m/fpv4-sp/hard/crtbegin.o
LOAD c:/arm_gcc/bin/../lib/gcc/arm-none-eabi/6.3.1/../../../../arm-none-eabi/lib/thumb/v7e-m/fpv4-sp/hard/crt0.o
LOAD examples/light_switch/server/CMakeFiles/light_switch_server_nrf52840_xxAA_s140_6.0.0.dir/src/main.c.obj
LOAD examples/light_switch/server/CMakeFiles/light_switch_server_nrf52840_xxAA_s140_6.0.0.dir/__/__/common/src/app_onoff.c.obj
LOAD examples/light_switch/server/CMakeFiles/light_switch_server_nrf52840_xxAA_s140_6.0.0.dir/__/__/__/mesh/stack/src/mesh_stack.c.obj
LOAD examples/light_switch/server/CMakeFiles/light_switch_server_nrf52840_xxAA_s140_6.0.0.dir/__/__/common/src/mesh_softdevice_init.c.obj
LOAD examples/light_switch/server/CMakeFiles/light_switch_server_nrf52840_xxAA_s140_6.0.0.dir/__/__/common/src/mesh_provisionee.c.obj
LOAD examples/light_switch/server/CMakeFiles/light_switch_server_nrf52840_xxAA_s140_6.0.0.dir/__/__/common/src/rtt_input.c.obj
LOAD examples/light_switch/server/CMakeFiles/light_switch_server_nrf52840_xxAA_s140_6.0.0.dir/__/__/common/src/simple_hal.c.obj
LOAD examples/light_switch/server/CMakeFiles/light_switch_server_nrf52840_xxAA_s140_6.0.0.dir/__/__/common/src/mesh_app_utils.c.obj
LOAD examples/light_switch/server/CMakeFiles/light_switch_server_nrf52840_xxAA_s140_6.0.0.dir/__/__/nrf_mesh_weak.c.obj
LOAD examples/light_switch/server/CMakeFiles/light_switch_server_nrf52840_xxAA_s140_6.0.0.dir/__/__/common/src/app_error_weak.c.obj
LOAD examples/light_switch/server/CMakeFiles/light_switch_server_nrf52840_xxAA_s140_6.0.0.dir/__/__/common/src/assertion_handler_weak.c.obj
LOAD examples/light_switch/server/CMakeFiles/light_switch_server_nrf52840_xxAA_s140_6.0.0.dir/__/__/__/mesh/core/src/internal_event.c.obj
LOAD examples/light_switch/server/CMakeFiles/light_switch_server_nrf52840_xxAA_s140_6.0.0.dir/__/__/__/mesh/core/src/nrf_mesh_configure.c.obj
LOAD examples/light_switch/server/CMakeFiles/light_switch_server_nrf52840_xxAA_s140_6.0.0.dir/__/__/__/mesh/core/src/aes.c.obj
LOAD examples/light_switch/server/CMakeFiles/light_switch_server_nrf52840_xxAA_s140_6.0.0.dir/__/__/__/mesh/core/src/msg_cache.c.obj
LOAD examples/light_switch/server/CMakeFiles/light_switch_server_nrf52840_xxAA_s140_6.0.0.dir/__/__/__/mesh/core/src/transport.c.obj
LOAD examples/light_switch/server/CMakeFiles/light_switch_server_nrf52840_xxAA_s140_6.0.0.dir/__/__/__/mesh/core/src/event.c.obj
LOAD examples/light_switch/server/CMakeFiles/light_switch_server_nrf52840_xxAA_s140_6.0.0.dir/__/__/__/mesh/core/src/packet_buffer.c.obj
LOAD examples/light_switch/server/CMakeFiles/light_switch_server_nrf52840_xxAA_s140_6.0.0.dir/__/__/__/mesh/core/src/flash_manager_defrag.c.obj
LOAD examples/light_switch/server/CMakeFiles/light_switch_server_nrf52840_xxAA_s140_6.0.0.dir/__/__/__/mesh/core/src/fifo.c.obj
LOAD examples/light_switch/server/CMakeFiles/light_switch_server_nrf52840_xxAA_s140_6.0.0.dir/__/__/__/mesh/core/src/nrf_flash.c.obj
LOAD examples/light_switch/server/CMakeFiles/light_switch_server_nrf52840_xxAA_s140_6.0.0.dir/__/__/__/mesh/core/src/packet_mgr.c.obj
LOAD examples/light_switch/server/CMakeFiles/light_switch_server_nrf52840_xxAA_s140_6.0.0.dir/__/__/__/mesh/core/src/net_state.c.obj
LOAD examples/light_switch/server/CMakeFiles/light_switch_server_nrf52840_xxAA_s140_6.0.0.dir/__/__/__/mesh/core/src/mesh_flash.c.obj
LOAD examples/light_switch/server/CMakeFiles/light_switch_server_nrf52840_xxAA_s140_6.0.0.dir/__/__/__/mesh/core/src/nrf_mesh_utils.c.obj
LOAD examples/light_switch/server/CMakeFiles/light_switch_server_nrf52840_xxAA_s140_6.0.0.dir/__/__/__/mesh/core/src/nrf_mesh.c.obj
LOAD examples/light_switch/server/CMakeFiles/light_switch_server_nrf52840_xxAA_s140_6.0.0.dir/__/__/__/mesh/core/src/queue.c.obj
LOAD examples/light_switch/server/CMakeFiles/light_switch_server_nrf52840_xxAA_s140_6.0.0.dir/__/__/__/mesh/core/src/hal.c.obj
LOAD examples/light_switch/server/CMakeFiles/light_switch_server_nrf52840_xxAA_s140_6.0.0.dir/__/__/__/mesh/core/src/aes_cmac.c.obj
LOAD examples/light_switch/server/CMakeFiles/light_switch_server_nrf52840_xxAA_s140_6.0.0.dir/__/__/__/mesh/core/src/timer_scheduler.c.obj
LOAD examples/light_switch/server/CMakeFiles/light_switch_server_nrf52840_xxAA_s140_6.0.0.dir/__/__/__/mesh/core/src/timer.c.obj
LOAD examples/light_switch/server/CMakeFiles/light_switch_server_nrf52840_xxAA_s140_6.0.0.dir/__/__/__/mesh/core/src/rand.c.obj
LOAD examples/light_switch/server/CMakeFiles/light_switch_server_nrf52840_xxAA_s140_6.0.0.dir/__/__/__/mesh/core/src/nrf_mesh_opt.c.obj
LOAD examples/light_switch/server/CMakeFiles/light_switch_server_nrf52840_xxAA_s140_6.0.0.dir/__/__/__/mesh/core/src/mesh_opt.c.obj
LOAD examples/light_switch/server/CMakeFiles/light_switch_server_nrf52840_xxAA_s140_6.0.0.dir/__/__/__/mesh/core/src/timeslot.c.obj
LOAD examples/light_switch/server/CMakeFiles/light_switch_server_nrf52840_xxAA_s140_6.0.0.dir/__/__/__/mesh/core/src/bearer_event.c.obj
LOAD examples/light_switch/server/CMakeFiles/light_switch_server_nrf52840_xxAA_s140_6.0.0.dir/__/__/__/mesh/core/src/enc.c.obj
LOAD examples/light_switch/server/CMakeFiles/light_switch_server_nrf52840_xxAA_s140_6.0.0.dir/__/__/__/mesh/core/src/network.c.obj
LOAD examples/light_switch/server/CMakeFiles/light_switch_server_nrf52840_xxAA_s140_6.0.0.dir/__/__/__/mesh/core/src/net_packet.c.obj
LOAD examples/light_switch/server/CMakeFiles/light_switch_server_nrf52840_xxAA_s140_6.0.0.dir/__/__/__/mesh/core/src/msqueue.c.obj
LOAD examples/light_switch/server/CMakeFiles/light_switch_server_nrf52840_xxAA_s140_6.0.0.dir/__/__/__/mesh/core/src/nrf_mesh_keygen.c.obj
LOAD examples/light_switch/server/CMakeFiles/light_switch_server_nrf52840_xxAA_s140_6.0.0.dir/__/__/__/mesh/core/src/cache.c.obj
LOAD examples/light_switch/server/CMakeFiles/light_switch_server_nrf52840_xxAA_s140_6.0.0.dir/__/__/__/mesh/core/src/list.c.obj
LOAD examples/light_switch/server/CMakeFiles/light_switch_server_nrf52840_xxAA_s140_6.0.0.dir/__/__/__/mesh/core/src/log.c.obj
LOAD examples/light_switch/server/CMakeFiles/light_switch_server_nrf52840_xxAA_s140_6.0.0.dir/__/__/__/mesh/core/src/flash_manager.c.obj
LOAD examples/light_switch/server/CMakeFiles/light_switch_server_nrf52840_xxAA_s140_6.0.0.dir/__/__/__/mesh/core/src/ccm_soft.c.obj
LOAD examples/light_switch/server/CMakeFiles/light_switch_server_nrf52840_xxAA_s140_6.0.0.dir/__/__/__/mesh/core/src/toolchain.c.obj
LOAD examples/light_switch/server/CMakeFiles/light_switch_server_nrf52840_xxAA_s140_6.0.0.dir/__/__/__/mesh/core/src/replay_cache.c.obj
LOAD examples/light_switch/server/CMakeFiles/light_switch_server_nrf52840_xxAA_s140_6.0.0.dir/__/__/__/mesh/core/src/beacon.c.obj
LOAD examples/light_switch/server/CMakeFiles/light_switch_server_nrf52840_xxAA_s140_6.0.0.dir/__/__/__/mesh/core/src/flash_manager_internal.c.obj
LOAD examples/light_switch/server/CMakeFiles/light_switch_server_nrf52840_xxAA_s140_6.0.0.dir/__/__/__/mesh/core/src/core_tx.c.obj
LOAD examples/light_switch/server/CMakeFiles/light_switch_server_nrf52840_xxAA_s140_6.0.0.dir/__/__/__/mesh/core/src/heartbeat.c.obj
LOAD examples/light_switch/server/CMakeFiles/light_switch_server_nrf52840_xxAA_s140_6.0.0.dir/__/__/__/mesh/core/src/net_beacon.c.obj
LOAD examples/light_switch/server/CMakeFiles/light_switch_server_nrf52840_xxAA_s140_6.0.0.dir/__/__/__/mesh/core/src/mesh_config.c.obj
LOAD examples/light_switch/server/CMakeFiles/light_switch_server_nrf52840_xxAA_s140_6.0.0.dir/__/__/__/mesh/core/src/fsm.c.obj
LOAD examples/light_switch/server/CMakeFiles/light_switch_server_nrf52840_xxAA_s140_6.0.0.dir/__/__/__/mesh/core/src/mesh_config_backend.c.obj
LOAD examples/light_switch/server/CMakeFiles/light_switch_server_nrf52840_xxAA_s140_6.0.0.dir/__/__/__/mesh/core/src/mesh_config_flashman_glue.c.obj
LOAD examples/light_switch/server/CMakeFiles/light_switch_server_nrf52840_xxAA_s140_6.0.0.dir/__/__/__/mesh/core/src/core_tx_adv.c.obj
LOAD examples/light_switch/server/CMakeFiles/light_switch_server_nrf52840_xxAA_s140_6.0.0.dir/__/__/__/mesh/bearer/src/ad_listener.c.obj
LOAD examples/light_switch/server/CMakeFiles/light_switch_server_nrf52840_xxAA_s140_6.0.0.dir/__/__/__/mesh/bearer/src/ad_type_filter.c.obj
LOAD examples/light_switch/server/CMakeFiles/light_switch_server_nrf52840_xxAA_s140_6.0.0.dir/__/__/__/mesh/bearer/src/adv_packet_filter.c.obj
LOAD examples/light_switch/server/CMakeFiles/light_switch_server_nrf52840_xxAA_s140_6.0.0.dir/__/__/__/mesh/bearer/src/advertiser.c.obj
LOAD examples/light_switch/server/CMakeFiles/light_switch_server_nrf52840_xxAA_s140_6.0.0.dir/__/__/__/mesh/bearer/src/bearer_handler.c.obj
LOAD examples/light_switch/server/CMakeFiles/light_switch_server_nrf52840_xxAA_s140_6.0.0.dir/__/__/__/mesh/bearer/src/broadcast.c.obj
LOAD examples/light_switch/server/CMakeFiles/light_switch_server_nrf52840_xxAA_s140_6.0.0.dir/__/__/__/mesh/bearer/src/filter_engine.c.obj
LOAD examples/light_switch/server/CMakeFiles/light_switch_server_nrf52840_xxAA_s140_6.0.0.dir/__/__/__/mesh/bearer/src/gap_address_filter.c.obj
LOAD examples/light_switch/server/CMakeFiles/light_switch_server_nrf52840_xxAA_s140_6.0.0.dir/__/__/__/mesh/bearer/src/radio_config.c.obj
LOAD examples/light_switch/server/CMakeFiles/light_switch_server_nrf52840_xxAA_s140_6.0.0.dir/__/__/__/mesh/bearer/src/rssi_filter.c.obj
LOAD examples/light_switch/server/CMakeFiles/light_switch_server_nrf52840_xxAA_s140_6.0.0.dir/__/__/__/mesh/bearer/src/scanner.c.obj
LOAD examples/light_switch/server/CMakeFiles/light_switch_server_nrf52840_xxAA_s140_6.0.0.dir/__/__/__/mesh/bearer/src/mesh_pa_lna.c.obj
LOAD examples/light_switch/server/CMakeFiles/light_switch_server_nrf52840_xxAA_s140_6.0.0.dir/__/__/__/models/foundation/config/src/composition_data.c.obj
LOAD examples/light_switch/server/CMakeFiles/light_switch_server_nrf52840_xxAA_s140_6.0.0.dir/__/__/__/models/foundation/config/src/config_server.c.obj
LOAD examples/light_switch/server/CMakeFiles/light_switch_server_nrf52840_xxAA_s140_6.0.0.dir/__/__/__/models/foundation/config/src/packed_index_list.c.obj
LOAD examples/light_switch/server/CMakeFiles/light_switch_server_nrf52840_xxAA_s140_6.0.0.dir/__/__/__/models/foundation/health/src/health_server.c.obj
LOAD examples/light_switch/server/CMakeFiles/light_switch_server_nrf52840_xxAA_s140_6.0.0.dir/__/__/__/models/model_spec/generic_onoff/src/generic_onoff_server.c.obj
LOAD examples/light_switch/server/CMakeFiles/light_switch_server_nrf52840_xxAA_s140_6.0.0.dir/__/__/__/models/model_spec/common/src/model_common.c.obj
LOAD examples/light_switch/server/CMakeFiles/light_switch_server_nrf52840_xxAA_s140_6.0.0.dir/__/__/__/mesh/access/src/access_publish.c.obj
LOAD examples/light_switch/server/CMakeFiles/light_switch_server_nrf52840_xxAA_s140_6.0.0.dir/__/__/__/mesh/access/src/access.c.obj
LOAD examples/light_switch/server/CMakeFiles/light_switch_server_nrf52840_xxAA_s140_6.0.0.dir/__/__/__/mesh/access/src/access_reliable.c.obj
LOAD examples/light_switch/server/CMakeFiles/light_switch_server_nrf52840_xxAA_s140_6.0.0.dir/__/__/__/mesh/access/src/access_loopback.c.obj
LOAD examples/light_switch/server/CMakeFiles/light_switch_server_nrf52840_xxAA_s140_6.0.0.dir/__/__/__/mesh/access/src/device_state_manager.c.obj
LOAD examples/light_switch/server/CMakeFiles/light_switch_server_nrf52840_xxAA_s140_6.0.0.dir/__/__/__/mesh/prov/src/prov_provisionee.c.obj
LOAD examples/light_switch/server/CMakeFiles/light_switch_server_nrf52840_xxAA_s140_6.0.0.dir/__/__/__/mesh/prov/src/nrf_mesh_prov.c.obj
LOAD examples/light_switch/server/CMakeFiles/light_switch_server_nrf52840_xxAA_s140_6.0.0.dir/__/__/__/mesh/prov/src/provisioning.c.obj
LOAD examples/light_switch/server/CMakeFiles/light_switch_server_nrf52840_xxAA_s140_6.0.0.dir/__/__/__/mesh/prov/src/prov_beacon.c.obj
LOAD examples/light_switch/server/CMakeFiles/light_switch_server_nrf52840_xxAA_s140_6.0.0.dir/__/__/__/mesh/prov/src/prov_utils.c.obj
LOAD examples/light_switch/server/CMakeFiles/light_switch_server_nrf52840_xxAA_s140_6.0.0.dir/__/__/__/mesh/prov/src/prov_bearer_adv.c.obj
LOAD examples/light_switch/server/CMakeFiles/light_switch_server_nrf52840_xxAA_s140_6.0.0.dir/C_/sdks/nRF5_SDK_15.0.0_a53641a/modules/nrfx/mdk/system_nrf52840.c.obj
LOAD examples/light_switch/server/CMakeFiles/light_switch_server_nrf52840_xxAA_s140_6.0.0.dir/C_/sdks/nRF5_SDK_15.0.0_a53641a/modules/nrfx/mdk/gcc_startup_nrf52840.S.obj
LOAD examples/light_switch/server/CMakeFiles/light_switch_server_nrf52840_xxAA_s140_6.0.0.dir/C_/sdks/nRF5_SDK_15.0.0_a53641a/components/libraries/util/app_error.c.obj
LOAD examples/light_switch/server/CMakeFiles/light_switch_server_nrf52840_xxAA_s140_6.0.0.dir/C_/sdks/nRF5_SDK_15.0.0_a53641a/components/libraries/util/app_util_platform.c.obj
LOAD examples/light_switch/server/CMakeFiles/light_switch_server_nrf52840_xxAA_s140_6.0.0.dir/C_/sdks/nRF5_SDK_15.0.0_a53641a/components/libraries/timer/app_timer.c.obj
LOAD examples/light_switch/server/CMakeFiles/light_switch_server_nrf52840_xxAA_s140_6.0.0.dir/C_/sdks/nRF5_SDK_15.0.0_a53641a/components/libraries/util/app_error_handler_gcc.c.obj
LOAD external/rtt/librtt_nrf52840_xxAA.a
LOAD external/micro-ecc/libuECC_nrf52840_xxAA.a
START GROUP
LOAD c:/arm_gcc/bin/../lib/gcc/arm-none-eabi/6.3.1/thumb/v7e-m/fpv4-sp/hard\libgcc.a
LOAD c:/arm_gcc/bin/../lib/gcc/arm-none-eabi/6.3.1/../../../../arm-none-eabi/lib/thumb/v7e-m/fpv4-sp/hard\libg_nano.a
LOAD c:/arm_gcc/bin/../lib/gcc/arm-none-eabi/6.3.1/../../../../arm-none-eabi/lib/thumb/v7e-m/fpv4-sp/hard\libc_nano.a
END GROUP
START GROUP
LOAD c:/arm_gcc/bin/../lib/gcc/arm-none-eabi/6.3.1/thumb/v7e-m/fpv4-sp/hard\libgcc.a
LOAD c:/arm_gcc/bin/../lib/gcc/arm-none-eabi/6.3.1/../../../../arm-none-eabi/lib/thumb/v7e-m/fpv4-sp/hard\libc_nano.a
END GROUP
LOAD c:/arm_gcc/bin/../lib/gcc/arm-none-eabi/6.3.1/thumb/v7e-m/fpv4-sp/hard/crtend.o
LOAD c:/arm_gcc/bin/../lib/gcc/arm-none-eabi/6.3.1/thumb/v7e-m/fpv4-sp/hard/crtn.o
START GROUP
LOAD c:/arm_gcc/bin/../lib/gcc/arm-none-eabi/6.3.1/thumb/v7e-m/fpv4-sp/hard\libgcc.a
LOAD c:/arm_gcc/bin/../lib/gcc/arm-none-eabi/6.3.1/../../../../arm-none-eabi/lib/thumb/v7e-m/fpv4-sp/hard\libc.a
LOAD c:/arm_gcc/bin/../lib/gcc/arm-none-eabi/6.3.1/../../../../arm-none-eabi/lib/thumb/v7e-m/fpv4-sp/hard\libnosys.a
END GROUP

.igot.plt       0x20002f40        0x0 load address 0x0003aa44
 .igot.plt      0x20002f40        0x0 c:/arm_gcc/bin/../lib/gcc/arm-none-eabi/6.3.1/thumb/v7e-m/fpv4-sp/hard/crtbegin.o
                0x20002f40                . = ALIGN (0x4)

.svc_data       0x20002f40        0x0
                [!provide]                PROVIDE (__start_svc_data, .)
 *(.svc_data)
                [!provide]                PROVIDE (__stop_svc_data, .)

.fs_data        0x20002f40        0x0
                [!provide]                PROVIDE (__start_fs_data, .)
 *(.fs_data)
                [!provide]                PROVIDE (__stop_fs_data, .)

.log_dynamic_data
                0x20002f40        0x0
                [!provide]                PROVIDE (__start_log_dynamic_data, .)
 *(.log_dynamic_data)
                [!provide]                PROVIDE (__stop_log_dynamic_data, .)

.cli_sorted_cmd_ptrs
                0x20002f40        0x0
                [!provide]                PROVIDE (__start_cli_sorted_cmd_ptrs, .)
 *(.cli_sorted_cmd_ptrs)
                [!provide]                PROVIDE (__stop_cli_sorted_cmd_ptrs, .)

.nrf_mesh_ram   0x20002f40        0x0
                [!provide]                PROVIDE (__start_nrf_mesh_ram, .)
 *(SORT(.nrf_mesh_ram.*))
                [!provide]                PROVIDE (__stop_nrf_mesh_ram, .)

.bss            0x20002f40     0x317c load address 0x0003aa48
                0x20002f40                . = ALIGN (0x4)
                0x20002f40                __bss_start__ = .
 *(.bss*)
 .bss           0x20002f40       0x1c c:/arm_gcc/bin/../lib/gcc/arm-none-eabi/6.3.1/thumb/v7e-m/fpv4-sp/hard/crtbegin.o
 .bss.m_device_provisioned
                0x20002f5c        0x1 examples/light_switch/server/CMakeFiles/light_switch_server_nrf52840_xxAA_s140_6.0.0.dir/src/main.c.obj
 *fill*         0x20002f5d        0x3 
 .bss.m_onoff_server_0_timer_data
                0x20002f60       0x20 examples/light_switch/server/CMakeFiles/light_switch_server_nrf52840_xxAA_s140_6.0.0.dir/src/main.c.obj
 .bss.m_health_server
                0x20002f80       0x5c examples/light_switch/server/CMakeFiles/light_switch_server_nrf52840_xxAA_s140_6.0.0.dir/__/__/__/mesh/stack/src/mesh_stack.c.obj
 .bss.m_device_provisioned
                0x20002fdc        0x1 examples/light_switch/server/CMakeFiles/light_switch_server_nrf52840_xxAA_s140_6.0.0.dir/__/__/common/src/mesh_provisionee.c.obj
 *fill*         0x20002fdd        0x3 
 .bss.m_params  0x20002fe0        0xc examples/light_switch/server/CMakeFiles/light_switch_server_nrf52840_xxAA_s140_6.0.0.dir/__/__/common/src/mesh_provisionee.c.obj
 .bss.m_private_key
                0x20002fec       0x20 examples/light_switch/server/CMakeFiles/light_switch_server_nrf52840_xxAA_s140_6.0.0.dir/__/__/common/src/mesh_provisionee.c.obj
 .bss.m_prov_bearer_adv
                0x2000300c      0x1c8 examples/light_switch/server/CMakeFiles/light_switch_server_nrf52840_xxAA_s140_6.0.0.dir/__/__/common/src/mesh_provisionee.c.obj
 .bss.m_prov_ctx
                0x200031d4      0x134 examples/light_switch/server/CMakeFiles/light_switch_server_nrf52840_xxAA_s140_6.0.0.dir/__/__/common/src/mesh_provisionee.c.obj
 .bss.m_public_key
                0x20003308       0x40 examples/light_switch/server/CMakeFiles/light_switch_server_nrf52840_xxAA_s140_6.0.0.dir/__/__/common/src/mesh_provisionee.c.obj
 .bss.m_rtt_input_handler
                0x20003348        0x4 examples/light_switch/server/CMakeFiles/light_switch_server_nrf52840_xxAA_s140_6.0.0.dir/__/__/common/src/rtt_input.c.obj
 .bss.m_rtt_timer_data
                0x2000334c       0x20 examples/light_switch/server/CMakeFiles/light_switch_server_nrf52840_xxAA_s140_6.0.0.dir/__/__/common/src/rtt_input.c.obj
 .bss.m_blink_count
                0x2000336c        0x4 examples/light_switch/server/CMakeFiles/light_switch_server_nrf52840_xxAA_s140_6.0.0.dir/__/__/common/src/simple_hal.c.obj
 .bss.m_blink_mask
                0x20003370        0x4 examples/light_switch/server/CMakeFiles/light_switch_server_nrf52840_xxAA_s140_6.0.0.dir/__/__/common/src/simple_hal.c.obj
 .bss.m_blink_timer_data
                0x20003374       0x20 examples/light_switch/server/CMakeFiles/light_switch_server_nrf52840_xxAA_s140_6.0.0.dir/__/__/common/src/simple_hal.c.obj
 .bss.m_button_handler_cb
                0x20003394        0x4 examples/light_switch/server/CMakeFiles/light_switch_server_nrf52840_xxAA_s140_6.0.0.dir/__/__/common/src/simple_hal.c.obj
 .bss.m_last_button_press
                0x20003398        0x4 examples/light_switch/server/CMakeFiles/light_switch_server_nrf52840_xxAA_s140_6.0.0.dir/__/__/common/src/simple_hal.c.obj
 .bss.m_uuid    0x2000339c       0x10 examples/light_switch/server/CMakeFiles/light_switch_server_nrf52840_xxAA_s140_6.0.0.dir/__/__/__/mesh/core/src/nrf_mesh_configure.c.obj
 .bss.m_msg_cache
                0x200033ac      0x100 examples/light_switch/server/CMakeFiles/light_switch_server_nrf52840_xxAA_s140_6.0.0.dir/__/__/__/mesh/core/src/msg_cache.c.obj
 .bss.m_msg_cache_head
                0x200034ac        0x4 examples/light_switch/server/CMakeFiles/light_switch_server_nrf52840_xxAA_s140_6.0.0.dir/__/__/__/mesh/core/src/msg_cache.c.obj
 .bss.m_control_packet_consumer_count
                0x200034b0        0x4 examples/light_switch/server/CMakeFiles/light_switch_server_nrf52840_xxAA_s140_6.0.0.dir/__/__/__/mesh/core/src/transport.c.obj
 .bss.m_control_packet_consumers
                0x200034b4        0x8 examples/light_switch/server/CMakeFiles/light_switch_server_nrf52840_xxAA_s140_6.0.0.dir/__/__/__/mesh/core/src/transport.c.obj
 .bss.m_sar_alloc
                0x200034bc        0x4 examples/light_switch/server/CMakeFiles/light_switch_server_nrf52840_xxAA_s140_6.0.0.dir/__/__/__/mesh/core/src/transport.c.obj
 .bss.m_sar_process_flag
                0x200034c0        0x4 examples/light_switch/server/CMakeFiles/light_switch_server_nrf52840_xxAA_s140_6.0.0.dir/__/__/__/mesh/core/src/transport.c.obj
 .bss.m_sar_release
                0x200034c4        0x4 examples/light_switch/server/CMakeFiles/light_switch_server_nrf52840_xxAA_s140_6.0.0.dir/__/__/__/mesh/core/src/transport.c.obj
 .bss.m_sar_session_cache
                0x200034c8       0x40 examples/light_switch/server/CMakeFiles/light_switch_server_nrf52840_xxAA_s140_6.0.0.dir/__/__/__/mesh/core/src/transport.c.obj
 .bss.m_sar_session_cache_head
                0x20003508        0x4 examples/light_switch/server/CMakeFiles/light_switch_server_nrf52840_xxAA_s140_6.0.0.dir/__/__/__/mesh/core/src/transport.c.obj
 .bss.m_trs_config
                0x2000350c       0x18 examples/light_switch/server/CMakeFiles/light_switch_server_nrf52840_xxAA_s140_6.0.0.dir/__/__/__/mesh/core/src/transport.c.obj
 .bss.m_trs_sar_sessions
                0x20003524      0x1b0 examples/light_switch/server/CMakeFiles/light_switch_server_nrf52840_xxAA_s140_6.0.0.dir/__/__/__/mesh/core/src/transport.c.obj
 .bss.m_event_handler_state
                0x200036d4        0x1 examples/light_switch/server/CMakeFiles/light_switch_server_nrf52840_xxAA_s140_6.0.0.dir/__/__/__/mesh/core/src/event.c.obj
 *fill*         0x200036d5        0x3 
 .bss.mp_evt_handlers_head
                0x200036d8        0x4 examples/light_switch/server/CMakeFiles/light_switch_server_nrf52840_xxAA_s140_6.0.0.dir/__/__/__/mesh/core/src/event.c.obj
 .bss.m_defrag  0x200036dc       0x1c examples/light_switch/server/CMakeFiles/light_switch_server_nrf52840_xxAA_s140_6.0.0.dir/__/__/__/mesh/core/src/flash_manager_defrag.c.obj
 .bss.m_token   0x200036f8        0x2 examples/light_switch/server/CMakeFiles/light_switch_server_nrf52840_xxAA_s140_6.0.0.dir/__/__/__/mesh/core/src/flash_manager_defrag.c.obj
 *fill*         0x200036fa        0x2 
 .bss.mp_recovery_area
                0x200036fc        0x4 examples/light_switch/server/CMakeFiles/light_switch_server_nrf52840_xxAA_s140_6.0.0.dir/__/__/__/mesh/core/src/flash_manager_defrag.c.obj
 .bss.p_null_ptr.10617
                0x20003700        0x4 examples/light_switch/server/CMakeFiles/light_switch_server_nrf52840_xxAA_s140_6.0.0.dir/__/__/__/mesh/core/src/flash_manager_defrag.c.obj
 .bss.m_pool    0x20003704     0x1000 examples/light_switch/server/CMakeFiles/light_switch_server_nrf52840_xxAA_s140_6.0.0.dir/__/__/__/mesh/core/src/packet_mgr.c.obj
 .bss.mp_free_head
                0x20004704        0x4 examples/light_switch/server/CMakeFiles/light_switch_server_nrf52840_xxAA_s140_6.0.0.dir/__/__/__/mesh/core/src/packet_mgr.c.obj
 .bss.lock_count.10778
                0x20004708        0x4 examples/light_switch/server/CMakeFiles/light_switch_server_nrf52840_xxAA_s140_6.0.0.dir/__/__/__/mesh/core/src/net_state.c.obj
 .bss.m_enabled
                0x2000470c        0x1 examples/light_switch/server/CMakeFiles/light_switch_server_nrf52840_xxAA_s140_6.0.0.dir/__/__/__/mesh/core/src/net_state.c.obj
 *fill*         0x2000470d        0x3 
 .bss.m_flash_manager
                0x20004710       0x24 examples/light_switch/server/CMakeFiles/light_switch_server_nrf52840_xxAA_s140_6.0.0.dir/__/__/__/mesh/core/src/net_state.c.obj
 .bss.m_iv_state_set
                0x20004734        0x1 examples/light_switch/server/CMakeFiles/light_switch_server_nrf52840_xxAA_s140_6.0.0.dir/__/__/__/mesh/core/src/net_state.c.obj
 *fill*         0x20004735        0x3 
 .bss.m_iv_update_timer
                0x20004738       0x18 examples/light_switch/server/CMakeFiles/light_switch_server_nrf52840_xxAA_s140_6.0.0.dir/__/__/__/mesh/core/src/net_state.c.obj
 .bss.m_mesh_evt_handler
                0x20004750        0xc examples/light_switch/server/CMakeFiles/light_switch_server_nrf52840_xxAA_s140_6.0.0.dir/__/__/__/mesh/core/src/net_state.c.obj
 .bss.m_net_state
                0x2000475c       0x14 examples/light_switch/server/CMakeFiles/light_switch_server_nrf52840_xxAA_s140_6.0.0.dir/__/__/__/mesh/core/src/net_state.c.obj
 .bss.m_seqnum_allocation_in_progress
                0x20004770        0x1 examples/light_switch/server/CMakeFiles/light_switch_server_nrf52840_xxAA_s140_6.0.0.dir/__/__/__/mesh/core/src/net_state.c.obj
 .bss.m_test_mode
                0x20004771        0x1 examples/light_switch/server/CMakeFiles/light_switch_server_nrf52840_xxAA_s140_6.0.0.dir/__/__/__/mesh/core/src/net_state.c.obj
 *fill*         0x20004772        0x2 
 .bss.m_event_flag
                0x20004774        0x4 examples/light_switch/server/CMakeFiles/light_switch_server_nrf52840_xxAA_s140_6.0.0.dir/__/__/__/mesh/core/src/mesh_flash.c.obj
 .bss.m_suspended
                0x20004778        0x1 examples/light_switch/server/CMakeFiles/light_switch_server_nrf52840_xxAA_s140_6.0.0.dir/__/__/__/mesh/core/src/mesh_flash.c.obj
 *fill*         0x20004779        0x3 
 .bss.m_users   0x2000477c      0x234 examples/light_switch/server/CMakeFiles/light_switch_server_nrf52840_xxAA_s140_6.0.0.dir/__/__/__/mesh/core/src/mesh_flash.c.obj
 .bss.m_is_enabled
                0x200049b0        0x1 examples/light_switch/server/CMakeFiles/light_switch_server_nrf52840_xxAA_s140_6.0.0.dir/__/__/__/mesh/core/src/nrf_mesh.c.obj
 .bss.m_is_initialized
                0x200049b1        0x1 examples/light_switch/server/CMakeFiles/light_switch_server_nrf52840_xxAA_s140_6.0.0.dir/__/__/__/mesh/core/src/nrf_mesh.c.obj
 *fill*         0x200049b2        0x2 
 .bss.m_rx_cb   0x200049b4        0x4 examples/light_switch/server/CMakeFiles/light_switch_server_nrf52840_xxAA_s140_6.0.0.dir/__/__/__/mesh/core/src/nrf_mesh.c.obj
 .bss.m_tx_token
                0x200049b8        0x4 examples/light_switch/server/CMakeFiles/light_switch_server_nrf52840_xxAA_s140_6.0.0.dir/__/__/__/mesh/core/src/nrf_mesh.c.obj
 .bss.m_event_flag
                0x200049bc        0x4 examples/light_switch/server/CMakeFiles/light_switch_server_nrf52840_xxAA_s140_6.0.0.dir/__/__/__/mesh/core/src/timer_scheduler.c.obj
 .bss.m_scheduler
                0x200049c0        0x8 examples/light_switch/server/CMakeFiles/light_switch_server_nrf52840_xxAA_s140_6.0.0.dir/__/__/__/mesh/core/src/timer_scheduler.c.obj
 .bss.m_attributes
                0x200049c8        0x3 examples/light_switch/server/CMakeFiles/light_switch_server_nrf52840_xxAA_s140_6.0.0.dir/__/__/__/mesh/core/src/timer.c.obj
 *fill*         0x200049cb        0x1 
 .bss.m_callbacks
                0x200049cc        0xc examples/light_switch/server/CMakeFiles/light_switch_server_nrf52840_xxAA_s140_6.0.0.dir/__/__/__/mesh/core/src/timer.c.obj
 .bss.m_is_in_ts
                0x200049d8        0x1 examples/light_switch/server/CMakeFiles/light_switch_server_nrf52840_xxAA_s140_6.0.0.dir/__/__/__/mesh/core/src/timer.c.obj
 *fill*         0x200049d9        0x3 
 .bss.m_reference_time
                0x200049dc        0x4 examples/light_switch/server/CMakeFiles/light_switch_server_nrf52840_xxAA_s140_6.0.0.dir/__/__/__/mesh/core/src/timer.c.obj
 .bss.m_timeouts
                0x200049e0        0xc examples/light_switch/server/CMakeFiles/light_switch_server_nrf52840_xxAA_s140_6.0.0.dir/__/__/__/mesh/core/src/timer.c.obj
 .bss.m_timer_mut
                0x200049ec        0x4 examples/light_switch/server/CMakeFiles/light_switch_server_nrf52840_xxAA_s140_6.0.0.dir/__/__/__/mesh/core/src/timer.c.obj
 .bss.m_ts_end_time
                0x200049f0        0x4 examples/light_switch/server/CMakeFiles/light_switch_server_nrf52840_xxAA_s140_6.0.0.dir/__/__/__/mesh/core/src/timer.c.obj
 .bss.mp_ppi_tasks
                0x200049f4        0xc examples/light_switch/server/CMakeFiles/light_switch_server_nrf52840_xxAA_s140_6.0.0.dir/__/__/__/mesh/core/src/timer.c.obj
 .bss.m_mesh_opt_core_file_backend_data
                0x20004a00       0x2c examples/light_switch/server/CMakeFiles/light_switch_server_nrf52840_xxAA_s140_6.0.0.dir/__/__/__/mesh/core/src/mesh_opt.c.obj
 .bss.m_current_timeslot
                0x20004a2c       0x1c examples/light_switch/server/CMakeFiles/light_switch_server_nrf52840_xxAA_s140_6.0.0.dir/__/__/__/mesh/core/src/timeslot.c.obj
 .bss.m_lfclk_ppm
                0x20004a48        0x4 examples/light_switch/server/CMakeFiles/light_switch_server_nrf52840_xxAA_s140_6.0.0.dir/__/__/__/mesh/core/src/timeslot.c.obj
 .bss.m_radio_request_earliest
                0x20004a4c       0x10 examples/light_switch/server/CMakeFiles/light_switch_server_nrf52840_xxAA_s140_6.0.0.dir/__/__/__/mesh/core/src/timeslot.c.obj
 .bss.m_state_lock
                0x20004a5c        0x1 examples/light_switch/server/CMakeFiles/light_switch_server_nrf52840_xxAA_s140_6.0.0.dir/__/__/__/mesh/core/src/timeslot.c.obj
 .bss.m_timeslot_forced_command
                0x20004a5d        0x1 examples/light_switch/server/CMakeFiles/light_switch_server_nrf52840_xxAA_s140_6.0.0.dir/__/__/__/mesh/core/src/timeslot.c.obj
 *fill*         0x20004a5e        0x2 
 .bss.s_last_rtc_value.9679
                0x20004a60        0x8 examples/light_switch/server/CMakeFiles/light_switch_server_nrf52840_xxAA_s140_6.0.0.dir/__/__/__/mesh/core/src/timeslot.c.obj
 .bss.m_bearer_event_fifo
                0x20004a68       0x14 examples/light_switch/server/CMakeFiles/light_switch_server_nrf52840_xxAA_s140_6.0.0.dir/__/__/__/mesh/core/src/bearer_event.c.obj
 .bss.m_bearer_event_fifo_buffer
                0x20004a7c      0x100 examples/light_switch/server/CMakeFiles/light_switch_server_nrf52840_xxAA_s140_6.0.0.dir/__/__/__/mesh/core/src/bearer_event.c.obj
 .bss.m_critical
                0x20004b7c        0x4 examples/light_switch/server/CMakeFiles/light_switch_server_nrf52840_xxAA_s140_6.0.0.dir/__/__/__/mesh/core/src/bearer_event.c.obj
 .bss.m_flag_count
                0x20004b80        0x4 examples/light_switch/server/CMakeFiles/light_switch_server_nrf52840_xxAA_s140_6.0.0.dir/__/__/__/mesh/core/src/bearer_event.c.obj
 .bss.m_flag_event_callbacks
                0x20004b84       0x24 examples/light_switch/server/CMakeFiles/light_switch_server_nrf52840_xxAA_s140_6.0.0.dir/__/__/__/mesh/core/src/bearer_event.c.obj
 .bss.m_flags   0x20004ba8        0x4 examples/light_switch/server/CMakeFiles/light_switch_server_nrf52840_xxAA_s140_6.0.0.dir/__/__/__/mesh/core/src/bearer_event.c.obj
 .bss.m_irq_priority
                0x20004bac        0x1 examples/light_switch/server/CMakeFiles/light_switch_server_nrf52840_xxAA_s140_6.0.0.dir/__/__/__/mesh/core/src/bearer_event.c.obj
 *fill*         0x20004bad        0x3 
 .bss.m_sequential_event_queue
                0x20004bb0        0x8 examples/light_switch/server/CMakeFiles/light_switch_server_nrf52840_xxAA_s140_6.0.0.dir/__/__/__/mesh/core/src/bearer_event.c.obj
 .bss.s_recursion_guard.9802
                0x20004bb8        0x1 examples/light_switch/server/CMakeFiles/light_switch_server_nrf52840_xxAA_s140_6.0.0.dir/__/__/__/mesh/core/src/bearer_event.c.obj
 *fill*         0x20004bb9        0x3 
 .bss.m_relay_check_cb
                0x20004bbc        0x4 examples/light_switch/server/CMakeFiles/light_switch_server_nrf52840_xxAA_s140_6.0.0.dir/__/__/__/mesh/core/src/network.c.obj
 .bss.m_action_queue
                0x20004bc0        0xc examples/light_switch/server/CMakeFiles/light_switch_server_nrf52840_xxAA_s140_6.0.0.dir/__/__/__/mesh/core/src/flash_manager.c.obj
 .bss.m_action_queue_buffer
                0x20004bcc      0x104 examples/light_switch/server/CMakeFiles/light_switch_server_nrf52840_xxAA_s140_6.0.0.dir/__/__/__/mesh/core/src/flash_manager.c.obj
 .bss.m_action_state
                0x20004cd0        0x1 examples/light_switch/server/CMakeFiles/light_switch_server_nrf52840_xxAA_s140_6.0.0.dir/__/__/__/mesh/core/src/flash_manager.c.obj
 *fill*         0x20004cd1        0x3 
 .bss.m_memory_listener_queue
                0x20004cd4        0x8 examples/light_switch/server/CMakeFiles/light_switch_server_nrf52840_xxAA_s140_6.0.0.dir/__/__/__/mesh/core/src/flash_manager.c.obj
 .bss.m_processing_flag
                0x20004cdc        0x4 examples/light_switch/server/CMakeFiles/light_switch_server_nrf52840_xxAA_s140_6.0.0.dir/__/__/__/mesh/core/src/flash_manager.c.obj
 .bss.m_queue_empty_cb
                0x20004ce0        0x4 examples/light_switch/server/CMakeFiles/light_switch_server_nrf52840_xxAA_s140_6.0.0.dir/__/__/__/mesh/core/src/flash_manager.c.obj
 .bss.m_state   0x20004ce4        0x1 examples/light_switch/server/CMakeFiles/light_switch_server_nrf52840_xxAA_s140_6.0.0.dir/__/__/__/mesh/core/src/flash_manager.c.obj
 *fill*         0x20004ce5        0x1 
 .bss.m_token   0x20004ce6        0x2 examples/light_switch/server/CMakeFiles/light_switch_server_nrf52840_xxAA_s140_6.0.0.dir/__/__/__/mesh/core/src/flash_manager.c.obj
 .bss.p_current.11525
                0x20004ce8        0x4 examples/light_switch/server/CMakeFiles/light_switch_server_nrf52840_xxAA_s140_6.0.0.dir/__/__/__/mesh/core/src/flash_manager.c.obj
 .bss.result.11526
                0x20004cec        0x1 examples/light_switch/server/CMakeFiles/light_switch_server_nrf52840_xxAA_s140_6.0.0.dir/__/__/__/mesh/core/src/flash_manager.c.obj
 .bss.m_cache_index
                0x20004ced        0x1 examples/light_switch/server/CMakeFiles/light_switch_server_nrf52840_xxAA_s140_6.0.0.dir/__/__/__/mesh/core/src/replay_cache.c.obj
 *fill*         0x20004cee        0x2 
 .bss.m_replay_cache
                0x20004cf0      0x280 examples/light_switch/server/CMakeFiles/light_switch_server_nrf52840_xxAA_s140_6.0.0.dir/__/__/__/mesh/core/src/replay_cache.c.obj
 .bss.m_bearer_count
                0x20004f70        0x1 examples/light_switch/server/CMakeFiles/light_switch_server_nrf52840_xxAA_s140_6.0.0.dir/__/__/__/mesh/core/src/core_tx.c.obj
 *fill*         0x20004f71        0x3 
 .bss.m_tx_complete_callback
                0x20004f74        0x4 examples/light_switch/server/CMakeFiles/light_switch_server_nrf52840_xxAA_s140_6.0.0.dir/__/__/__/mesh/core/src/core_tx.c.obj
 .bss.mp_bearers
                0x20004f78        0x4 examples/light_switch/server/CMakeFiles/light_switch_server_nrf52840_xxAA_s140_6.0.0.dir/__/__/__/mesh/core/src/core_tx.c.obj
 .bss.m_hb_core_evt_handler
                0x20004f7c        0xc examples/light_switch/server/CMakeFiles/light_switch_server_nrf52840_xxAA_s140_6.0.0.dir/__/__/__/mesh/core/src/heartbeat.c.obj
 .bss.m_hb_pending_feat_msg
                0x20004f88        0x1 examples/light_switch/server/CMakeFiles/light_switch_server_nrf52840_xxAA_s140_6.0.0.dir/__/__/__/mesh/core/src/heartbeat.c.obj
 .bss.m_hb_pending_pub_msg
                0x20004f89        0x1 examples/light_switch/server/CMakeFiles/light_switch_server_nrf52840_xxAA_s140_6.0.0.dir/__/__/__/mesh/core/src/heartbeat.c.obj
 .bss.m_heartbeat_init_done
                0x20004f8a        0x1 examples/light_switch/server/CMakeFiles/light_switch_server_nrf52840_xxAA_s140_6.0.0.dir/__/__/__/mesh/core/src/heartbeat.c.obj
 *fill*         0x20004f8b        0x1 
 .bss.m_heartbeat_publication
                0x20004f8c       0x14 examples/light_switch/server/CMakeFiles/light_switch_server_nrf52840_xxAA_s140_6.0.0.dir/__/__/__/mesh/core/src/heartbeat.c.obj
 .bss.m_heartbeat_publication_state
                0x20004fa0        0x1 examples/light_switch/server/CMakeFiles/light_switch_server_nrf52840_xxAA_s140_6.0.0.dir/__/__/__/mesh/core/src/heartbeat.c.obj
 *fill*         0x20004fa1        0x3 
 .bss.m_heartbeat_subscription
                0x20004fa4       0x10 examples/light_switch/server/CMakeFiles/light_switch_server_nrf52840_xxAA_s140_6.0.0.dir/__/__/__/mesh/core/src/heartbeat.c.obj
 .bss.m_latched_features
                0x20004fb4        0x1 examples/light_switch/server/CMakeFiles/light_switch_server_nrf52840_xxAA_s140_6.0.0.dir/__/__/__/mesh/core/src/heartbeat.c.obj
 *fill*         0x20004fb5        0x3 
 .bss.m_publication_timer
                0x20004fb8       0x1c examples/light_switch/server/CMakeFiles/light_switch_server_nrf52840_xxAA_s140_6.0.0.dir/__/__/__/mesh/core/src/heartbeat.c.obj
 .bss.m_subscription_timer
                0x20004fd4       0x18 examples/light_switch/server/CMakeFiles/light_switch_server_nrf52840_xxAA_s140_6.0.0.dir/__/__/__/mesh/core/src/heartbeat.c.obj
 .bss.mp_getter
                0x20004fec        0x4 examples/light_switch/server/CMakeFiles/light_switch_server_nrf52840_xxAA_s140_6.0.0.dir/__/__/__/mesh/core/src/heartbeat.c.obj
 .bss.m_adv     0x20004ff0       0x9c examples/light_switch/server/CMakeFiles/light_switch_server_nrf52840_xxAA_s140_6.0.0.dir/__/__/__/mesh/core/src/net_beacon.c.obj
 .bss.m_adv_buf
                0x2000508c       0x34 examples/light_switch/server/CMakeFiles/light_switch_server_nrf52840_xxAA_s140_6.0.0.dir/__/__/__/mesh/core/src/net_beacon.c.obj
 .bss.m_beacon_salt
                0x200050c0       0x10 examples/light_switch/server/CMakeFiles/light_switch_server_nrf52840_xxAA_s140_6.0.0.dir/__/__/__/mesh/core/src/net_beacon.c.obj
 .bss.m_enabled
                0x200050d0        0x1 examples/light_switch/server/CMakeFiles/light_switch_server_nrf52840_xxAA_s140_6.0.0.dir/__/__/__/mesh/core/src/net_beacon.c.obj
 .bss.m_net_beacon_enable_state
                0x200050d1        0x1 examples/light_switch/server/CMakeFiles/light_switch_server_nrf52840_xxAA_s140_6.0.0.dir/__/__/__/mesh/core/src/net_beacon.c.obj
 *fill*         0x200050d2        0x2 
 .bss.m_tx_timer
                0x200050d4       0x18 examples/light_switch/server/CMakeFiles/light_switch_server_nrf52840_xxAA_s140_6.0.0.dir/__/__/__/mesh/core/src/net_beacon.c.obj
 .bss.mp_beacon_info
                0x200050ec        0x4 examples/light_switch/server/CMakeFiles/light_switch_server_nrf52840_xxAA_s140_6.0.0.dir/__/__/__/mesh/core/src/net_beacon.c.obj
 .bss.m_file_count
                0x200050f0        0x4 examples/light_switch/server/CMakeFiles/light_switch_server_nrf52840_xxAA_s140_6.0.0.dir/__/__/__/mesh/core/src/mesh_config_backend.c.obj
 .bss.m_power_down_time_us
                0x200050f4        0x4 examples/light_switch/server/CMakeFiles/light_switch_server_nrf52840_xxAA_s140_6.0.0.dir/__/__/__/mesh/core/src/mesh_config_backend.c.obj
 .bss.mp_files  0x200050f8        0x4 examples/light_switch/server/CMakeFiles/light_switch_server_nrf52840_xxAA_s140_6.0.0.dir/__/__/__/mesh/core/src/mesh_config_backend.c.obj
 .bss.m_allocated_page_count
                0x200050fc        0x1 examples/light_switch/server/CMakeFiles/light_switch_server_nrf52840_xxAA_s140_6.0.0.dir/__/__/__/mesh/core/src/mesh_config_flashman_glue.c.obj
 *fill*         0x200050fd        0x3 
 .bss.m_evt_cb  0x20005100        0x4 examples/light_switch/server/CMakeFiles/light_switch_server_nrf52840_xxAA_s140_6.0.0.dir/__/__/__/mesh/core/src/mesh_config_flashman_glue.c.obj
 .bss.m_bearer  0x20005104        0xc examples/light_switch/server/CMakeFiles/light_switch_server_nrf52840_xxAA_s140_6.0.0.dir/__/__/__/mesh/core/src/core_tx_adv.c.obj
 .bss.m_bearer_roles
                0x20005110      0x140 examples/light_switch/server/CMakeFiles/light_switch_server_nrf52840_xxAA_s140_6.0.0.dir/__/__/__/mesh/core/src/core_tx_adv.c.obj
 .bss.m_current_alloc
                0x20005250        0x8 examples/light_switch/server/CMakeFiles/light_switch_server_nrf52840_xxAA_s140_6.0.0.dir/__/__/__/mesh/core/src/core_tx_adv.c.obj
 .bss.m_default_adv_addr
                0x20005258        0x7 examples/light_switch/server/CMakeFiles/light_switch_server_nrf52840_xxAA_s140_6.0.0.dir/__/__/__/mesh/core/src/core_tx_adv.c.obj
 .bss.m_mesh_opt_core_adv_addr_state
                0x2000525f        0x2 examples/light_switch/server/CMakeFiles/light_switch_server_nrf52840_xxAA_s140_6.0.0.dir/__/__/__/mesh/core/src/core_tx_adv.c.obj
 .bss.m_mesh_opt_core_adv_state
                0x20005261        0x2 examples/light_switch/server/CMakeFiles/light_switch_server_nrf52840_xxAA_s140_6.0.0.dir/__/__/__/mesh/core/src/core_tx_adv.c.obj
 .bss.m_mesh_opt_core_tx_power_state
                0x20005263        0x2 examples/light_switch/server/CMakeFiles/light_switch_server_nrf52840_xxAA_s140_6.0.0.dir/__/__/__/mesh/core/src/core_tx_adv.c.obj
 .bss.m_originator_adv_packet_buffer
                0x20005265      0x100 examples/light_switch/server/CMakeFiles/light_switch_server_nrf52840_xxAA_s140_6.0.0.dir/__/__/__/mesh/core/src/core_tx_adv.c.obj
 .bss.m_relay_adv_packet_buffer
                0x20005365       0x80 examples/light_switch/server/CMakeFiles/light_switch_server_nrf52840_xxAA_s140_6.0.0.dir/__/__/__/mesh/core/src/core_tx_adv.c.obj
 *fill*         0x200053e5        0x3 
 .bss.m_subscribers
                0x200053e8        0x4 examples/light_switch/server/CMakeFiles/light_switch_server_nrf52840_xxAA_s140_6.0.0.dir/__/__/__/mesh/bearer/src/ad_listener.c.obj
 .bss.m_adtype_filter
                0x200053ec       0x38 examples/light_switch/server/CMakeFiles/light_switch_server_nrf52840_xxAA_s140_6.0.0.dir/__/__/__/mesh/bearer/src/ad_type_filter.c.obj
 .bss.m_adv_prng
                0x20005424       0x10 examples/light_switch/server/CMakeFiles/light_switch_server_nrf52840_xxAA_s140_6.0.0.dir/__/__/__/mesh/bearer/src/advertiser.c.obj
 .bss.m_action_ended
                0x20005434        0x1 examples/light_switch/server/CMakeFiles/light_switch_server_nrf52840_xxAA_s140_6.0.0.dir/__/__/__/mesh/bearer/src/bearer_handler.c.obj
 *fill*         0x20005435        0x3 
 .bss.m_action_queue
                0x20005438        0x8 examples/light_switch/server/CMakeFiles/light_switch_server_nrf52840_xxAA_s140_6.0.0.dir/__/__/__/mesh/bearer/src/bearer_handler.c.obj
 .bss.m_end_time
                0x20005440        0x4 examples/light_switch/server/CMakeFiles/light_switch_server_nrf52840_xxAA_s140_6.0.0.dir/__/__/__/mesh/bearer/src/bearer_handler.c.obj
 .bss.m_in_callback
                0x20005444        0x1 examples/light_switch/server/CMakeFiles/light_switch_server_nrf52840_xxAA_s140_6.0.0.dir/__/__/__/mesh/bearer/src/bearer_handler.c.obj
 .bss.m_scanner_is_active
                0x20005445        0x1 examples/light_switch/server/CMakeFiles/light_switch_server_nrf52840_xxAA_s140_6.0.0.dir/__/__/__/mesh/bearer/src/bearer_handler.c.obj
 .bss.m_stopped
                0x20005446        0x1 examples/light_switch/server/CMakeFiles/light_switch_server_nrf52840_xxAA_s140_6.0.0.dir/__/__/__/mesh/bearer/src/bearer_handler.c.obj
 *fill*         0x20005447        0x1 
 .bss.mp_action
                0x20005448        0x4 examples/light_switch/server/CMakeFiles/light_switch_server_nrf52840_xxAA_s140_6.0.0.dir/__/__/__/mesh/bearer/src/bearer_handler.c.obj
 .bss.m_action_start_time
                0x2000544c        0x4 examples/light_switch/server/CMakeFiles/light_switch_server_nrf52840_xxAA_s140_6.0.0.dir/__/__/__/mesh/bearer/src/broadcast.c.obj
 .bss.m_next_channel_index
                0x20005450        0x1 examples/light_switch/server/CMakeFiles/light_switch_server_nrf52840_xxAA_s140_6.0.0.dir/__/__/__/mesh/bearer/src/broadcast.c.obj
 *fill*         0x20005451        0x3 
 .bss.m_accepted_amount
                0x20005454        0x4 examples/light_switch/server/CMakeFiles/light_switch_server_nrf52840_xxAA_s140_6.0.0.dir/__/__/__/mesh/bearer/src/filter_engine.c.obj
 .bss.m_filter_list_head
                0x20005458        0x4 examples/light_switch/server/CMakeFiles/light_switch_server_nrf52840_xxAA_s140_6.0.0.dir/__/__/__/mesh/bearer/src/filter_engine.c.obj
 .bss.m_scanner
                0x2000545c      0x298 examples/light_switch/server/CMakeFiles/light_switch_server_nrf52840_xxAA_s140_6.0.0.dir/__/__/__/mesh/bearer/src/scanner.c.obj
 .bss.m_gpiote  0x200056f4        0x6 examples/light_switch/server/CMakeFiles/light_switch_server_nrf52840_xxAA_s140_6.0.0.dir/__/__/__/mesh/bearer/src/mesh_pa_lna.c.obj
 *fill*         0x200056fa        0x2 
 .bss.m_evt_cb  0x200056fc        0x4 examples/light_switch/server/CMakeFiles/light_switch_server_nrf52840_xxAA_s140_6.0.0.dir/__/__/__/models/foundation/config/src/config_server.c.obj
 .bss.m_node_reset_pending
                0x20005700        0x1 examples/light_switch/server/CMakeFiles/light_switch_server_nrf52840_xxAA_s140_6.0.0.dir/__/__/__/models/foundation/config/src/config_server.c.obj
 *fill*         0x20005701        0x3 
 .bss.m_reset_token
                0x20005704        0x4 examples/light_switch/server/CMakeFiles/light_switch_server_nrf52840_xxAA_s140_6.0.0.dir/__/__/__/models/foundation/config/src/config_server.c.obj
 .bss.m_attention_timer
                0x20005708       0x18 examples/light_switch/server/CMakeFiles/light_switch_server_nrf52840_xxAA_s140_6.0.0.dir/__/__/__/models/foundation/health/src/health_server.c.obj
 .bss.mp_attention_list
                0x20005720        0x4 examples/light_switch/server/CMakeFiles/light_switch_server_nrf52840_xxAA_s140_6.0.0.dir/__/__/__/models/foundation/health/src/health_server.c.obj
 .bss.m_publish_timer
                0x20005724       0x18 examples/light_switch/server/CMakeFiles/light_switch_server_nrf52840_xxAA_s140_6.0.0.dir/__/__/__/mesh/access/src/access_publish.c.obj
 .bss.m_publish_timer_counter
                0x2000573c        0x4 examples/light_switch/server/CMakeFiles/light_switch_server_nrf52840_xxAA_s140_6.0.0.dir/__/__/__/mesh/access/src/access_publish.c.obj
 .bss.m_publish_timer_running
                0x20005740        0x1 examples/light_switch/server/CMakeFiles/light_switch_server_nrf52840_xxAA_s140_6.0.0.dir/__/__/__/mesh/access/src/access_publish.c.obj
 .bss.m_timer_resolution
                0x20005741        0x1 examples/light_switch/server/CMakeFiles/light_switch_server_nrf52840_xxAA_s140_6.0.0.dir/__/__/__/mesh/access/src/access_publish.c.obj
 *fill*         0x20005742        0x2 
 .bss.mp_publication_list
                0x20005744        0x4 examples/light_switch/server/CMakeFiles/light_switch_server_nrf52840_xxAA_s140_6.0.0.dir/__/__/__/mesh/access/src/access_publish.c.obj
 .bss.m_element_pool
                0x20005748        0x6 examples/light_switch/server/CMakeFiles/light_switch_server_nrf52840_xxAA_s140_6.0.0.dir/__/__/__/mesh/access/src/access.c.obj
 *fill*         0x2000574e        0x2 
 .bss.m_evt_handler
                0x20005750        0xc examples/light_switch/server/CMakeFiles/light_switch_server_nrf52840_xxAA_s140_6.0.0.dir/__/__/__/mesh/access/src/access.c.obj
 .bss.m_flash_manager
                0x2000575c       0x24 examples/light_switch/server/CMakeFiles/light_switch_server_nrf52840_xxAA_s140_6.0.0.dir/__/__/__/mesh/access/src/access.c.obj
 .bss.m_flash_not_ready
                0x20005780        0x1 examples/light_switch/server/CMakeFiles/light_switch_server_nrf52840_xxAA_s140_6.0.0.dir/__/__/__/mesh/access/src/access.c.obj
 .bss.m_metadata_stored
                0x20005781        0x1 examples/light_switch/server/CMakeFiles/light_switch_server_nrf52840_xxAA_s140_6.0.0.dir/__/__/__/mesh/access/src/access.c.obj
 *fill*         0x20005782        0x2 
 .bss.m_model_pool
                0x20005784       0x9c examples/light_switch/server/CMakeFiles/light_switch_server_nrf52840_xxAA_s140_6.0.0.dir/__/__/__/mesh/access/src/access.c.obj
 .bss.m_subscription_list_pool
                0x20005820        0x8 examples/light_switch/server/CMakeFiles/light_switch_server_nrf52840_xxAA_s140_6.0.0.dir/__/__/__/mesh/access/src/access.c.obj
 .bss.m_reliable
                0x20005828       0xa0 examples/light_switch/server/CMakeFiles/light_switch_server_nrf52840_xxAA_s140_6.0.0.dir/__/__/__/mesh/access/src/access_reliable.c.obj
 .bss.m_access_loopback_flag
                0x200058c8        0x4 examples/light_switch/server/CMakeFiles/light_switch_server_nrf52840_xxAA_s140_6.0.0.dir/__/__/__/mesh/access/src/access_loopback.c.obj
 .bss.mp_loopback_list_head
                0x200058cc        0x4 examples/light_switch/server/CMakeFiles/light_switch_server_nrf52840_xxAA_s140_6.0.0.dir/__/__/__/mesh/access/src/access_loopback.c.obj
 .bss.m_addr_nonvirtual_allocated
                0x200058d0        0x4 examples/light_switch/server/CMakeFiles/light_switch_server_nrf52840_xxAA_s140_6.0.0.dir/__/__/__/mesh/access/src/device_state_manager.c.obj
 .bss.m_addr_nonvirtual_needs_flashing
                0x200058d4        0x4 examples/light_switch/server/CMakeFiles/light_switch_server_nrf52840_xxAA_s140_6.0.0.dir/__/__/__/mesh/access/src/device_state_manager.c.obj
 .bss.m_addr_unicast_allocated
                0x200058d8        0x4 examples/light_switch/server/CMakeFiles/light_switch_server_nrf52840_xxAA_s140_6.0.0.dir/__/__/__/mesh/access/src/device_state_manager.c.obj
 .bss.m_addr_unicast_needs_flashing
                0x200058dc        0x4 examples/light_switch/server/CMakeFiles/light_switch_server_nrf52840_xxAA_s140_6.0.0.dir/__/__/__/mesh/access/src/device_state_manager.c.obj
 .bss.m_addr_virtual_allocated
                0x200058e0        0x4 examples/light_switch/server/CMakeFiles/light_switch_server_nrf52840_xxAA_s140_6.0.0.dir/__/__/__/mesh/access/src/device_state_manager.c.obj
 .bss.m_addr_virtual_needs_flashing
                0x200058e4        0x4 examples/light_switch/server/CMakeFiles/light_switch_server_nrf52840_xxAA_s140_6.0.0.dir/__/__/__/mesh/access/src/device_state_manager.c.obj
 .bss.m_addresses
                0x200058e8        0xc examples/light_switch/server/CMakeFiles/light_switch_server_nrf52840_xxAA_s140_6.0.0.dir/__/__/__/mesh/access/src/device_state_manager.c.obj
 .bss.m_appkey_allocated
                0x200058f4        0x4 examples/light_switch/server/CMakeFiles/light_switch_server_nrf52840_xxAA_s140_6.0.0.dir/__/__/__/mesh/access/src/device_state_manager.c.obj
 .bss.m_appkey_needs_flashing
                0x200058f8        0x4 examples/light_switch/server/CMakeFiles/light_switch_server_nrf52840_xxAA_s140_6.0.0.dir/__/__/__/mesh/access/src/device_state_manager.c.obj
 .bss.m_appkeys
                0x200058fc       0x2a examples/light_switch/server/CMakeFiles/light_switch_server_nrf52840_xxAA_s140_6.0.0.dir/__/__/__/mesh/access/src/device_state_manager.c.obj
 *fill*         0x20005926        0x2 
 .bss.m_devkey_allocated
                0x20005928        0x4 examples/light_switch/server/CMakeFiles/light_switch_server_nrf52840_xxAA_s140_6.0.0.dir/__/__/__/mesh/access/src/device_state_manager.c.obj
 .bss.m_devkey_needs_flashing
                0x2000592c        0x4 examples/light_switch/server/CMakeFiles/light_switch_server_nrf52840_xxAA_s140_6.0.0.dir/__/__/__/mesh/access/src/device_state_manager.c.obj
 .bss.m_devkeys
                0x20005930       0x16 examples/light_switch/server/CMakeFiles/light_switch_server_nrf52840_xxAA_s140_6.0.0.dir/__/__/__/mesh/access/src/device_state_manager.c.obj
 .bss.m_flash_is_available
                0x20005946        0x1 examples/light_switch/server/CMakeFiles/light_switch_server_nrf52840_xxAA_s140_6.0.0.dir/__/__/__/mesh/access/src/device_state_manager.c.obj
 *fill*         0x20005947        0x1 
 .bss.m_flash_manager
                0x20005948       0x24 examples/light_switch/server/CMakeFiles/light_switch_server_nrf52840_xxAA_s140_6.0.0.dir/__/__/__/mesh/access/src/device_state_manager.c.obj
 .bss.m_flash_mem_listener_update_all
                0x2000596c       0x10 examples/light_switch/server/CMakeFiles/light_switch_server_nrf52840_xxAA_s140_6.0.0.dir/__/__/__/mesh/access/src/device_state_manager.c.obj
 .bss.m_has_primary_subnet
                0x2000597c        0x1 examples/light_switch/server/CMakeFiles/light_switch_server_nrf52840_xxAA_s140_6.0.0.dir/__/__/__/mesh/access/src/device_state_manager.c.obj
 *fill*         0x2000597d        0x1 
 .bss.m_local_unicast_addr
                0x2000597e        0x4 examples/light_switch/server/CMakeFiles/light_switch_server_nrf52840_xxAA_s140_6.0.0.dir/__/__/__/mesh/access/src/device_state_manager.c.obj
 *fill*         0x20005982        0x2 
 .bss.m_mesh_evt_handler
                0x20005984        0xc examples/light_switch/server/CMakeFiles/light_switch_server_nrf52840_xxAA_s140_6.0.0.dir/__/__/__/mesh/access/src/device_state_manager.c.obj
 .bss.m_subnet_allocated
                0x20005990        0x4 examples/light_switch/server/CMakeFiles/light_switch_server_nrf52840_xxAA_s140_6.0.0.dir/__/__/__/mesh/access/src/device_state_manager.c.obj
 .bss.m_subnet_needs_flashing
                0x20005994        0x4 examples/light_switch/server/CMakeFiles/light_switch_server_nrf52840_xxAA_s140_6.0.0.dir/__/__/__/mesh/access/src/device_state_manager.c.obj
 .bss.m_subnets
                0x20005998       0xa8 examples/light_switch/server/CMakeFiles/light_switch_server_nrf52840_xxAA_s140_6.0.0.dir/__/__/__/mesh/access/src/device_state_manager.c.obj
 .bss.m_virtual_addresses
                0x20005a40       0x14 examples/light_switch/server/CMakeFiles/light_switch_server_nrf52840_xxAA_s140_6.0.0.dir/__/__/__/mesh/access/src/device_state_manager.c.obj
 .bss.m_event_handler
                0x20005a54        0x4 examples/light_switch/server/CMakeFiles/light_switch_server_nrf52840_xxAA_s140_6.0.0.dir/__/__/__/mesh/prov/src/prov_beacon.c.obj
 .bss.m_ecdh_offloading
                0x20005a58        0x1 examples/light_switch/server/CMakeFiles/light_switch_server_nrf52840_xxAA_s140_6.0.0.dir/__/__/__/mesh/prov/src/prov_utils.c.obj
 .bss.m_ecdh_offloading_state
                0x20005a59        0x1 examples/light_switch/server/CMakeFiles/light_switch_server_nrf52840_xxAA_s140_6.0.0.dir/__/__/__/mesh/prov/src/prov_utils.c.obj
 *fill*         0x20005a5a        0x2 
 .bss.mp_bearer_head
                0x20005a5c        0x4 examples/light_switch/server/CMakeFiles/light_switch_server_nrf52840_xxAA_s140_6.0.0.dir/__/__/__/mesh/prov/src/prov_bearer_adv.c.obj
 .bss.m_op_queue
                0x20005a60      0x10c examples/light_switch/server/CMakeFiles/light_switch_server_nrf52840_xxAA_s140_6.0.0.dir/C_/sdks/nRF5_SDK_15.0.0_a53641a/components/libraries/timer/app_timer.c.obj
 .bss.m_rtc1_reset
                0x20005b6c        0x1 examples/light_switch/server/CMakeFiles/light_switch_server_nrf52840_xxAA_s140_6.0.0.dir/C_/sdks/nRF5_SDK_15.0.0_a53641a/components/libraries/timer/app_timer.c.obj
 .bss.m_rtc1_running
                0x20005b6d        0x1 examples/light_switch/server/CMakeFiles/light_switch_server_nrf52840_xxAA_s140_6.0.0.dir/C_/sdks/nRF5_SDK_15.0.0_a53641a/components/libraries/timer/app_timer.c.obj
 *fill*         0x20005b6e        0x2 
 .bss.m_ticks_elapsed
                0x20005b70        0x8 examples/light_switch/server/CMakeFiles/light_switch_server_nrf52840_xxAA_s140_6.0.0.dir/C_/sdks/nRF5_SDK_15.0.0_a53641a/components/libraries/timer/app_timer.c.obj
 .bss.m_ticks_elapsed_q_read_ind
                0x20005b78        0x1 examples/light_switch/server/CMakeFiles/light_switch_server_nrf52840_xxAA_s140_6.0.0.dir/C_/sdks/nRF5_SDK_15.0.0_a53641a/components/libraries/timer/app_timer.c.obj
 .bss.m_ticks_elapsed_q_write_ind
                0x20005b79        0x1 examples/light_switch/server/CMakeFiles/light_switch_server_nrf52840_xxAA_s140_6.0.0.dir/C_/sdks/nRF5_SDK_15.0.0_a53641a/components/libraries/timer/app_timer.c.obj
 *fill*         0x20005b7a        0x2 
 .bss.m_ticks_latest
                0x20005b7c        0x4 examples/light_switch/server/CMakeFiles/light_switch_server_nrf52840_xxAA_s140_6.0.0.dir/C_/sdks/nRF5_SDK_15.0.0_a53641a/components/libraries/timer/app_timer.c.obj
 .bss.mp_timer_id_head
                0x20005b80        0x4 examples/light_switch/server/CMakeFiles/light_switch_server_nrf52840_xxAA_s140_6.0.0.dir/C_/sdks/nRF5_SDK_15.0.0_a53641a/components/libraries/timer/app_timer.c.obj
 .bss._acDownBuffer
                0x20005b84       0x80 external/rtt/librtt_nrf52840_xxAA.a(SEGGER_RTT.c.obj)
 .bss._acUpBuffer
                0x20005c04      0x400 external/rtt/librtt_nrf52840_xxAA.a(SEGGER_RTT.c.obj)
 .bss.__malloc_free_list
                0x20006004        0x4 c:/arm_gcc/bin/../lib/gcc/arm-none-eabi/6.3.1/../../../../arm-none-eabi/lib/thumb/v7e-m/fpv4-sp/hard\libg_nano.a(lib_a-nano-mallocr.o)
                0x20006004                __malloc_free_list
 .bss.__malloc_sbrk_start
                0x20006008        0x4 c:/arm_gcc/bin/../lib/gcc/arm-none-eabi/6.3.1/../../../../arm-none-eabi/lib/thumb/v7e-m/fpv4-sp/hard\libg_nano.a(lib_a-nano-mallocr.o)
                0x20006008                __malloc_sbrk_start
 .bss.heap_end.5239
                0x2000600c        0x4 c:/arm_gcc/bin/../lib/gcc/arm-none-eabi/6.3.1/../../../../arm-none-eabi/lib/thumb/v7e-m/fpv4-sp/hard\libnosys.a(sbrk.o)
 *(COMMON)
 COMMON         0x20006010       0x24 examples/light_switch/server/CMakeFiles/light_switch_server_nrf52840_xxAA_s140_6.0.0.dir/__/__/__/mesh/core/src/core_tx.c.obj
                0x20006010                m_packet
 COMMON         0x20006034        0xc examples/light_switch/server/CMakeFiles/light_switch_server_nrf52840_xxAA_s140_6.0.0.dir/C_/sdks/nRF5_SDK_15.0.0_a53641a/components/libraries/util/app_util_platform.c.obj
                0x20006034                nrf_nvic_state
 COMMON         0x20006040       0x78 external/rtt/librtt_nrf52840_xxAA.a(SEGGER_RTT.c.obj)
                0x20006040                _SEGGER_RTT
 COMMON         0x200060b8        0x4 c:/arm_gcc/bin/../lib/gcc/arm-none-eabi/6.3.1/../../../../arm-none-eabi/lib/thumb/v7e-m/fpv4-sp/hard\libg_nano.a(lib_a-reent.o)
                0x200060b8                errno
                0x200060bc                . = ALIGN (0x4)
                0x200060bc                __bss_end__ = .

.heap           0x200060c0     0x2000
                0x200060c0                __HeapBase = .
                0x200060c0                __end__ = .
                0x200060c0                PROVIDE (end, .)
 *(.heap*)
 .heap          0x200060c0     0x2000 examples/light_switch/server/CMakeFiles/light_switch_server_nrf52840_xxAA_s140_6.0.0.dir/C_/sdks/nRF5_SDK_15.0.0_a53641a/modules/nrfx/mdk/gcc_startup_nrf52840.S.obj
                0x200080c0                __HeapLimit = .

.stack_dummy    0x200060c0     0x2000
 *(.stack*)
 .stack         0x200060c0     0x2000 examples/light_switch/server/CMakeFiles/light_switch_server_nrf52840_xxAA_s140_6.0.0.dir/C_/sdks/nRF5_SDK_15.0.0_a53641a/modules/nrfx/mdk/gcc_startup_nrf52840.S.obj
                0x2003fd00                __StackTop = (ORIGIN (RAM) + LENGTH (RAM))
                0x2003dd00                __StackLimit = (__StackTop - SIZEOF (.stack_dummy))
                0x2003fd00                PROVIDE (__stack, __StackTop)
                0x00000001                ASSERT ((__StackLimit >= __HeapLimit), region RAM overflowed with stack)
                0x000001a0                DataInitFlashUsed = (__bss_start__ - __data_start__)
                0x000148a4                CodeFlashUsed = (__etext - ORIGIN (FLASH))
                0x00014a44                TotalFlashUsed = (CodeFlashUsed + DataInitFlashUsed)
                0x00000001                ASSERT ((TotalFlashUsed <= LENGTH (FLASH)), region FLASH overflowed with .data and user data)
OUTPUT(examples\light_switch\server\light_switch_server_nrf52840_xxAA_s140_6.0.0.elf elf32-littlearm)

.ARM.attributes
                0x00000000       0x30
 .ARM.attributes
                0x00000000       0x22 c:/arm_gcc/bin/../lib/gcc/arm-none-eabi/6.3.1/thumb/v7e-m/fpv4-sp/hard/crti.o
 .ARM.attributes
                0x00000022       0x34 c:/arm_gcc/bin/../lib/gcc/arm-none-eabi/6.3.1/thumb/v7e-m/fpv4-sp/hard/crtbegin.o
 .ARM.attributes
                0x00000056       0x20 c:/arm_gcc/bin/../lib/gcc/arm-none-eabi/6.3.1/../../../../arm-none-eabi/lib/thumb/v7e-m/fpv4-sp/hard/crt0.o
 .ARM.attributes
                0x00000076       0x39 examples/light_switch/server/CMakeFiles/light_switch_server_nrf52840_xxAA_s140_6.0.0.dir/src/main.c.obj
 .ARM.attributes
                0x000000af       0x39 examples/light_switch/server/CMakeFiles/light_switch_server_nrf52840_xxAA_s140_6.0.0.dir/__/__/common/src/app_onoff.c.obj
 .ARM.attributes
                0x000000e8       0x39 examples/light_switch/server/CMakeFiles/light_switch_server_nrf52840_xxAA_s140_6.0.0.dir/__/__/__/mesh/stack/src/mesh_stack.c.obj
 .ARM.attributes
                0x00000121       0x39 examples/light_switch/server/CMakeFiles/light_switch_server_nrf52840_xxAA_s140_6.0.0.dir/__/__/common/src/mesh_softdevice_init.c.obj
 .ARM.attributes
                0x0000015a       0x39 examples/light_switch/server/CMakeFiles/light_switch_server_nrf52840_xxAA_s140_6.0.0.dir/__/__/common/src/mesh_provisionee.c.obj
 .ARM.attributes
                0x00000193       0x39 examples/light_switch/server/CMakeFiles/light_switch_server_nrf52840_xxAA_s140_6.0.0.dir/__/__/common/src/rtt_input.c.obj
 .ARM.attributes
                0x000001cc       0x39 examples/light_switch/server/CMakeFiles/light_switch_server_nrf52840_xxAA_s140_6.0.0.dir/__/__/common/src/simple_hal.c.obj
 .ARM.attributes
                0x00000205       0x39 examples/light_switch/server/CMakeFiles/light_switch_server_nrf52840_xxAA_s140_6.0.0.dir/__/__/common/src/mesh_app_utils.c.obj
 .ARM.attributes
                0x0000023e       0x39 examples/light_switch/server/CMakeFiles/light_switch_server_nrf52840_xxAA_s140_6.0.0.dir/__/__/nrf_mesh_weak.c.obj
 .ARM.attributes
                0x00000277       0x39 examples/light_switch/server/CMakeFiles/light_switch_server_nrf52840_xxAA_s140_6.0.0.dir/__/__/common/src/app_error_weak.c.obj
 .ARM.attributes
                0x000002b0       0x39 examples/light_switch/server/CMakeFiles/light_switch_server_nrf52840_xxAA_s140_6.0.0.dir/__/__/common/src/assertion_handler_weak.c.obj
 .ARM.attributes
                0x000002e9       0x39 examples/light_switch/server/CMakeFiles/light_switch_server_nrf52840_xxAA_s140_6.0.0.dir/__/__/__/mesh/core/src/nrf_mesh_configure.c.obj
 .ARM.attributes
                0x00000322       0x39 examples/light_switch/server/CMakeFiles/light_switch_server_nrf52840_xxAA_s140_6.0.0.dir/__/__/__/mesh/core/src/msg_cache.c.obj
 .ARM.attributes
                0x0000035b       0x39 examples/light_switch/server/CMakeFiles/light_switch_server_nrf52840_xxAA_s140_6.0.0.dir/__/__/__/mesh/core/src/transport.c.obj
 .ARM.attributes
                0x00000394       0x39 examples/light_switch/server/CMakeFiles/light_switch_server_nrf52840_xxAA_s140_6.0.0.dir/__/__/__/mesh/core/src/event.c.obj
 .ARM.attributes
                0x000003cd       0x39 examples/light_switch/server/CMakeFiles/light_switch_server_nrf52840_xxAA_s140_6.0.0.dir/__/__/__/mesh/core/src/packet_buffer.c.obj
 .ARM.attributes
                0x00000406       0x39 examples/light_switch/server/CMakeFiles/light_switch_server_nrf52840_xxAA_s140_6.0.0.dir/__/__/__/mesh/core/src/flash_manager_defrag.c.obj
 .ARM.attributes
                0x0000043f       0x39 examples/light_switch/server/CMakeFiles/light_switch_server_nrf52840_xxAA_s140_6.0.0.dir/__/__/__/mesh/core/src/fifo.c.obj
 .ARM.attributes
                0x00000478       0x39 examples/light_switch/server/CMakeFiles/light_switch_server_nrf52840_xxAA_s140_6.0.0.dir/__/__/__/mesh/core/src/nrf_flash.c.obj
 .ARM.attributes
                0x000004b1       0x39 examples/light_switch/server/CMakeFiles/light_switch_server_nrf52840_xxAA_s140_6.0.0.dir/__/__/__/mesh/core/src/packet_mgr.c.obj
 .ARM.attributes
                0x000004ea       0x39 examples/light_switch/server/CMakeFiles/light_switch_server_nrf52840_xxAA_s140_6.0.0.dir/__/__/__/mesh/core/src/net_state.c.obj
 .ARM.attributes
                0x00000523       0x39 examples/light_switch/server/CMakeFiles/light_switch_server_nrf52840_xxAA_s140_6.0.0.dir/__/__/__/mesh/core/src/mesh_flash.c.obj
 .ARM.attributes
                0x0000055c       0x39 examples/light_switch/server/CMakeFiles/light_switch_server_nrf52840_xxAA_s140_6.0.0.dir/__/__/__/mesh/core/src/nrf_mesh_utils.c.obj
 .ARM.attributes
                0x00000595       0x39 examples/light_switch/server/CMakeFiles/light_switch_server_nrf52840_xxAA_s140_6.0.0.dir/__/__/__/mesh/core/src/nrf_mesh.c.obj
 .ARM.attributes
                0x000005ce       0x39 examples/light_switch/server/CMakeFiles/light_switch_server_nrf52840_xxAA_s140_6.0.0.dir/__/__/__/mesh/core/src/queue.c.obj
 .ARM.attributes
                0x00000607       0x39 examples/light_switch/server/CMakeFiles/light_switch_server_nrf52840_xxAA_s140_6.0.0.dir/__/__/__/mesh/core/src/hal.c.obj
 .ARM.attributes
                0x00000640       0x39 examples/light_switch/server/CMakeFiles/light_switch_server_nrf52840_xxAA_s140_6.0.0.dir/__/__/__/mesh/core/src/aes_cmac.c.obj
 .ARM.attributes
                0x00000679       0x39 examples/light_switch/server/CMakeFiles/light_switch_server_nrf52840_xxAA_s140_6.0.0.dir/__/__/__/mesh/core/src/timer_scheduler.c.obj
 .ARM.attributes
                0x000006b2       0x39 examples/light_switch/server/CMakeFiles/light_switch_server_nrf52840_xxAA_s140_6.0.0.dir/__/__/__/mesh/core/src/timer.c.obj
 .ARM.attributes
                0x000006eb       0x39 examples/light_switch/server/CMakeFiles/light_switch_server_nrf52840_xxAA_s140_6.0.0.dir/__/__/__/mesh/core/src/rand.c.obj
 .ARM.attributes
                0x00000724       0x39 examples/light_switch/server/CMakeFiles/light_switch_server_nrf52840_xxAA_s140_6.0.0.dir/__/__/__/mesh/core/src/mesh_opt.c.obj
 .ARM.attributes
                0x0000075d       0x39 examples/light_switch/server/CMakeFiles/light_switch_server_nrf52840_xxAA_s140_6.0.0.dir/__/__/__/mesh/core/src/timeslot.c.obj
 .ARM.attributes
                0x00000796       0x39 examples/light_switch/server/CMakeFiles/light_switch_server_nrf52840_xxAA_s140_6.0.0.dir/__/__/__/mesh/core/src/bearer_event.c.obj
 .ARM.attributes
                0x000007cf       0x39 examples/light_switch/server/CMakeFiles/light_switch_server_nrf52840_xxAA_s140_6.0.0.dir/__/__/__/mesh/core/src/enc.c.obj
 .ARM.attributes
                0x00000808       0x39 examples/light_switch/server/CMakeFiles/light_switch_server_nrf52840_xxAA_s140_6.0.0.dir/__/__/__/mesh/core/src/network.c.obj
 .ARM.attributes
                0x00000841       0x39 examples/light_switch/server/CMakeFiles/light_switch_server_nrf52840_xxAA_s140_6.0.0.dir/__/__/__/mesh/core/src/net_packet.c.obj
 .ARM.attributes
                0x0000087a       0x39 examples/light_switch/server/CMakeFiles/light_switch_server_nrf52840_xxAA_s140_6.0.0.dir/__/__/__/mesh/core/src/msqueue.c.obj
 .ARM.attributes
                0x000008b3       0x39 examples/light_switch/server/CMakeFiles/light_switch_server_nrf52840_xxAA_s140_6.0.0.dir/__/__/__/mesh/core/src/nrf_mesh_keygen.c.obj
 .ARM.attributes
                0x000008ec       0x39 examples/light_switch/server/CMakeFiles/light_switch_server_nrf52840_xxAA_s140_6.0.0.dir/__/__/__/mesh/core/src/list.c.obj
 .ARM.attributes
                0x00000925       0x39 examples/light_switch/server/CMakeFiles/light_switch_server_nrf52840_xxAA_s140_6.0.0.dir/__/__/__/mesh/core/src/log.c.obj
 .ARM.attributes
                0x0000095e       0x39 examples/light_switch/server/CMakeFiles/light_switch_server_nrf52840_xxAA_s140_6.0.0.dir/__/__/__/mesh/core/src/flash_manager.c.obj
 .ARM.attributes
                0x00000997       0x39 examples/light_switch/server/CMakeFiles/light_switch_server_nrf52840_xxAA_s140_6.0.0.dir/__/__/__/mesh/core/src/ccm_soft.c.obj
 .ARM.attributes
                0x000009d0       0x39 examples/light_switch/server/CMakeFiles/light_switch_server_nrf52840_xxAA_s140_6.0.0.dir/__/__/__/mesh/core/src/replay_cache.c.obj
 .ARM.attributes
                0x00000a09       0x39 examples/light_switch/server/CMakeFiles/light_switch_server_nrf52840_xxAA_s140_6.0.0.dir/__/__/__/mesh/core/src/beacon.c.obj
 .ARM.attributes
                0x00000a42       0x39 examples/light_switch/server/CMakeFiles/light_switch_server_nrf52840_xxAA_s140_6.0.0.dir/__/__/__/mesh/core/src/flash_manager_internal.c.obj
 .ARM.attributes
                0x00000a7b       0x39 examples/light_switch/server/CMakeFiles/light_switch_server_nrf52840_xxAA_s140_6.0.0.dir/__/__/__/mesh/core/src/core_tx.c.obj
 .ARM.attributes
                0x00000ab4       0x39 examples/light_switch/server/CMakeFiles/light_switch_server_nrf52840_xxAA_s140_6.0.0.dir/__/__/__/mesh/core/src/heartbeat.c.obj
 .ARM.attributes
                0x00000aed       0x39 examples/light_switch/server/CMakeFiles/light_switch_server_nrf52840_xxAA_s140_6.0.0.dir/__/__/__/mesh/core/src/net_beacon.c.obj
 .ARM.attributes
                0x00000b26       0x39 examples/light_switch/server/CMakeFiles/light_switch_server_nrf52840_xxAA_s140_6.0.0.dir/__/__/__/mesh/core/src/mesh_config.c.obj
 .ARM.attributes
                0x00000b5f       0x39 examples/light_switch/server/CMakeFiles/light_switch_server_nrf52840_xxAA_s140_6.0.0.dir/__/__/__/mesh/core/src/mesh_config_backend.c.obj
 .ARM.attributes
                0x00000b98       0x39 examples/light_switch/server/CMakeFiles/light_switch_server_nrf52840_xxAA_s140_6.0.0.dir/__/__/__/mesh/core/src/mesh_config_flashman_glue.c.obj
 .ARM.attributes
                0x00000bd1       0x39 examples/light_switch/server/CMakeFiles/light_switch_server_nrf52840_xxAA_s140_6.0.0.dir/__/__/__/mesh/core/src/core_tx_adv.c.obj
 .ARM.attributes
                0x00000c0a       0x39 examples/light_switch/server/CMakeFiles/light_switch_server_nrf52840_xxAA_s140_6.0.0.dir/__/__/__/mesh/bearer/src/ad_listener.c.obj
 .ARM.attributes
                0x00000c43       0x39 examples/light_switch/server/CMakeFiles/light_switch_server_nrf52840_xxAA_s140_6.0.0.dir/__/__/__/mesh/bearer/src/ad_type_filter.c.obj
 .ARM.attributes
                0x00000c7c       0x39 examples/light_switch/server/CMakeFiles/light_switch_server_nrf52840_xxAA_s140_6.0.0.dir/__/__/__/mesh/bearer/src/advertiser.c.obj
 .ARM.attributes
                0x00000cb5       0x39 examples/light_switch/server/CMakeFiles/light_switch_server_nrf52840_xxAA_s140_6.0.0.dir/__/__/__/mesh/bearer/src/bearer_handler.c.obj
 .ARM.attributes
                0x00000cee       0x39 examples/light_switch/server/CMakeFiles/light_switch_server_nrf52840_xxAA_s140_6.0.0.dir/__/__/__/mesh/bearer/src/broadcast.c.obj
 .ARM.attributes
                0x00000d27       0x39 examples/light_switch/server/CMakeFiles/light_switch_server_nrf52840_xxAA_s140_6.0.0.dir/__/__/__/mesh/bearer/src/filter_engine.c.obj
 .ARM.attributes
                0x00000d60       0x39 examples/light_switch/server/CMakeFiles/light_switch_server_nrf52840_xxAA_s140_6.0.0.dir/__/__/__/mesh/bearer/src/radio_config.c.obj
 .ARM.attributes
                0x00000d99       0x39 examples/light_switch/server/CMakeFiles/light_switch_server_nrf52840_xxAA_s140_6.0.0.dir/__/__/__/mesh/bearer/src/scanner.c.obj
 .ARM.attributes
                0x00000dd2       0x39 examples/light_switch/server/CMakeFiles/light_switch_server_nrf52840_xxAA_s140_6.0.0.dir/__/__/__/mesh/bearer/src/mesh_pa_lna.c.obj
 .ARM.attributes
                0x00000e0b       0x39 examples/light_switch/server/CMakeFiles/light_switch_server_nrf52840_xxAA_s140_6.0.0.dir/__/__/__/models/foundation/config/src/composition_data.c.obj
 .ARM.attributes
                0x00000e44       0x39 examples/light_switch/server/CMakeFiles/light_switch_server_nrf52840_xxAA_s140_6.0.0.dir/__/__/__/models/foundation/config/src/config_server.c.obj
 .ARM.attributes
                0x00000e7d       0x39 examples/light_switch/server/CMakeFiles/light_switch_server_nrf52840_xxAA_s140_6.0.0.dir/__/__/__/models/foundation/config/src/packed_index_list.c.obj
 .ARM.attributes
                0x00000eb6       0x39 examples/light_switch/server/CMakeFiles/light_switch_server_nrf52840_xxAA_s140_6.0.0.dir/__/__/__/models/foundation/health/src/health_server.c.obj
 .ARM.attributes
                0x00000eef       0x39 examples/light_switch/server/CMakeFiles/light_switch_server_nrf52840_xxAA_s140_6.0.0.dir/__/__/__/models/model_spec/generic_onoff/src/generic_onoff_server.c.obj
 .ARM.attributes
                0x00000f28       0x39 examples/light_switch/server/CMakeFiles/light_switch_server_nrf52840_xxAA_s140_6.0.0.dir/__/__/__/models/model_spec/common/src/model_common.c.obj
 .ARM.attributes
                0x00000f61       0x39 examples/light_switch/server/CMakeFiles/light_switch_server_nrf52840_xxAA_s140_6.0.0.dir/__/__/__/mesh/access/src/access_publish.c.obj
 .ARM.attributes
                0x00000f9a       0x39 examples/light_switch/server/CMakeFiles/light_switch_server_nrf52840_xxAA_s140_6.0.0.dir/__/__/__/mesh/access/src/access.c.obj
 .ARM.attributes
                0x00000fd3       0x39 examples/light_switch/server/CMakeFiles/light_switch_server_nrf52840_xxAA_s140_6.0.0.dir/__/__/__/mesh/access/src/access_reliable.c.obj
 .ARM.attributes
                0x0000100c       0x39 examples/light_switch/server/CMakeFiles/light_switch_server_nrf52840_xxAA_s140_6.0.0.dir/__/__/__/mesh/access/src/access_loopback.c.obj
 .ARM.attributes
                0x00001045       0x39 examples/light_switch/server/CMakeFiles/light_switch_server_nrf52840_xxAA_s140_6.0.0.dir/__/__/__/mesh/access/src/device_state_manager.c.obj
 .ARM.attributes
                0x0000107e       0x39 examples/light_switch/server/CMakeFiles/light_switch_server_nrf52840_xxAA_s140_6.0.0.dir/__/__/__/mesh/prov/src/prov_provisionee.c.obj
 .ARM.attributes
                0x000010b7       0x39 examples/light_switch/server/CMakeFiles/light_switch_server_nrf52840_xxAA_s140_6.0.0.dir/__/__/__/mesh/prov/src/nrf_mesh_prov.c.obj
 .ARM.attributes
                0x000010f0       0x39 examples/light_switch/server/CMakeFiles/light_switch_server_nrf52840_xxAA_s140_6.0.0.dir/__/__/__/mesh/prov/src/provisioning.c.obj
 .ARM.attributes
                0x00001129       0x39 examples/light_switch/server/CMakeFiles/light_switch_server_nrf52840_xxAA_s140_6.0.0.dir/__/__/__/mesh/prov/src/prov_beacon.c.obj
 .ARM.attributes
                0x00001162       0x39 examples/light_switch/server/CMakeFiles/light_switch_server_nrf52840_xxAA_s140_6.0.0.dir/__/__/__/mesh/prov/src/prov_utils.c.obj
 .ARM.attributes
                0x0000119b       0x39 examples/light_switch/server/CMakeFiles/light_switch_server_nrf52840_xxAA_s140_6.0.0.dir/__/__/__/mesh/prov/src/prov_bearer_adv.c.obj
 .ARM.attributes
                0x000011d4       0x39 examples/light_switch/server/CMakeFiles/light_switch_server_nrf52840_xxAA_s140_6.0.0.dir/C_/sdks/nRF5_SDK_15.0.0_a53641a/modules/nrfx/mdk/system_nrf52840.c.obj
 .ARM.attributes
                0x0000120d       0x20 examples/light_switch/server/CMakeFiles/light_switch_server_nrf52840_xxAA_s140_6.0.0.dir/C_/sdks/nRF5_SDK_15.0.0_a53641a/modules/nrfx/mdk/gcc_startup_nrf52840.S.obj
 .ARM.attributes
                0x0000122d       0x39 examples/light_switch/server/CMakeFiles/light_switch_server_nrf52840_xxAA_s140_6.0.0.dir/C_/sdks/nRF5_SDK_15.0.0_a53641a/components/libraries/util/app_error.c.obj
 .ARM.attributes
                0x00001266       0x39 examples/light_switch/server/CMakeFiles/light_switch_server_nrf52840_xxAA_s140_6.0.0.dir/C_/sdks/nRF5_SDK_15.0.0_a53641a/components/libraries/util/app_util_platform.c.obj
 .ARM.attributes
                0x0000129f       0x39 examples/light_switch/server/CMakeFiles/light_switch_server_nrf52840_xxAA_s140_6.0.0.dir/C_/sdks/nRF5_SDK_15.0.0_a53641a/components/libraries/timer/app_timer.c.obj
 .ARM.attributes
                0x000012d8       0x39 examples/light_switch/server/CMakeFiles/light_switch_server_nrf52840_xxAA_s140_6.0.0.dir/C_/sdks/nRF5_SDK_15.0.0_a53641a/components/libraries/util/app_error_handler_gcc.c.obj
 .ARM.attributes
                0x00001311       0x39 external/rtt/librtt_nrf52840_xxAA.a(SEGGER_RTT.c.obj)
 .ARM.attributes
                0x0000134a       0x39 external/rtt/librtt_nrf52840_xxAA.a(SEGGER_RTT_printf.c.obj)
 .ARM.attributes
                0x00001383       0x39 external/micro-ecc/libuECC_nrf52840_xxAA.a(uECC.c.obj)
 .ARM.attributes
                0x000013bc       0x22 c:/arm_gcc/bin/../lib/gcc/arm-none-eabi/6.3.1/thumb/v7e-m/fpv4-sp/hard\libgcc.a(_aeabi_uldivmod.o)
 .ARM.attributes
                0x000013de       0x34 c:/arm_gcc/bin/../lib/gcc/arm-none-eabi/6.3.1/thumb/v7e-m/fpv4-sp/hard\libgcc.a(_udivmoddi4.o)
 .ARM.attributes
                0x00001412       0x22 c:/arm_gcc/bin/../lib/gcc/arm-none-eabi/6.3.1/thumb/v7e-m/fpv4-sp/hard\libgcc.a(_dvmd_tls.o)
 .ARM.attributes
                0x00001434       0x34 c:/arm_gcc/bin/../lib/gcc/arm-none-eabi/6.3.1/../../../../arm-none-eabi/lib/thumb/v7e-m/fpv4-sp/hard\libg_nano.a(lib_a-exit.o)
 .ARM.attributes
                0x00001468       0x34 c:/arm_gcc/bin/../lib/gcc/arm-none-eabi/6.3.1/../../../../arm-none-eabi/lib/thumb/v7e-m/fpv4-sp/hard\libg_nano.a(lib_a-impure.o)
 .ARM.attributes
                0x0000149c       0x34 c:/arm_gcc/bin/../lib/gcc/arm-none-eabi/6.3.1/../../../../arm-none-eabi/lib/thumb/v7e-m/fpv4-sp/hard\libg_nano.a(lib_a-init.o)
 .ARM.attributes
                0x000014d0       0x34 c:/arm_gcc/bin/../lib/gcc/arm-none-eabi/6.3.1/../../../../arm-none-eabi/lib/thumb/v7e-m/fpv4-sp/hard\libg_nano.a(lib_a-malloc.o)
 .ARM.attributes
                0x00001504       0x34 c:/arm_gcc/bin/../lib/gcc/arm-none-eabi/6.3.1/../../../../arm-none-eabi/lib/thumb/v7e-m/fpv4-sp/hard\libg_nano.a(lib_a-memcmp.o)
 .ARM.attributes
                0x00001538       0x34 c:/arm_gcc/bin/../lib/gcc/arm-none-eabi/6.3.1/../../../../arm-none-eabi/lib/thumb/v7e-m/fpv4-sp/hard\libg_nano.a(lib_a-memcpy-stub.o)
 .ARM.attributes
                0x0000156c       0x34 c:/arm_gcc/bin/../lib/gcc/arm-none-eabi/6.3.1/../../../../arm-none-eabi/lib/thumb/v7e-m/fpv4-sp/hard\libg_nano.a(lib_a-memset.o)
 .ARM.attributes
                0x000015a0       0x34 c:/arm_gcc/bin/../lib/gcc/arm-none-eabi/6.3.1/../../../../arm-none-eabi/lib/thumb/v7e-m/fpv4-sp/hard\libg_nano.a(lib_a-nano-freer.o)
 .ARM.attributes
                0x000015d4       0x34 c:/arm_gcc/bin/../lib/gcc/arm-none-eabi/6.3.1/../../../../arm-none-eabi/lib/thumb/v7e-m/fpv4-sp/hard\libg_nano.a(lib_a-nano-mallocr.o)
 .ARM.attributes
                0x00001608       0x34 c:/arm_gcc/bin/../lib/gcc/arm-none-eabi/6.3.1/../../../../arm-none-eabi/lib/thumb/v7e-m/fpv4-sp/hard\libg_nano.a(lib_a-sbrkr.o)
 .ARM.attributes
                0x0000163c       0x34 c:/arm_gcc/bin/../lib/gcc/arm-none-eabi/6.3.1/../../../../arm-none-eabi/lib/thumb/v7e-m/fpv4-sp/hard\libg_nano.a(lib_a-strcpy.o)
 .ARM.attributes
                0x00001670       0x1b c:/arm_gcc/bin/../lib/gcc/arm-none-eabi/6.3.1/../../../../arm-none-eabi/lib/thumb/v7e-m/fpv4-sp/hard\libg_nano.a(lib_a-strlen.o)
 .ARM.attributes
                0x0000168b       0x34 c:/arm_gcc/bin/../lib/gcc/arm-none-eabi/6.3.1/../../../../arm-none-eabi/lib/thumb/v7e-m/fpv4-sp/hard\libg_nano.a(lib_a-strrchr.o)
 .ARM.attributes
                0x000016bf       0x34 c:/arm_gcc/bin/../lib/gcc/arm-none-eabi/6.3.1/../../../../arm-none-eabi/lib/thumb/v7e-m/fpv4-sp/hard\libg_nano.a(lib_a-mlock.o)
 .ARM.attributes
                0x000016f3       0x34 c:/arm_gcc/bin/../lib/gcc/arm-none-eabi/6.3.1/../../../../arm-none-eabi/lib/thumb/v7e-m/fpv4-sp/hard\libg_nano.a(lib_a-reent.o)
 .ARM.attributes
                0x00001727       0x34 c:/arm_gcc/bin/../lib/gcc/arm-none-eabi/6.3.1/../../../../arm-none-eabi/lib/thumb/v7e-m/fpv4-sp/hard\libg_nano.a(lib_a-strchr.o)
 .ARM.attributes
                0x0000175b       0x34 c:/arm_gcc/bin/../lib/gcc/arm-none-eabi/6.3.1/thumb/v7e-m/fpv4-sp/hard/crtend.o
 .ARM.attributes
                0x0000178f       0x22 c:/arm_gcc/bin/../lib/gcc/arm-none-eabi/6.3.1/thumb/v7e-m/fpv4-sp/hard/crtn.o
 .ARM.attributes
                0x000017b1       0x34 c:/arm_gcc/bin/../lib/gcc/arm-none-eabi/6.3.1/../../../../arm-none-eabi/lib/thumb/v7e-m/fpv4-sp/hard\libnosys.a(sbrk.o)
 .ARM.attributes
                0x000017e5       0x34 c:/arm_gcc/bin/../lib/gcc/arm-none-eabi/6.3.1/../../../../arm-none-eabi/lib/thumb/v7e-m/fpv4-sp/hard\libnosys.a(_exit.o)

.comment        0x00000000       0x7f
 .comment       0x00000000       0x7f examples/light_switch/server/CMakeFiles/light_switch_server_nrf52840_xxAA_s140_6.0.0.dir/src/main.c.obj
                                 0x80 (size before relaxing)
 .comment       0x0000007f       0x80 examples/light_switch/server/CMakeFiles/light_switch_server_nrf52840_xxAA_s140_6.0.0.dir/__/__/common/src/app_onoff.c.obj
 .comment       0x0000007f       0x80 examples/light_switch/server/CMakeFiles/light_switch_server_nrf52840_xxAA_s140_6.0.0.dir/__/__/__/mesh/stack/src/mesh_stack.c.obj
 .comment       0x0000007f       0x80 examples/light_switch/server/CMakeFiles/light_switch_server_nrf52840_xxAA_s140_6.0.0.dir/__/__/common/src/mesh_softdevice_init.c.obj
 .comment       0x0000007f       0x80 examples/light_switch/server/CMakeFiles/light_switch_server_nrf52840_xxAA_s140_6.0.0.dir/__/__/common/src/mesh_provisionee.c.obj
 .comment       0x0000007f       0x80 examples/light_switch/server/CMakeFiles/light_switch_server_nrf52840_xxAA_s140_6.0.0.dir/__/__/common/src/rtt_input.c.obj
 .comment       0x0000007f       0x80 examples/light_switch/server/CMakeFiles/light_switch_server_nrf52840_xxAA_s140_6.0.0.dir/__/__/common/src/simple_hal.c.obj
 .comment       0x0000007f       0x80 examples/light_switch/server/CMakeFiles/light_switch_server_nrf52840_xxAA_s140_6.0.0.dir/__/__/common/src/mesh_app_utils.c.obj
 .comment       0x0000007f       0x80 examples/light_switch/server/CMakeFiles/light_switch_server_nrf52840_xxAA_s140_6.0.0.dir/__/__/nrf_mesh_weak.c.obj
 .comment       0x0000007f       0x80 examples/light_switch/server/CMakeFiles/light_switch_server_nrf52840_xxAA_s140_6.0.0.dir/__/__/common/src/app_error_weak.c.obj
 .comment       0x0000007f       0x80 examples/light_switch/server/CMakeFiles/light_switch_server_nrf52840_xxAA_s140_6.0.0.dir/__/__/common/src/assertion_handler_weak.c.obj
 .comment       0x0000007f       0x80 examples/light_switch/server/CMakeFiles/light_switch_server_nrf52840_xxAA_s140_6.0.0.dir/__/__/__/mesh/core/src/nrf_mesh_configure.c.obj
 .comment       0x0000007f       0x80 examples/light_switch/server/CMakeFiles/light_switch_server_nrf52840_xxAA_s140_6.0.0.dir/__/__/__/mesh/core/src/msg_cache.c.obj
 .comment       0x0000007f       0x80 examples/light_switch/server/CMakeFiles/light_switch_server_nrf52840_xxAA_s140_6.0.0.dir/__/__/__/mesh/core/src/transport.c.obj
 .comment       0x0000007f       0x80 examples/light_switch/server/CMakeFiles/light_switch_server_nrf52840_xxAA_s140_6.0.0.dir/__/__/__/mesh/core/src/event.c.obj
 .comment       0x0000007f       0x80 examples/light_switch/server/CMakeFiles/light_switch_server_nrf52840_xxAA_s140_6.0.0.dir/__/__/__/mesh/core/src/packet_buffer.c.obj
 .comment       0x0000007f       0x80 examples/light_switch/server/CMakeFiles/light_switch_server_nrf52840_xxAA_s140_6.0.0.dir/__/__/__/mesh/core/src/flash_manager_defrag.c.obj
 .comment       0x0000007f       0x80 examples/light_switch/server/CMakeFiles/light_switch_server_nrf52840_xxAA_s140_6.0.0.dir/__/__/__/mesh/core/src/fifo.c.obj
 .comment       0x0000007f       0x80 examples/light_switch/server/CMakeFiles/light_switch_server_nrf52840_xxAA_s140_6.0.0.dir/__/__/__/mesh/core/src/nrf_flash.c.obj
 .comment       0x0000007f       0x80 examples/light_switch/server/CMakeFiles/light_switch_server_nrf52840_xxAA_s140_6.0.0.dir/__/__/__/mesh/core/src/packet_mgr.c.obj
 .comment       0x0000007f       0x80 examples/light_switch/server/CMakeFiles/light_switch_server_nrf52840_xxAA_s140_6.0.0.dir/__/__/__/mesh/core/src/net_state.c.obj
 .comment       0x0000007f       0x80 examples/light_switch/server/CMakeFiles/light_switch_server_nrf52840_xxAA_s140_6.0.0.dir/__/__/__/mesh/core/src/mesh_flash.c.obj
 .comment       0x0000007f       0x80 examples/light_switch/server/CMakeFiles/light_switch_server_nrf52840_xxAA_s140_6.0.0.dir/__/__/__/mesh/core/src/nrf_mesh_utils.c.obj
 .comment       0x0000007f       0x80 examples/light_switch/server/CMakeFiles/light_switch_server_nrf52840_xxAA_s140_6.0.0.dir/__/__/__/mesh/core/src/nrf_mesh.c.obj
 .comment       0x0000007f       0x80 examples/light_switch/server/CMakeFiles/light_switch_server_nrf52840_xxAA_s140_6.0.0.dir/__/__/__/mesh/core/src/queue.c.obj
 .comment       0x0000007f       0x80 examples/light_switch/server/CMakeFiles/light_switch_server_nrf52840_xxAA_s140_6.0.0.dir/__/__/__/mesh/core/src/hal.c.obj
 .comment       0x0000007f       0x80 examples/light_switch/server/CMakeFiles/light_switch_server_nrf52840_xxAA_s140_6.0.0.dir/__/__/__/mesh/core/src/aes_cmac.c.obj
 .comment       0x0000007f       0x80 examples/light_switch/server/CMakeFiles/light_switch_server_nrf52840_xxAA_s140_6.0.0.dir/__/__/__/mesh/core/src/timer_scheduler.c.obj
 .comment       0x0000007f       0x80 examples/light_switch/server/CMakeFiles/light_switch_server_nrf52840_xxAA_s140_6.0.0.dir/__/__/__/mesh/core/src/timer.c.obj
 .comment       0x0000007f       0x80 examples/light_switch/server/CMakeFiles/light_switch_server_nrf52840_xxAA_s140_6.0.0.dir/__/__/__/mesh/core/src/rand.c.obj
 .comment       0x0000007f       0x80 examples/light_switch/server/CMakeFiles/light_switch_server_nrf52840_xxAA_s140_6.0.0.dir/__/__/__/mesh/core/src/mesh_opt.c.obj
 .comment       0x0000007f       0x80 examples/light_switch/server/CMakeFiles/light_switch_server_nrf52840_xxAA_s140_6.0.0.dir/__/__/__/mesh/core/src/timeslot.c.obj
 .comment       0x0000007f       0x80 examples/light_switch/server/CMakeFiles/light_switch_server_nrf52840_xxAA_s140_6.0.0.dir/__/__/__/mesh/core/src/bearer_event.c.obj
 .comment       0x0000007f       0x80 examples/light_switch/server/CMakeFiles/light_switch_server_nrf52840_xxAA_s140_6.0.0.dir/__/__/__/mesh/core/src/enc.c.obj
 .comment       0x0000007f       0x80 examples/light_switch/server/CMakeFiles/light_switch_server_nrf52840_xxAA_s140_6.0.0.dir/__/__/__/mesh/core/src/network.c.obj
 .comment       0x0000007f       0x80 examples/light_switch/server/CMakeFiles/light_switch_server_nrf52840_xxAA_s140_6.0.0.dir/__/__/__/mesh/core/src/net_packet.c.obj
 .comment       0x0000007f       0x80 examples/light_switch/server/CMakeFiles/light_switch_server_nrf52840_xxAA_s140_6.0.0.dir/__/__/__/mesh/core/src/msqueue.c.obj
 .comment       0x0000007f       0x80 examples/light_switch/server/CMakeFiles/light_switch_server_nrf52840_xxAA_s140_6.0.0.dir/__/__/__/mesh/core/src/nrf_mesh_keygen.c.obj
 .comment       0x0000007f       0x80 examples/light_switch/server/CMakeFiles/light_switch_server_nrf52840_xxAA_s140_6.0.0.dir/__/__/__/mesh/core/src/list.c.obj
 .comment       0x0000007f       0x80 examples/light_switch/server/CMakeFiles/light_switch_server_nrf52840_xxAA_s140_6.0.0.dir/__/__/__/mesh/core/src/log.c.obj
 .comment       0x0000007f       0x80 examples/light_switch/server/CMakeFiles/light_switch_server_nrf52840_xxAA_s140_6.0.0.dir/__/__/__/mesh/core/src/flash_manager.c.obj
 .comment       0x0000007f       0x80 examples/light_switch/server/CMakeFiles/light_switch_server_nrf52840_xxAA_s140_6.0.0.dir/__/__/__/mesh/core/src/ccm_soft.c.obj
 .comment       0x0000007f       0x80 examples/light_switch/server/CMakeFiles/light_switch_server_nrf52840_xxAA_s140_6.0.0.dir/__/__/__/mesh/core/src/replay_cache.c.obj
 .comment       0x0000007f       0x80 examples/light_switch/server/CMakeFiles/light_switch_server_nrf52840_xxAA_s140_6.0.0.dir/__/__/__/mesh/core/src/beacon.c.obj
 .comment       0x0000007f       0x80 examples/light_switch/server/CMakeFiles/light_switch_server_nrf52840_xxAA_s140_6.0.0.dir/__/__/__/mesh/core/src/flash_manager_internal.c.obj
 .comment       0x0000007f       0x80 examples/light_switch/server/CMakeFiles/light_switch_server_nrf52840_xxAA_s140_6.0.0.dir/__/__/__/mesh/core/src/core_tx.c.obj
 .comment       0x0000007f       0x80 examples/light_switch/server/CMakeFiles/light_switch_server_nrf52840_xxAA_s140_6.0.0.dir/__/__/__/mesh/core/src/heartbeat.c.obj
 .comment       0x0000007f       0x80 examples/light_switch/server/CMakeFiles/light_switch_server_nrf52840_xxAA_s140_6.0.0.dir/__/__/__/mesh/core/src/net_beacon.c.obj
 .comment       0x0000007f       0x80 examples/light_switch/server/CMakeFiles/light_switch_server_nrf52840_xxAA_s140_6.0.0.dir/__/__/__/mesh/core/src/mesh_config.c.obj
 .comment       0x0000007f       0x80 examples/light_switch/server/CMakeFiles/light_switch_server_nrf52840_xxAA_s140_6.0.0.dir/__/__/__/mesh/core/src/mesh_config_backend.c.obj
 .comment       0x0000007f       0x80 examples/light_switch/server/CMakeFiles/light_switch_server_nrf52840_xxAA_s140_6.0.0.dir/__/__/__/mesh/core/src/mesh_config_flashman_glue.c.obj
 .comment       0x0000007f       0x80 examples/light_switch/server/CMakeFiles/light_switch_server_nrf52840_xxAA_s140_6.0.0.dir/__/__/__/mesh/core/src/core_tx_adv.c.obj
 .comment       0x0000007f       0x80 examples/light_switch/server/CMakeFiles/light_switch_server_nrf52840_xxAA_s140_6.0.0.dir/__/__/__/mesh/bearer/src/ad_listener.c.obj
 .comment       0x0000007f       0x80 examples/light_switch/server/CMakeFiles/light_switch_server_nrf52840_xxAA_s140_6.0.0.dir/__/__/__/mesh/bearer/src/ad_type_filter.c.obj
 .comment       0x0000007f       0x80 examples/light_switch/server/CMakeFiles/light_switch_server_nrf52840_xxAA_s140_6.0.0.dir/__/__/__/mesh/bearer/src/advertiser.c.obj
 .comment       0x0000007f       0x80 examples/light_switch/server/CMakeFiles/light_switch_server_nrf52840_xxAA_s140_6.0.0.dir/__/__/__/mesh/bearer/src/bearer_handler.c.obj
 .comment       0x0000007f       0x80 examples/light_switch/server/CMakeFiles/light_switch_server_nrf52840_xxAA_s140_6.0.0.dir/__/__/__/mesh/bearer/src/broadcast.c.obj
 .comment       0x0000007f       0x80 examples/light_switch/server/CMakeFiles/light_switch_server_nrf52840_xxAA_s140_6.0.0.dir/__/__/__/mesh/bearer/src/filter_engine.c.obj
 .comment       0x0000007f       0x80 examples/light_switch/server/CMakeFiles/light_switch_server_nrf52840_xxAA_s140_6.0.0.dir/__/__/__/mesh/bearer/src/radio_config.c.obj
 .comment       0x0000007f       0x80 examples/light_switch/server/CMakeFiles/light_switch_server_nrf52840_xxAA_s140_6.0.0.dir/__/__/__/mesh/bearer/src/scanner.c.obj
 .comment       0x0000007f       0x80 examples/light_switch/server/CMakeFiles/light_switch_server_nrf52840_xxAA_s140_6.0.0.dir/__/__/__/mesh/bearer/src/mesh_pa_lna.c.obj
 .comment       0x0000007f       0x80 examples/light_switch/server/CMakeFiles/light_switch_server_nrf52840_xxAA_s140_6.0.0.dir/__/__/__/models/foundation/config/src/composition_data.c.obj
 .comment       0x0000007f       0x80 examples/light_switch/server/CMakeFiles/light_switch_server_nrf52840_xxAA_s140_6.0.0.dir/__/__/__/models/foundation/config/src/config_server.c.obj
 .comment       0x0000007f       0x80 examples/light_switch/server/CMakeFiles/light_switch_server_nrf52840_xxAA_s140_6.0.0.dir/__/__/__/models/foundation/config/src/packed_index_list.c.obj
 .comment       0x0000007f       0x80 examples/light_switch/server/CMakeFiles/light_switch_server_nrf52840_xxAA_s140_6.0.0.dir/__/__/__/models/foundation/health/src/health_server.c.obj
 .comment       0x0000007f       0x80 examples/light_switch/server/CMakeFiles/light_switch_server_nrf52840_xxAA_s140_6.0.0.dir/__/__/__/models/model_spec/generic_onoff/src/generic_onoff_server.c.obj
 .comment       0x0000007f       0x80 examples/light_switch/server/CMakeFiles/light_switch_server_nrf52840_xxAA_s140_6.0.0.dir/__/__/__/models/model_spec/common/src/model_common.c.obj
 .comment       0x0000007f       0x80 examples/light_switch/server/CMakeFiles/light_switch_server_nrf52840_xxAA_s140_6.0.0.dir/__/__/__/mesh/access/src/access_publish.c.obj
 .comment       0x0000007f       0x80 examples/light_switch/server/CMakeFiles/light_switch_server_nrf52840_xxAA_s140_6.0.0.dir/__/__/__/mesh/access/src/access.c.obj
 .comment       0x0000007f       0x80 examples/light_switch/server/CMakeFiles/light_switch_server_nrf52840_xxAA_s140_6.0.0.dir/__/__/__/mesh/access/src/access_reliable.c.obj
 .comment       0x0000007f       0x80 examples/light_switch/server/CMakeFiles/light_switch_server_nrf52840_xxAA_s140_6.0.0.dir/__/__/__/mesh/access/src/access_loopback.c.obj
 .comment       0x0000007f       0x80 examples/light_switch/server/CMakeFiles/light_switch_server_nrf52840_xxAA_s140_6.0.0.dir/__/__/__/mesh/access/src/device_state_manager.c.obj
 .comment       0x0000007f       0x80 examples/light_switch/server/CMakeFiles/light_switch_server_nrf52840_xxAA_s140_6.0.0.dir/__/__/__/mesh/prov/src/prov_provisionee.c.obj
 .comment       0x0000007f       0x80 examples/light_switch/server/CMakeFiles/light_switch_server_nrf52840_xxAA_s140_6.0.0.dir/__/__/__/mesh/prov/src/nrf_mesh_prov.c.obj
 .comment       0x0000007f       0x80 examples/light_switch/server/CMakeFiles/light_switch_server_nrf52840_xxAA_s140_6.0.0.dir/__/__/__/mesh/prov/src/provisioning.c.obj
 .comment       0x0000007f       0x80 examples/light_switch/server/CMakeFiles/light_switch_server_nrf52840_xxAA_s140_6.0.0.dir/__/__/__/mesh/prov/src/prov_beacon.c.obj
 .comment       0x0000007f       0x80 examples/light_switch/server/CMakeFiles/light_switch_server_nrf52840_xxAA_s140_6.0.0.dir/__/__/__/mesh/prov/src/prov_utils.c.obj
 .comment       0x0000007f       0x80 examples/light_switch/server/CMakeFiles/light_switch_server_nrf52840_xxAA_s140_6.0.0.dir/__/__/__/mesh/prov/src/prov_bearer_adv.c.obj
 .comment       0x0000007f       0x80 examples/light_switch/server/CMakeFiles/light_switch_server_nrf52840_xxAA_s140_6.0.0.dir/C_/sdks/nRF5_SDK_15.0.0_a53641a/modules/nrfx/mdk/system_nrf52840.c.obj
 .comment       0x0000007f       0x80 examples/light_switch/server/CMakeFiles/light_switch_server_nrf52840_xxAA_s140_6.0.0.dir/C_/sdks/nRF5_SDK_15.0.0_a53641a/components/libraries/util/app_error.c.obj
 .comment       0x0000007f       0x80 examples/light_switch/server/CMakeFiles/light_switch_server_nrf52840_xxAA_s140_6.0.0.dir/C_/sdks/nRF5_SDK_15.0.0_a53641a/components/libraries/util/app_util_platform.c.obj
 .comment       0x0000007f       0x80 examples/light_switch/server/CMakeFiles/light_switch_server_nrf52840_xxAA_s140_6.0.0.dir/C_/sdks/nRF5_SDK_15.0.0_a53641a/components/libraries/timer/app_timer.c.obj
 .comment       0x0000007f       0x80 examples/light_switch/server/CMakeFiles/light_switch_server_nrf52840_xxAA_s140_6.0.0.dir/C_/sdks/nRF5_SDK_15.0.0_a53641a/components/libraries/util/app_error_handler_gcc.c.obj
 .comment       0x0000007f       0x80 external/rtt/librtt_nrf52840_xxAA.a(SEGGER_RTT.c.obj)
 .comment       0x0000007f       0x80 external/rtt/librtt_nrf52840_xxAA.a(SEGGER_RTT_printf.c.obj)
 .comment       0x0000007f       0x80 external/micro-ecc/libuECC_nrf52840_xxAA.a(uECC.c.obj)

.debug_info     0x00000000    0x914f1
 .debug_info    0x00000000     0x3067 examples/light_switch/server/CMakeFiles/light_switch_server_nrf52840_xxAA_s140_6.0.0.dir/src/main.c.obj
 .debug_info    0x00003067     0x190f examples/light_switch/server/CMakeFiles/light_switch_server_nrf52840_xxAA_s140_6.0.0.dir/__/__/common/src/app_onoff.c.obj
 .debug_info    0x00004976     0x2540 examples/light_switch/server/CMakeFiles/light_switch_server_nrf52840_xxAA_s140_6.0.0.dir/__/__/__/mesh/stack/src/mesh_stack.c.obj
 .debug_info    0x00006eb6     0x1bac examples/light_switch/server/CMakeFiles/light_switch_server_nrf52840_xxAA_s140_6.0.0.dir/__/__/common/src/mesh_softdevice_init.c.obj
 .debug_info    0x00008a62     0x22e4 examples/light_switch/server/CMakeFiles/light_switch_server_nrf52840_xxAA_s140_6.0.0.dir/__/__/common/src/mesh_provisionee.c.obj
 .debug_info    0x0000ad46      0xd57 examples/light_switch/server/CMakeFiles/light_switch_server_nrf52840_xxAA_s140_6.0.0.dir/__/__/common/src/rtt_input.c.obj
 .debug_info    0x0000ba9d     0x1623 examples/light_switch/server/CMakeFiles/light_switch_server_nrf52840_xxAA_s140_6.0.0.dir/__/__/common/src/simple_hal.c.obj
 .debug_info    0x0000d0c0      0xde7 examples/light_switch/server/CMakeFiles/light_switch_server_nrf52840_xxAA_s140_6.0.0.dir/__/__/common/src/mesh_app_utils.c.obj
 .debug_info    0x0000dea7      0x950 examples/light_switch/server/CMakeFiles/light_switch_server_nrf52840_xxAA_s140_6.0.0.dir/__/__/nrf_mesh_weak.c.obj
 .debug_info    0x0000e7f7     0x106b examples/light_switch/server/CMakeFiles/light_switch_server_nrf52840_xxAA_s140_6.0.0.dir/__/__/common/src/app_error_weak.c.obj
 .debug_info    0x0000f862      0x99b examples/light_switch/server/CMakeFiles/light_switch_server_nrf52840_xxAA_s140_6.0.0.dir/__/__/common/src/assertion_handler_weak.c.obj
 .debug_info    0x000101fd      0xdff examples/light_switch/server/CMakeFiles/light_switch_server_nrf52840_xxAA_s140_6.0.0.dir/__/__/__/mesh/core/src/nrf_mesh_configure.c.obj
 .debug_info    0x00010ffc      0xa86 examples/light_switch/server/CMakeFiles/light_switch_server_nrf52840_xxAA_s140_6.0.0.dir/__/__/__/mesh/core/src/msg_cache.c.obj
 .debug_info    0x00011a82     0x51b5 examples/light_switch/server/CMakeFiles/light_switch_server_nrf52840_xxAA_s140_6.0.0.dir/__/__/__/mesh/core/src/transport.c.obj
 .debug_info    0x00016c37     0x191a examples/light_switch/server/CMakeFiles/light_switch_server_nrf52840_xxAA_s140_6.0.0.dir/__/__/__/mesh/core/src/event.c.obj
 .debug_info    0x00018551     0x1b1c examples/light_switch/server/CMakeFiles/light_switch_server_nrf52840_xxAA_s140_6.0.0.dir/__/__/__/mesh/core/src/packet_buffer.c.obj
 .debug_info    0x0001a06d     0x2157 examples/light_switch/server/CMakeFiles/light_switch_server_nrf52840_xxAA_s140_6.0.0.dir/__/__/__/mesh/core/src/flash_manager_defrag.c.obj
 .debug_info    0x0001c1c4      0xd19 examples/light_switch/server/CMakeFiles/light_switch_server_nrf52840_xxAA_s140_6.0.0.dir/__/__/__/mesh/core/src/fifo.c.obj
 .debug_info    0x0001cedd      0xb84 examples/light_switch/server/CMakeFiles/light_switch_server_nrf52840_xxAA_s140_6.0.0.dir/__/__/__/mesh/core/src/nrf_flash.c.obj
 .debug_info    0x0001da61     0x11b9 examples/light_switch/server/CMakeFiles/light_switch_server_nrf52840_xxAA_s140_6.0.0.dir/__/__/__/mesh/core/src/packet_mgr.c.obj
 .debug_info    0x0001ec1a     0x295c examples/light_switch/server/CMakeFiles/light_switch_server_nrf52840_xxAA_s140_6.0.0.dir/__/__/__/mesh/core/src/net_state.c.obj
 .debug_info    0x00021576     0x196f examples/light_switch/server/CMakeFiles/light_switch_server_nrf52840_xxAA_s140_6.0.0.dir/__/__/__/mesh/core/src/mesh_flash.c.obj
 .debug_info    0x00022ee5      0xaa4 examples/light_switch/server/CMakeFiles/light_switch_server_nrf52840_xxAA_s140_6.0.0.dir/__/__/__/mesh/core/src/nrf_mesh_utils.c.obj
 .debug_info    0x00023989     0x271c examples/light_switch/server/CMakeFiles/light_switch_server_nrf52840_xxAA_s140_6.0.0.dir/__/__/__/mesh/core/src/nrf_mesh.c.obj
 .debug_info    0x000260a5      0xb3d examples/light_switch/server/CMakeFiles/light_switch_server_nrf52840_xxAA_s140_6.0.0.dir/__/__/__/mesh/core/src/queue.c.obj
 .debug_info    0x00026be2      0x7d1 examples/light_switch/server/CMakeFiles/light_switch_server_nrf52840_xxAA_s140_6.0.0.dir/__/__/__/mesh/core/src/hal.c.obj
 .debug_info    0x000273b3      0xf9b examples/light_switch/server/CMakeFiles/light_switch_server_nrf52840_xxAA_s140_6.0.0.dir/__/__/__/mesh/core/src/aes_cmac.c.obj
 .debug_info    0x0002834e      0xfd1 examples/light_switch/server/CMakeFiles/light_switch_server_nrf52840_xxAA_s140_6.0.0.dir/__/__/__/mesh/core/src/timer_scheduler.c.obj
 .debug_info    0x0002931f      0xdb4 examples/light_switch/server/CMakeFiles/light_switch_server_nrf52840_xxAA_s140_6.0.0.dir/__/__/__/mesh/core/src/timer.c.obj
 .debug_info    0x0002a0d3      0x426 examples/light_switch/server/CMakeFiles/light_switch_server_nrf52840_xxAA_s140_6.0.0.dir/__/__/__/mesh/core/src/rand.c.obj
 .debug_info    0x0002a4f9      0xd3a examples/light_switch/server/CMakeFiles/light_switch_server_nrf52840_xxAA_s140_6.0.0.dir/__/__/__/mesh/core/src/mesh_opt.c.obj
 .debug_info    0x0002b233     0x1a9d examples/light_switch/server/CMakeFiles/light_switch_server_nrf52840_xxAA_s140_6.0.0.dir/__/__/__/mesh/core/src/timeslot.c.obj
 .debug_info    0x0002ccd0     0x1afd examples/light_switch/server/CMakeFiles/light_switch_server_nrf52840_xxAA_s140_6.0.0.dir/__/__/__/mesh/core/src/bearer_event.c.obj
 .debug_info    0x0002e7cd     0x1955 examples/light_switch/server/CMakeFiles/light_switch_server_nrf52840_xxAA_s140_6.0.0.dir/__/__/__/mesh/core/src/enc.c.obj
 .debug_info    0x00030122     0x1f61 examples/light_switch/server/CMakeFiles/light_switch_server_nrf52840_xxAA_s140_6.0.0.dir/__/__/__/mesh/core/src/network.c.obj
 .debug_info    0x00032083     0x1cde examples/light_switch/server/CMakeFiles/light_switch_server_nrf52840_xxAA_s140_6.0.0.dir/__/__/__/mesh/core/src/net_packet.c.obj
 .debug_info    0x00033d61      0xdb2 examples/light_switch/server/CMakeFiles/light_switch_server_nrf52840_xxAA_s140_6.0.0.dir/__/__/__/mesh/core/src/msqueue.c.obj
 .debug_info    0x00034b13      0x4c8 examples/light_switch/server/CMakeFiles/light_switch_server_nrf52840_xxAA_s140_6.0.0.dir/__/__/__/mesh/core/src/nrf_mesh_keygen.c.obj
 .debug_info    0x00034fdb      0x506 examples/light_switch/server/CMakeFiles/light_switch_server_nrf52840_xxAA_s140_6.0.0.dir/__/__/__/mesh/core/src/list.c.obj
 .debug_info    0x000354e1      0xe28 examples/light_switch/server/CMakeFiles/light_switch_server_nrf52840_xxAA_s140_6.0.0.dir/__/__/__/mesh/core/src/log.c.obj
 .debug_info    0x00036309     0x3050 examples/light_switch/server/CMakeFiles/light_switch_server_nrf52840_xxAA_s140_6.0.0.dir/__/__/__/mesh/core/src/flash_manager.c.obj
 .debug_info    0x00039359     0x1317 examples/light_switch/server/CMakeFiles/light_switch_server_nrf52840_xxAA_s140_6.0.0.dir/__/__/__/mesh/core/src/ccm_soft.c.obj
 .debug_info    0x0003a670      0xa95 examples/light_switch/server/CMakeFiles/light_switch_server_nrf52840_xxAA_s140_6.0.0.dir/__/__/__/mesh/core/src/replay_cache.c.obj
 .debug_info    0x0003b105     0x17c8 examples/light_switch/server/CMakeFiles/light_switch_server_nrf52840_xxAA_s140_6.0.0.dir/__/__/__/mesh/core/src/beacon.c.obj
 .debug_info    0x0003c8cd      0xbc7 examples/light_switch/server/CMakeFiles/light_switch_server_nrf52840_xxAA_s140_6.0.0.dir/__/__/__/mesh/core/src/flash_manager_internal.c.obj
 .debug_info    0x0003d494     0x129b examples/light_switch/server/CMakeFiles/light_switch_server_nrf52840_xxAA_s140_6.0.0.dir/__/__/__/mesh/core/src/core_tx.c.obj
 .debug_info    0x0003e72f     0x283c examples/light_switch/server/CMakeFiles/light_switch_server_nrf52840_xxAA_s140_6.0.0.dir/__/__/__/mesh/core/src/heartbeat.c.obj
 .debug_info    0x00040f6b     0x2d5a examples/light_switch/server/CMakeFiles/light_switch_server_nrf52840_xxAA_s140_6.0.0.dir/__/__/__/mesh/core/src/net_beacon.c.obj
 .debug_info    0x00043cc5     0x2847 examples/light_switch/server/CMakeFiles/light_switch_server_nrf52840_xxAA_s140_6.0.0.dir/__/__/__/mesh/core/src/mesh_config.c.obj
 .debug_info    0x0004650c     0x16fc examples/light_switch/server/CMakeFiles/light_switch_server_nrf52840_xxAA_s140_6.0.0.dir/__/__/__/mesh/core/src/mesh_config_backend.c.obj
 .debug_info    0x00047c08     0x20af examples/light_switch/server/CMakeFiles/light_switch_server_nrf52840_xxAA_s140_6.0.0.dir/__/__/__/mesh/core/src/mesh_config_flashman_glue.c.obj
 .debug_info    0x00049cb7     0x23a5 examples/light_switch/server/CMakeFiles/light_switch_server_nrf52840_xxAA_s140_6.0.0.dir/__/__/__/mesh/core/src/core_tx_adv.c.obj
 .debug_info    0x0004c05c     0x1189 examples/light_switch/server/CMakeFiles/light_switch_server_nrf52840_xxAA_s140_6.0.0.dir/__/__/__/mesh/bearer/src/ad_listener.c.obj
 .debug_info    0x0004d1e5      0xfea examples/light_switch/server/CMakeFiles/light_switch_server_nrf52840_xxAA_s140_6.0.0.dir/__/__/__/mesh/bearer/src/ad_type_filter.c.obj
 .debug_info    0x0004e1cf     0x26e6 examples/light_switch/server/CMakeFiles/light_switch_server_nrf52840_xxAA_s140_6.0.0.dir/__/__/__/mesh/bearer/src/advertiser.c.obj
 .debug_info    0x000508b5     0x2346 examples/light_switch/server/CMakeFiles/light_switch_server_nrf52840_xxAA_s140_6.0.0.dir/__/__/__/mesh/bearer/src/bearer_handler.c.obj
 .debug_info    0x00052bfb     0x1bbe examples/light_switch/server/CMakeFiles/light_switch_server_nrf52840_xxAA_s140_6.0.0.dir/__/__/__/mesh/bearer/src/broadcast.c.obj
 .debug_info    0x000547b9      0xd2b examples/light_switch/server/CMakeFiles/light_switch_server_nrf52840_xxAA_s140_6.0.0.dir/__/__/__/mesh/bearer/src/filter_engine.c.obj
 .debug_info    0x000554e4      0xa53 examples/light_switch/server/CMakeFiles/light_switch_server_nrf52840_xxAA_s140_6.0.0.dir/__/__/__/mesh/bearer/src/radio_config.c.obj
 .debug_info    0x00055f37     0x28f7 examples/light_switch/server/CMakeFiles/light_switch_server_nrf52840_xxAA_s140_6.0.0.dir/__/__/__/mesh/bearer/src/scanner.c.obj
 .debug_info    0x0005882e     0x107c examples/light_switch/server/CMakeFiles/light_switch_server_nrf52840_xxAA_s140_6.0.0.dir/__/__/__/mesh/bearer/src/mesh_pa_lna.c.obj
 .debug_info    0x000598aa      0xed3 examples/light_switch/server/CMakeFiles/light_switch_server_nrf52840_xxAA_s140_6.0.0.dir/__/__/__/models/foundation/config/src/composition_data.c.obj
 .debug_info    0x0005a77d     0x8af8 examples/light_switch/server/CMakeFiles/light_switch_server_nrf52840_xxAA_s140_6.0.0.dir/__/__/__/models/foundation/config/src/config_server.c.obj
 .debug_info    0x00063275      0x126 examples/light_switch/server/CMakeFiles/light_switch_server_nrf52840_xxAA_s140_6.0.0.dir/__/__/__/models/foundation/config/src/packed_index_list.c.obj
 .debug_info    0x0006339b     0x2611 examples/light_switch/server/CMakeFiles/light_switch_server_nrf52840_xxAA_s140_6.0.0.dir/__/__/__/models/foundation/health/src/health_server.c.obj
 .debug_info    0x000659ac     0x170c examples/light_switch/server/CMakeFiles/light_switch_server_nrf52840_xxAA_s140_6.0.0.dir/__/__/__/models/model_spec/generic_onoff/src/generic_onoff_server.c.obj
 .debug_info    0x000670b8     0x133b examples/light_switch/server/CMakeFiles/light_switch_server_nrf52840_xxAA_s140_6.0.0.dir/__/__/__/models/model_spec/common/src/model_common.c.obj
 .debug_info    0x000683f3     0x1169 examples/light_switch/server/CMakeFiles/light_switch_server_nrf52840_xxAA_s140_6.0.0.dir/__/__/__/mesh/access/src/access_publish.c.obj
 .debug_info    0x0006955c     0x4c07 examples/light_switch/server/CMakeFiles/light_switch_server_nrf52840_xxAA_s140_6.0.0.dir/__/__/__/mesh/access/src/access.c.obj
 .debug_info    0x0006e163     0x19d4 examples/light_switch/server/CMakeFiles/light_switch_server_nrf52840_xxAA_s140_6.0.0.dir/__/__/__/mesh/access/src/access_reliable.c.obj
 .debug_info    0x0006fb37      0xfeb examples/light_switch/server/CMakeFiles/light_switch_server_nrf52840_xxAA_s140_6.0.0.dir/__/__/__/mesh/access/src/access_loopback.c.obj
 .debug_info    0x00070b22     0x689c examples/light_switch/server/CMakeFiles/light_switch_server_nrf52840_xxAA_s140_6.0.0.dir/__/__/__/mesh/access/src/device_state_manager.c.obj
 .debug_info    0x000773be     0x29c0 examples/light_switch/server/CMakeFiles/light_switch_server_nrf52840_xxAA_s140_6.0.0.dir/__/__/__/mesh/prov/src/prov_provisionee.c.obj
 .debug_info    0x00079d7e     0x1f7a examples/light_switch/server/CMakeFiles/light_switch_server_nrf52840_xxAA_s140_6.0.0.dir/__/__/__/mesh/prov/src/nrf_mesh_prov.c.obj
 .debug_info    0x0007bcf8     0x15b2 examples/light_switch/server/CMakeFiles/light_switch_server_nrf52840_xxAA_s140_6.0.0.dir/__/__/__/mesh/prov/src/provisioning.c.obj
 .debug_info    0x0007d2aa     0x1b18 examples/light_switch/server/CMakeFiles/light_switch_server_nrf52840_xxAA_s140_6.0.0.dir/__/__/__/mesh/prov/src/prov_beacon.c.obj
 .debug_info    0x0007edc2     0x2489 examples/light_switch/server/CMakeFiles/light_switch_server_nrf52840_xxAA_s140_6.0.0.dir/__/__/__/mesh/prov/src/prov_utils.c.obj
 .debug_info    0x0008124b     0x3afd examples/light_switch/server/CMakeFiles/light_switch_server_nrf52840_xxAA_s140_6.0.0.dir/__/__/__/mesh/prov/src/prov_bearer_adv.c.obj
 .debug_info    0x00084d48     0x139f examples/light_switch/server/CMakeFiles/light_switch_server_nrf52840_xxAA_s140_6.0.0.dir/C_/sdks/nRF5_SDK_15.0.0_a53641a/modules/nrfx/mdk/system_nrf52840.c.obj
 .debug_info    0x000860e7      0xaee examples/light_switch/server/CMakeFiles/light_switch_server_nrf52840_xxAA_s140_6.0.0.dir/C_/sdks/nRF5_SDK_15.0.0_a53641a/components/libraries/util/app_error.c.obj
 .debug_info    0x00086bd5     0x11bd examples/light_switch/server/CMakeFiles/light_switch_server_nrf52840_xxAA_s140_6.0.0.dir/C_/sdks/nRF5_SDK_15.0.0_a53641a/components/libraries/util/app_util_platform.c.obj
 .debug_info    0x00087d92     0x2201 examples/light_switch/server/CMakeFiles/light_switch_server_nrf52840_xxAA_s140_6.0.0.dir/C_/sdks/nRF5_SDK_15.0.0_a53641a/components/libraries/timer/app_timer.c.obj
 .debug_info    0x00089f93      0x974 examples/light_switch/server/CMakeFiles/light_switch_server_nrf52840_xxAA_s140_6.0.0.dir/C_/sdks/nRF5_SDK_15.0.0_a53641a/components/libraries/util/app_error_handler_gcc.c.obj
 .debug_info    0x0008a907     0x1818 external/rtt/librtt_nrf52840_xxAA.a(SEGGER_RTT.c.obj)
 .debug_info    0x0008c11f      0xec1 external/rtt/librtt_nrf52840_xxAA.a(SEGGER_RTT_printf.c.obj)
 .debug_info    0x0008cfe0     0x4511 external/micro-ecc/libuECC_nrf52840_xxAA.a(uECC.c.obj)

.debug_abbrev   0x00000000    0x12dcf
 .debug_abbrev  0x00000000      0x4ae examples/light_switch/server/CMakeFiles/light_switch_server_nrf52840_xxAA_s140_6.0.0.dir/src/main.c.obj
 .debug_abbrev  0x000004ae      0x3a3 examples/light_switch/server/CMakeFiles/light_switch_server_nrf52840_xxAA_s140_6.0.0.dir/__/__/common/src/app_onoff.c.obj
 .debug_abbrev  0x00000851      0x378 examples/light_switch/server/CMakeFiles/light_switch_server_nrf52840_xxAA_s140_6.0.0.dir/__/__/__/mesh/stack/src/mesh_stack.c.obj
 .debug_abbrev  0x00000bc9      0x432 examples/light_switch/server/CMakeFiles/light_switch_server_nrf52840_xxAA_s140_6.0.0.dir/__/__/common/src/mesh_softdevice_init.c.obj
 .debug_abbrev  0x00000ffb      0x31b examples/light_switch/server/CMakeFiles/light_switch_server_nrf52840_xxAA_s140_6.0.0.dir/__/__/common/src/mesh_provisionee.c.obj
 .debug_abbrev  0x00001316      0x2d3 examples/light_switch/server/CMakeFiles/light_switch_server_nrf52840_xxAA_s140_6.0.0.dir/__/__/common/src/rtt_input.c.obj
 .debug_abbrev  0x000015e9      0x3a3 examples/light_switch/server/CMakeFiles/light_switch_server_nrf52840_xxAA_s140_6.0.0.dir/__/__/common/src/simple_hal.c.obj
 .debug_abbrev  0x0000198c      0x22a examples/light_switch/server/CMakeFiles/light_switch_server_nrf52840_xxAA_s140_6.0.0.dir/__/__/common/src/mesh_app_utils.c.obj
 .debug_abbrev  0x00001bb6      0x1ae examples/light_switch/server/CMakeFiles/light_switch_server_nrf52840_xxAA_s140_6.0.0.dir/__/__/nrf_mesh_weak.c.obj
 .debug_abbrev  0x00001d64      0x2de examples/light_switch/server/CMakeFiles/light_switch_server_nrf52840_xxAA_s140_6.0.0.dir/__/__/common/src/app_error_weak.c.obj
 .debug_abbrev  0x00002042      0x1f6 examples/light_switch/server/CMakeFiles/light_switch_server_nrf52840_xxAA_s140_6.0.0.dir/__/__/common/src/assertion_handler_weak.c.obj
 .debug_abbrev  0x00002238      0x254 examples/light_switch/server/CMakeFiles/light_switch_server_nrf52840_xxAA_s140_6.0.0.dir/__/__/__/mesh/core/src/nrf_mesh_configure.c.obj
 .debug_abbrev  0x0000248c      0x25d examples/light_switch/server/CMakeFiles/light_switch_server_nrf52840_xxAA_s140_6.0.0.dir/__/__/__/mesh/core/src/msg_cache.c.obj
 .debug_abbrev  0x000026e9      0x5ca examples/light_switch/server/CMakeFiles/light_switch_server_nrf52840_xxAA_s140_6.0.0.dir/__/__/__/mesh/core/src/transport.c.obj
 .debug_abbrev  0x00002cb3      0x314 examples/light_switch/server/CMakeFiles/light_switch_server_nrf52840_xxAA_s140_6.0.0.dir/__/__/__/mesh/core/src/event.c.obj
 .debug_abbrev  0x00002fc7      0x468 examples/light_switch/server/CMakeFiles/light_switch_server_nrf52840_xxAA_s140_6.0.0.dir/__/__/__/mesh/core/src/packet_buffer.c.obj
 .debug_abbrev  0x0000342f      0x50e examples/light_switch/server/CMakeFiles/light_switch_server_nrf52840_xxAA_s140_6.0.0.dir/__/__/__/mesh/core/src/flash_manager_defrag.c.obj
 .debug_abbrev  0x0000393d      0x2f2 examples/light_switch/server/CMakeFiles/light_switch_server_nrf52840_xxAA_s140_6.0.0.dir/__/__/__/mesh/core/src/fifo.c.obj
 .debug_abbrev  0x00003c2f      0x21f examples/light_switch/server/CMakeFiles/light_switch_server_nrf52840_xxAA_s140_6.0.0.dir/__/__/__/mesh/core/src/nrf_flash.c.obj
 .debug_abbrev  0x00003e4e      0x3b1 examples/light_switch/server/CMakeFiles/light_switch_server_nrf52840_xxAA_s140_6.0.0.dir/__/__/__/mesh/core/src/packet_mgr.c.obj
 .debug_abbrev  0x000041ff      0x552 examples/light_switch/server/CMakeFiles/light_switch_server_nrf52840_xxAA_s140_6.0.0.dir/__/__/__/mesh/core/src/net_state.c.obj
 .debug_abbrev  0x00004751      0x453 examples/light_switch/server/CMakeFiles/light_switch_server_nrf52840_xxAA_s140_6.0.0.dir/__/__/__/mesh/core/src/mesh_flash.c.obj
 .debug_abbrev  0x00004ba4      0x242 examples/light_switch/server/CMakeFiles/light_switch_server_nrf52840_xxAA_s140_6.0.0.dir/__/__/__/mesh/core/src/nrf_mesh_utils.c.obj
 .debug_abbrev  0x00004de6      0x45f examples/light_switch/server/CMakeFiles/light_switch_server_nrf52840_xxAA_s140_6.0.0.dir/__/__/__/mesh/core/src/nrf_mesh.c.obj
 .debug_abbrev  0x00005245      0x247 examples/light_switch/server/CMakeFiles/light_switch_server_nrf52840_xxAA_s140_6.0.0.dir/__/__/__/mesh/core/src/queue.c.obj
 .debug_abbrev  0x0000548c      0x244 examples/light_switch/server/CMakeFiles/light_switch_server_nrf52840_xxAA_s140_6.0.0.dir/__/__/__/mesh/core/src/hal.c.obj
 .debug_abbrev  0x000056d0      0x341 examples/light_switch/server/CMakeFiles/light_switch_server_nrf52840_xxAA_s140_6.0.0.dir/__/__/__/mesh/core/src/aes_cmac.c.obj
 .debug_abbrev  0x00005a11      0x360 examples/light_switch/server/CMakeFiles/light_switch_server_nrf52840_xxAA_s140_6.0.0.dir/__/__/__/mesh/core/src/timer_scheduler.c.obj
 .debug_abbrev  0x00005d71      0x337 examples/light_switch/server/CMakeFiles/light_switch_server_nrf52840_xxAA_s140_6.0.0.dir/__/__/__/mesh/core/src/timer.c.obj
 .debug_abbrev  0x000060a8      0x194 examples/light_switch/server/CMakeFiles/light_switch_server_nrf52840_xxAA_s140_6.0.0.dir/__/__/__/mesh/core/src/rand.c.obj
 .debug_abbrev  0x0000623c      0x21f examples/light_switch/server/CMakeFiles/light_switch_server_nrf52840_xxAA_s140_6.0.0.dir/__/__/__/mesh/core/src/mesh_opt.c.obj
 .debug_abbrev  0x0000645b      0x4a4 examples/light_switch/server/CMakeFiles/light_switch_server_nrf52840_xxAA_s140_6.0.0.dir/__/__/__/mesh/core/src/timeslot.c.obj
 .debug_abbrev  0x000068ff      0x495 examples/light_switch/server/CMakeFiles/light_switch_server_nrf52840_xxAA_s140_6.0.0.dir/__/__/__/mesh/core/src/bearer_event.c.obj
 .debug_abbrev  0x00006d94      0x3be examples/light_switch/server/CMakeFiles/light_switch_server_nrf52840_xxAA_s140_6.0.0.dir/__/__/__/mesh/core/src/enc.c.obj
 .debug_abbrev  0x00007152      0x4b0 examples/light_switch/server/CMakeFiles/light_switch_server_nrf52840_xxAA_s140_6.0.0.dir/__/__/__/mesh/core/src/network.c.obj
 .debug_abbrev  0x00007602      0x4a1 examples/light_switch/server/CMakeFiles/light_switch_server_nrf52840_xxAA_s140_6.0.0.dir/__/__/__/mesh/core/src/net_packet.c.obj
 .debug_abbrev  0x00007aa3      0x2c0 examples/light_switch/server/CMakeFiles/light_switch_server_nrf52840_xxAA_s140_6.0.0.dir/__/__/__/mesh/core/src/msqueue.c.obj
 .debug_abbrev  0x00007d63      0x163 examples/light_switch/server/CMakeFiles/light_switch_server_nrf52840_xxAA_s140_6.0.0.dir/__/__/__/mesh/core/src/nrf_mesh_keygen.c.obj
 .debug_abbrev  0x00007ec6      0x1a4 examples/light_switch/server/CMakeFiles/light_switch_server_nrf52840_xxAA_s140_6.0.0.dir/__/__/__/mesh/core/src/list.c.obj
 .debug_abbrev  0x0000806a      0x24e examples/light_switch/server/CMakeFiles/light_switch_server_nrf52840_xxAA_s140_6.0.0.dir/__/__/__/mesh/core/src/log.c.obj
 .debug_abbrev  0x000082b8      0x524 examples/light_switch/server/CMakeFiles/light_switch_server_nrf52840_xxAA_s140_6.0.0.dir/__/__/__/mesh/core/src/flash_manager.c.obj
 .debug_abbrev  0x000087dc      0x3a4 examples/light_switch/server/CMakeFiles/light_switch_server_nrf52840_xxAA_s140_6.0.0.dir/__/__/__/mesh/core/src/ccm_soft.c.obj
 .debug_abbrev  0x00008b80      0x261 examples/light_switch/server/CMakeFiles/light_switch_server_nrf52840_xxAA_s140_6.0.0.dir/__/__/__/mesh/core/src/replay_cache.c.obj
 .debug_abbrev  0x00008de1      0x2c4 examples/light_switch/server/CMakeFiles/light_switch_server_nrf52840_xxAA_s140_6.0.0.dir/__/__/__/mesh/core/src/beacon.c.obj
 .debug_abbrev  0x000090a5      0x288 examples/light_switch/server/CMakeFiles/light_switch_server_nrf52840_xxAA_s140_6.0.0.dir/__/__/__/mesh/core/src/flash_manager_internal.c.obj
 .debug_abbrev  0x0000932d      0x2ed examples/light_switch/server/CMakeFiles/light_switch_server_nrf52840_xxAA_s140_6.0.0.dir/__/__/__/mesh/core/src/core_tx.c.obj
 .debug_abbrev  0x0000961a      0x578 examples/light_switch/server/CMakeFiles/light_switch_server_nrf52840_xxAA_s140_6.0.0.dir/__/__/__/mesh/core/src/heartbeat.c.obj
 .debug_abbrev  0x00009b92      0x4ed examples/light_switch/server/CMakeFiles/light_switch_server_nrf52840_xxAA_s140_6.0.0.dir/__/__/__/mesh/core/src/net_beacon.c.obj
 .debug_abbrev  0x0000a07f      0x510 examples/light_switch/server/CMakeFiles/light_switch_server_nrf52840_xxAA_s140_6.0.0.dir/__/__/__/mesh/core/src/mesh_config.c.obj
 .debug_abbrev  0x0000a58f      0x3e2 examples/light_switch/server/CMakeFiles/light_switch_server_nrf52840_xxAA_s140_6.0.0.dir/__/__/__/mesh/core/src/mesh_config_backend.c.obj
 .debug_abbrev  0x0000a971      0x37e examples/light_switch/server/CMakeFiles/light_switch_server_nrf52840_xxAA_s140_6.0.0.dir/__/__/__/mesh/core/src/mesh_config_flashman_glue.c.obj
 .debug_abbrev  0x0000acef      0x47c examples/light_switch/server/CMakeFiles/light_switch_server_nrf52840_xxAA_s140_6.0.0.dir/__/__/__/mesh/core/src/core_tx_adv.c.obj
 .debug_abbrev  0x0000b16b      0x341 examples/light_switch/server/CMakeFiles/light_switch_server_nrf52840_xxAA_s140_6.0.0.dir/__/__/__/mesh/bearer/src/ad_listener.c.obj
 .debug_abbrev  0x0000b4ac      0x368 examples/light_switch/server/CMakeFiles/light_switch_server_nrf52840_xxAA_s140_6.0.0.dir/__/__/__/mesh/bearer/src/ad_type_filter.c.obj
 .debug_abbrev  0x0000b814      0x4da examples/light_switch/server/CMakeFiles/light_switch_server_nrf52840_xxAA_s140_6.0.0.dir/__/__/__/mesh/bearer/src/advertiser.c.obj
 .debug_abbrev  0x0000bcee      0x476 examples/light_switch/server/CMakeFiles/light_switch_server_nrf52840_xxAA_s140_6.0.0.dir/__/__/__/mesh/bearer/src/bearer_handler.c.obj
 .debug_abbrev  0x0000c164      0x3b9 examples/light_switch/server/CMakeFiles/light_switch_server_nrf52840_xxAA_s140_6.0.0.dir/__/__/__/mesh/bearer/src/broadcast.c.obj
 .debug_abbrev  0x0000c51d      0x2a6 examples/light_switch/server/CMakeFiles/light_switch_server_nrf52840_xxAA_s140_6.0.0.dir/__/__/__/mesh/bearer/src/filter_engine.c.obj
 .debug_abbrev  0x0000c7c3      0x1d5 examples/light_switch/server/CMakeFiles/light_switch_server_nrf52840_xxAA_s140_6.0.0.dir/__/__/__/mesh/bearer/src/radio_config.c.obj
 .debug_abbrev  0x0000c998      0x52a examples/light_switch/server/CMakeFiles/light_switch_server_nrf52840_xxAA_s140_6.0.0.dir/__/__/__/mesh/bearer/src/scanner.c.obj
 .debug_abbrev  0x0000cec2      0x2bd examples/light_switch/server/CMakeFiles/light_switch_server_nrf52840_xxAA_s140_6.0.0.dir/__/__/__/mesh/bearer/src/mesh_pa_lna.c.obj
 .debug_abbrev  0x0000d17f      0x2db examples/light_switch/server/CMakeFiles/light_switch_server_nrf52840_xxAA_s140_6.0.0.dir/__/__/__/models/foundation/config/src/composition_data.c.obj
 .debug_abbrev  0x0000d45a      0x544 examples/light_switch/server/CMakeFiles/light_switch_server_nrf52840_xxAA_s140_6.0.0.dir/__/__/__/models/foundation/config/src/config_server.c.obj
 .debug_abbrev  0x0000d99e       0x95 examples/light_switch/server/CMakeFiles/light_switch_server_nrf52840_xxAA_s140_6.0.0.dir/__/__/__/models/foundation/config/src/packed_index_list.c.obj
 .debug_abbrev  0x0000da33      0x4cf examples/light_switch/server/CMakeFiles/light_switch_server_nrf52840_xxAA_s140_6.0.0.dir/__/__/__/models/foundation/health/src/health_server.c.obj
 .debug_abbrev  0x0000df02      0x315 examples/light_switch/server/CMakeFiles/light_switch_server_nrf52840_xxAA_s140_6.0.0.dir/__/__/__/models/model_spec/generic_onoff/src/generic_onoff_server.c.obj
 .debug_abbrev  0x0000e217      0x35e examples/light_switch/server/CMakeFiles/light_switch_server_nrf52840_xxAA_s140_6.0.0.dir/__/__/__/models/model_spec/common/src/model_common.c.obj
 .debug_abbrev  0x0000e575      0x434 examples/light_switch/server/CMakeFiles/light_switch_server_nrf52840_xxAA_s140_6.0.0.dir/__/__/__/mesh/access/src/access_publish.c.obj
 .debug_abbrev  0x0000e9a9      0x610 examples/light_switch/server/CMakeFiles/light_switch_server_nrf52840_xxAA_s140_6.0.0.dir/__/__/__/mesh/access/src/access.c.obj
 .debug_abbrev  0x0000efb9      0x42a examples/light_switch/server/CMakeFiles/light_switch_server_nrf52840_xxAA_s140_6.0.0.dir/__/__/__/mesh/access/src/access_reliable.c.obj
 .debug_abbrev  0x0000f3e3      0x2be examples/light_switch/server/CMakeFiles/light_switch_server_nrf52840_xxAA_s140_6.0.0.dir/__/__/__/mesh/access/src/access_loopback.c.obj
 .debug_abbrev  0x0000f6a1      0x60d examples/light_switch/server/CMakeFiles/light_switch_server_nrf52840_xxAA_s140_6.0.0.dir/__/__/__/mesh/access/src/device_state_manager.c.obj
 .debug_abbrev  0x0000fcae      0x48d examples/light_switch/server/CMakeFiles/light_switch_server_nrf52840_xxAA_s140_6.0.0.dir/__/__/__/mesh/prov/src/prov_provisionee.c.obj
 .debug_abbrev  0x0001013b      0x434 examples/light_switch/server/CMakeFiles/light_switch_server_nrf52840_xxAA_s140_6.0.0.dir/__/__/__/mesh/prov/src/nrf_mesh_prov.c.obj
 .debug_abbrev  0x0001056f      0x2a9 examples/light_switch/server/CMakeFiles/light_switch_server_nrf52840_xxAA_s140_6.0.0.dir/__/__/__/mesh/prov/src/provisioning.c.obj
 .debug_abbrev  0x00010818      0x2c8 examples/light_switch/server/CMakeFiles/light_switch_server_nrf52840_xxAA_s140_6.0.0.dir/__/__/__/mesh/prov/src/prov_beacon.c.obj
 .debug_abbrev  0x00010ae0      0x422 examples/light_switch/server/CMakeFiles/light_switch_server_nrf52840_xxAA_s140_6.0.0.dir/__/__/__/mesh/prov/src/prov_utils.c.obj
 .debug_abbrev  0x00010f02      0x4eb examples/light_switch/server/CMakeFiles/light_switch_server_nrf52840_xxAA_s140_6.0.0.dir/__/__/__/mesh/prov/src/prov_bearer_adv.c.obj
 .debug_abbrev  0x000113ed      0x20b examples/light_switch/server/CMakeFiles/light_switch_server_nrf52840_xxAA_s140_6.0.0.dir/C_/sdks/nRF5_SDK_15.0.0_a53641a/modules/nrfx/mdk/system_nrf52840.c.obj
 .debug_abbrev  0x000115f8      0x232 examples/light_switch/server/CMakeFiles/light_switch_server_nrf52840_xxAA_s140_6.0.0.dir/C_/sdks/nRF5_SDK_15.0.0_a53641a/components/libraries/util/app_error.c.obj
 .debug_abbrev  0x0001182a      0x35b examples/light_switch/server/CMakeFiles/light_switch_server_nrf52840_xxAA_s140_6.0.0.dir/C_/sdks/nRF5_SDK_15.0.0_a53641a/components/libraries/util/app_util_platform.c.obj
 .debug_abbrev  0x00011b85      0x502 examples/light_switch/server/CMakeFiles/light_switch_server_nrf52840_xxAA_s140_6.0.0.dir/C_/sdks/nRF5_SDK_15.0.0_a53641a/components/libraries/timer/app_timer.c.obj
 .debug_abbrev  0x00012087      0x1bd examples/light_switch/server/CMakeFiles/light_switch_server_nrf52840_xxAA_s140_6.0.0.dir/C_/sdks/nRF5_SDK_15.0.0_a53641a/components/libraries/util/app_error_handler_gcc.c.obj
 .debug_abbrev  0x00012244      0x3a9 external/rtt/librtt_nrf52840_xxAA.a(SEGGER_RTT.c.obj)
 .debug_abbrev  0x000125ed      0x32e external/rtt/librtt_nrf52840_xxAA.a(SEGGER_RTT_printf.c.obj)
 .debug_abbrev  0x0001291b      0x4b4 external/micro-ecc/libuECC_nrf52840_xxAA.a(uECC.c.obj)

.debug_loc      0x00000000    0x26bd1
 .debug_loc     0x00000000      0x2ec examples/light_switch/server/CMakeFiles/light_switch_server_nrf52840_xxAA_s140_6.0.0.dir/src/main.c.obj
 .debug_loc     0x000002ec      0x3cd examples/light_switch/server/CMakeFiles/light_switch_server_nrf52840_xxAA_s140_6.0.0.dir/__/__/common/src/app_onoff.c.obj
 .debug_loc     0x000006b9      0x1d2 examples/light_switch/server/CMakeFiles/light_switch_server_nrf52840_xxAA_s140_6.0.0.dir/__/__/__/mesh/stack/src/mesh_stack.c.obj
 .debug_loc     0x0000088b      0x21b examples/light_switch/server/CMakeFiles/light_switch_server_nrf52840_xxAA_s140_6.0.0.dir/__/__/common/src/mesh_softdevice_init.c.obj
 .debug_loc     0x00000aa6      0x10a examples/light_switch/server/CMakeFiles/light_switch_server_nrf52840_xxAA_s140_6.0.0.dir/__/__/common/src/mesh_provisionee.c.obj
 .debug_loc     0x00000bb0       0xed examples/light_switch/server/CMakeFiles/light_switch_server_nrf52840_xxAA_s140_6.0.0.dir/__/__/common/src/rtt_input.c.obj
 .debug_loc     0x00000c9d      0x243 examples/light_switch/server/CMakeFiles/light_switch_server_nrf52840_xxAA_s140_6.0.0.dir/__/__/common/src/simple_hal.c.obj
 .debug_loc     0x00000ee0       0x9a examples/light_switch/server/CMakeFiles/light_switch_server_nrf52840_xxAA_s140_6.0.0.dir/__/__/common/src/mesh_app_utils.c.obj
 .debug_loc     0x00000f7a      0x18c examples/light_switch/server/CMakeFiles/light_switch_server_nrf52840_xxAA_s140_6.0.0.dir/__/__/common/src/app_error_weak.c.obj
 .debug_loc     0x00001106       0x2c examples/light_switch/server/CMakeFiles/light_switch_server_nrf52840_xxAA_s140_6.0.0.dir/__/__/common/src/assertion_handler_weak.c.obj
 .debug_loc     0x00001132       0x2c examples/light_switch/server/CMakeFiles/light_switch_server_nrf52840_xxAA_s140_6.0.0.dir/__/__/__/mesh/core/src/nrf_mesh_configure.c.obj
 .debug_loc     0x0000115e      0x10d examples/light_switch/server/CMakeFiles/light_switch_server_nrf52840_xxAA_s140_6.0.0.dir/__/__/__/mesh/core/src/msg_cache.c.obj
 .debug_loc     0x0000126b     0x259a examples/light_switch/server/CMakeFiles/light_switch_server_nrf52840_xxAA_s140_6.0.0.dir/__/__/__/mesh/core/src/transport.c.obj
 .debug_loc     0x00003805      0x124 examples/light_switch/server/CMakeFiles/light_switch_server_nrf52840_xxAA_s140_6.0.0.dir/__/__/__/mesh/core/src/event.c.obj
 .debug_loc     0x00003929      0x8cd examples/light_switch/server/CMakeFiles/light_switch_server_nrf52840_xxAA_s140_6.0.0.dir/__/__/__/mesh/core/src/packet_buffer.c.obj
 .debug_loc     0x000041f6      0x7fe examples/light_switch/server/CMakeFiles/light_switch_server_nrf52840_xxAA_s140_6.0.0.dir/__/__/__/mesh/core/src/flash_manager_defrag.c.obj
 .debug_loc     0x000049f4      0x4f6 examples/light_switch/server/CMakeFiles/light_switch_server_nrf52840_xxAA_s140_6.0.0.dir/__/__/__/mesh/core/src/fifo.c.obj
 .debug_loc     0x00004eea      0x17a examples/light_switch/server/CMakeFiles/light_switch_server_nrf52840_xxAA_s140_6.0.0.dir/__/__/__/mesh/core/src/nrf_flash.c.obj
 .debug_loc     0x00005064      0x6c1 examples/light_switch/server/CMakeFiles/light_switch_server_nrf52840_xxAA_s140_6.0.0.dir/__/__/__/mesh/core/src/packet_mgr.c.obj
 .debug_loc     0x00005725      0x936 examples/light_switch/server/CMakeFiles/light_switch_server_nrf52840_xxAA_s140_6.0.0.dir/__/__/__/mesh/core/src/net_state.c.obj
 .debug_loc     0x0000605b      0x8be examples/light_switch/server/CMakeFiles/light_switch_server_nrf52840_xxAA_s140_6.0.0.dir/__/__/__/mesh/core/src/mesh_flash.c.obj
 .debug_loc     0x00006919       0xf8 examples/light_switch/server/CMakeFiles/light_switch_server_nrf52840_xxAA_s140_6.0.0.dir/__/__/__/mesh/core/src/nrf_mesh_utils.c.obj
 .debug_loc     0x00006a11      0x524 examples/light_switch/server/CMakeFiles/light_switch_server_nrf52840_xxAA_s140_6.0.0.dir/__/__/__/mesh/core/src/nrf_mesh.c.obj
 .debug_loc     0x00006f35       0xf5 examples/light_switch/server/CMakeFiles/light_switch_server_nrf52840_xxAA_s140_6.0.0.dir/__/__/__/mesh/core/src/queue.c.obj
 .debug_loc     0x0000702a       0x84 examples/light_switch/server/CMakeFiles/light_switch_server_nrf52840_xxAA_s140_6.0.0.dir/__/__/__/mesh/core/src/hal.c.obj
 .debug_loc     0x000070ae      0x3d8 examples/light_switch/server/CMakeFiles/light_switch_server_nrf52840_xxAA_s140_6.0.0.dir/__/__/__/mesh/core/src/aes_cmac.c.obj
 .debug_loc     0x00007486      0x2bc examples/light_switch/server/CMakeFiles/light_switch_server_nrf52840_xxAA_s140_6.0.0.dir/__/__/__/mesh/core/src/timer_scheduler.c.obj
 .debug_loc     0x00007742      0x5f9 examples/light_switch/server/CMakeFiles/light_switch_server_nrf52840_xxAA_s140_6.0.0.dir/__/__/__/mesh/core/src/timer.c.obj
 .debug_loc     0x00007d3b      0x14e examples/light_switch/server/CMakeFiles/light_switch_server_nrf52840_xxAA_s140_6.0.0.dir/__/__/__/mesh/core/src/rand.c.obj
 .debug_loc     0x00007e89      0x344 examples/light_switch/server/CMakeFiles/light_switch_server_nrf52840_xxAA_s140_6.0.0.dir/__/__/__/mesh/core/src/timeslot.c.obj
 .debug_loc     0x000081cd      0x526 examples/light_switch/server/CMakeFiles/light_switch_server_nrf52840_xxAA_s140_6.0.0.dir/__/__/__/mesh/core/src/bearer_event.c.obj
 .debug_loc     0x000086f3      0x8e7 examples/light_switch/server/CMakeFiles/light_switch_server_nrf52840_xxAA_s140_6.0.0.dir/__/__/__/mesh/core/src/enc.c.obj
 .debug_loc     0x00008fda      0x6e4 examples/light_switch/server/CMakeFiles/light_switch_server_nrf52840_xxAA_s140_6.0.0.dir/__/__/__/mesh/core/src/network.c.obj
 .debug_loc     0x000096be      0x817 examples/light_switch/server/CMakeFiles/light_switch_server_nrf52840_xxAA_s140_6.0.0.dir/__/__/__/mesh/core/src/net_packet.c.obj
 .debug_loc     0x00009ed5      0x2ed examples/light_switch/server/CMakeFiles/light_switch_server_nrf52840_xxAA_s140_6.0.0.dir/__/__/__/mesh/core/src/msqueue.c.obj
 .debug_loc     0x0000a1c2      0x1ee examples/light_switch/server/CMakeFiles/light_switch_server_nrf52840_xxAA_s140_6.0.0.dir/__/__/__/mesh/core/src/nrf_mesh_keygen.c.obj
 .debug_loc     0x0000a3b0      0x3bf examples/light_switch/server/CMakeFiles/light_switch_server_nrf52840_xxAA_s140_6.0.0.dir/__/__/__/mesh/core/src/list.c.obj
 .debug_loc     0x0000a76f      0x348 examples/light_switch/server/CMakeFiles/light_switch_server_nrf52840_xxAA_s140_6.0.0.dir/__/__/__/mesh/core/src/log.c.obj
 .debug_loc     0x0000aab7     0x1439 examples/light_switch/server/CMakeFiles/light_switch_server_nrf52840_xxAA_s140_6.0.0.dir/__/__/__/mesh/core/src/flash_manager.c.obj
 .debug_loc     0x0000bef0      0x4b6 examples/light_switch/server/CMakeFiles/light_switch_server_nrf52840_xxAA_s140_6.0.0.dir/__/__/__/mesh/core/src/ccm_soft.c.obj
 .debug_loc     0x0000c3a6      0x157 examples/light_switch/server/CMakeFiles/light_switch_server_nrf52840_xxAA_s140_6.0.0.dir/__/__/__/mesh/core/src/replay_cache.c.obj
 .debug_loc     0x0000c4fd      0x30d examples/light_switch/server/CMakeFiles/light_switch_server_nrf52840_xxAA_s140_6.0.0.dir/__/__/__/mesh/core/src/beacon.c.obj
 .debug_loc     0x0000c80a       0xe3 examples/light_switch/server/CMakeFiles/light_switch_server_nrf52840_xxAA_s140_6.0.0.dir/__/__/__/mesh/core/src/flash_manager_internal.c.obj
 .debug_loc     0x0000c8ed      0x3c5 examples/light_switch/server/CMakeFiles/light_switch_server_nrf52840_xxAA_s140_6.0.0.dir/__/__/__/mesh/core/src/core_tx.c.obj
 .debug_loc     0x0000ccb2      0x5ba examples/light_switch/server/CMakeFiles/light_switch_server_nrf52840_xxAA_s140_6.0.0.dir/__/__/__/mesh/core/src/heartbeat.c.obj
 .debug_loc     0x0000d26c      0x6b3 examples/light_switch/server/CMakeFiles/light_switch_server_nrf52840_xxAA_s140_6.0.0.dir/__/__/__/mesh/core/src/net_beacon.c.obj
 .debug_loc     0x0000d91f      0x76f examples/light_switch/server/CMakeFiles/light_switch_server_nrf52840_xxAA_s140_6.0.0.dir/__/__/__/mesh/core/src/mesh_config.c.obj
 .debug_loc     0x0000e08e      0x4f8 examples/light_switch/server/CMakeFiles/light_switch_server_nrf52840_xxAA_s140_6.0.0.dir/__/__/__/mesh/core/src/mesh_config_backend.c.obj
 .debug_loc     0x0000e586      0x4c1 examples/light_switch/server/CMakeFiles/light_switch_server_nrf52840_xxAA_s140_6.0.0.dir/__/__/__/mesh/core/src/mesh_config_flashman_glue.c.obj
 .debug_loc     0x0000ea47      0xad1 examples/light_switch/server/CMakeFiles/light_switch_server_nrf52840_xxAA_s140_6.0.0.dir/__/__/__/mesh/core/src/core_tx_adv.c.obj
 .debug_loc     0x0000f518      0x40d examples/light_switch/server/CMakeFiles/light_switch_server_nrf52840_xxAA_s140_6.0.0.dir/__/__/__/mesh/bearer/src/ad_listener.c.obj
 .debug_loc     0x0000f925      0x3ae examples/light_switch/server/CMakeFiles/light_switch_server_nrf52840_xxAA_s140_6.0.0.dir/__/__/__/mesh/bearer/src/ad_type_filter.c.obj
 .debug_loc     0x0000fcd3      0xc97 examples/light_switch/server/CMakeFiles/light_switch_server_nrf52840_xxAA_s140_6.0.0.dir/__/__/__/mesh/bearer/src/advertiser.c.obj
 .debug_loc     0x0001096a      0x438 examples/light_switch/server/CMakeFiles/light_switch_server_nrf52840_xxAA_s140_6.0.0.dir/__/__/__/mesh/bearer/src/bearer_handler.c.obj
 .debug_loc     0x00010da2      0x320 examples/light_switch/server/CMakeFiles/light_switch_server_nrf52840_xxAA_s140_6.0.0.dir/__/__/__/mesh/bearer/src/broadcast.c.obj
 .debug_loc     0x000110c2       0xde examples/light_switch/server/CMakeFiles/light_switch_server_nrf52840_xxAA_s140_6.0.0.dir/__/__/__/mesh/bearer/src/filter_engine.c.obj
 .debug_loc     0x000111a0      0x232 examples/light_switch/server/CMakeFiles/light_switch_server_nrf52840_xxAA_s140_6.0.0.dir/__/__/__/mesh/bearer/src/radio_config.c.obj
 .debug_loc     0x000113d2      0x48a examples/light_switch/server/CMakeFiles/light_switch_server_nrf52840_xxAA_s140_6.0.0.dir/__/__/__/mesh/bearer/src/scanner.c.obj
 .debug_loc     0x0001185c      0x1d6 examples/light_switch/server/CMakeFiles/light_switch_server_nrf52840_xxAA_s140_6.0.0.dir/__/__/__/mesh/bearer/src/mesh_pa_lna.c.obj
 .debug_loc     0x00011a32      0x26f examples/light_switch/server/CMakeFiles/light_switch_server_nrf52840_xxAA_s140_6.0.0.dir/__/__/__/models/foundation/config/src/composition_data.c.obj
 .debug_loc     0x00011ca1     0x4c85 examples/light_switch/server/CMakeFiles/light_switch_server_nrf52840_xxAA_s140_6.0.0.dir/__/__/__/models/foundation/config/src/config_server.c.obj
 .debug_loc     0x00016926       0x89 examples/light_switch/server/CMakeFiles/light_switch_server_nrf52840_xxAA_s140_6.0.0.dir/__/__/__/models/foundation/config/src/packed_index_list.c.obj
 .debug_loc     0x000169af     0x1373 examples/light_switch/server/CMakeFiles/light_switch_server_nrf52840_xxAA_s140_6.0.0.dir/__/__/__/models/foundation/health/src/health_server.c.obj
 .debug_loc     0x00017d22      0x2b2 examples/light_switch/server/CMakeFiles/light_switch_server_nrf52840_xxAA_s140_6.0.0.dir/__/__/__/models/model_spec/generic_onoff/src/generic_onoff_server.c.obj
 .debug_loc     0x00017fd4      0x437 examples/light_switch/server/CMakeFiles/light_switch_server_nrf52840_xxAA_s140_6.0.0.dir/__/__/__/models/model_spec/common/src/model_common.c.obj
 .debug_loc     0x0001840b      0x4d4 examples/light_switch/server/CMakeFiles/light_switch_server_nrf52840_xxAA_s140_6.0.0.dir/__/__/__/mesh/access/src/access_publish.c.obj
 .debug_loc     0x000188df     0x2352 examples/light_switch/server/CMakeFiles/light_switch_server_nrf52840_xxAA_s140_6.0.0.dir/__/__/__/mesh/access/src/access.c.obj
 .debug_loc     0x0001ac31      0x7bc examples/light_switch/server/CMakeFiles/light_switch_server_nrf52840_xxAA_s140_6.0.0.dir/__/__/__/mesh/access/src/access_reliable.c.obj
 .debug_loc     0x0001b3ed       0x81 examples/light_switch/server/CMakeFiles/light_switch_server_nrf52840_xxAA_s140_6.0.0.dir/__/__/__/mesh/access/src/access_loopback.c.obj
 .debug_loc     0x0001b46e     0x3b45 examples/light_switch/server/CMakeFiles/light_switch_server_nrf52840_xxAA_s140_6.0.0.dir/__/__/__/mesh/access/src/device_state_manager.c.obj
 .debug_loc     0x0001efb3      0x7e0 examples/light_switch/server/CMakeFiles/light_switch_server_nrf52840_xxAA_s140_6.0.0.dir/__/__/__/mesh/prov/src/prov_provisionee.c.obj
 .debug_loc     0x0001f793      0xa4b examples/light_switch/server/CMakeFiles/light_switch_server_nrf52840_xxAA_s140_6.0.0.dir/__/__/__/mesh/prov/src/nrf_mesh_prov.c.obj
 .debug_loc     0x000201de      0x490 examples/light_switch/server/CMakeFiles/light_switch_server_nrf52840_xxAA_s140_6.0.0.dir/__/__/__/mesh/prov/src/provisioning.c.obj
 .debug_loc     0x0002066e      0x18c examples/light_switch/server/CMakeFiles/light_switch_server_nrf52840_xxAA_s140_6.0.0.dir/__/__/__/mesh/prov/src/prov_beacon.c.obj
 .debug_loc     0x000207fa      0x548 examples/light_switch/server/CMakeFiles/light_switch_server_nrf52840_xxAA_s140_6.0.0.dir/__/__/__/mesh/prov/src/prov_utils.c.obj
 .debug_loc     0x00020d42     0x14df examples/light_switch/server/CMakeFiles/light_switch_server_nrf52840_xxAA_s140_6.0.0.dir/__/__/__/mesh/prov/src/prov_bearer_adv.c.obj
 .debug_loc     0x00022221       0xb5 examples/light_switch/server/CMakeFiles/light_switch_server_nrf52840_xxAA_s140_6.0.0.dir/C_/sdks/nRF5_SDK_15.0.0_a53641a/components/libraries/util/app_error.c.obj
 .debug_loc     0x000222d6       0xc1 examples/light_switch/server/CMakeFiles/light_switch_server_nrf52840_xxAA_s140_6.0.0.dir/C_/sdks/nRF5_SDK_15.0.0_a53641a/components/libraries/util/app_util_platform.c.obj
 .debug_loc     0x00022397      0xa5d examples/light_switch/server/CMakeFiles/light_switch_server_nrf52840_xxAA_s140_6.0.0.dir/C_/sdks/nRF5_SDK_15.0.0_a53641a/components/libraries/timer/app_timer.c.obj
 .debug_loc     0x00022df4       0x63 examples/light_switch/server/CMakeFiles/light_switch_server_nrf52840_xxAA_s140_6.0.0.dir/C_/sdks/nRF5_SDK_15.0.0_a53641a/components/libraries/util/app_error_handler_gcc.c.obj
 .debug_loc     0x00022e57     0x1222 external/rtt/librtt_nrf52840_xxAA.a(SEGGER_RTT.c.obj)
 .debug_loc     0x00024079      0x70f external/rtt/librtt_nrf52840_xxAA.a(SEGGER_RTT_printf.c.obj)
 .debug_loc     0x00024788     0x2449 external/micro-ecc/libuECC_nrf52840_xxAA.a(uECC.c.obj)

.debug_aranges  0x00000000     0x27c0
 .debug_aranges
                0x00000000       0x68 examples/light_switch/server/CMakeFiles/light_switch_server_nrf52840_xxAA_s140_6.0.0.dir/src/main.c.obj
 .debug_aranges
                0x00000068       0x50 examples/light_switch/server/CMakeFiles/light_switch_server_nrf52840_xxAA_s140_6.0.0.dir/__/__/common/src/app_onoff.c.obj
 .debug_aranges
                0x000000b8       0x58 examples/light_switch/server/CMakeFiles/light_switch_server_nrf52840_xxAA_s140_6.0.0.dir/__/__/__/mesh/stack/src/mesh_stack.c.obj
 .debug_aranges
                0x00000110       0x48 examples/light_switch/server/CMakeFiles/light_switch_server_nrf52840_xxAA_s140_6.0.0.dir/__/__/common/src/mesh_softdevice_init.c.obj
 .debug_aranges
                0x00000158       0x38 examples/light_switch/server/CMakeFiles/light_switch_server_nrf52840_xxAA_s140_6.0.0.dir/__/__/common/src/mesh_provisionee.c.obj
 .debug_aranges
                0x00000190       0x30 examples/light_switch/server/CMakeFiles/light_switch_server_nrf52840_xxAA_s140_6.0.0.dir/__/__/common/src/rtt_input.c.obj
 .debug_aranges
                0x000001c0       0x58 examples/light_switch/server/CMakeFiles/light_switch_server_nrf52840_xxAA_s140_6.0.0.dir/__/__/common/src/simple_hal.c.obj
 .debug_aranges
                0x00000218       0x20 examples/light_switch/server/CMakeFiles/light_switch_server_nrf52840_xxAA_s140_6.0.0.dir/__/__/common/src/mesh_app_utils.c.obj
 .debug_aranges
                0x00000238       0x28 examples/light_switch/server/CMakeFiles/light_switch_server_nrf52840_xxAA_s140_6.0.0.dir/__/__/nrf_mesh_weak.c.obj
 .debug_aranges
                0x00000260       0x20 examples/light_switch/server/CMakeFiles/light_switch_server_nrf52840_xxAA_s140_6.0.0.dir/__/__/common/src/app_error_weak.c.obj
 .debug_aranges
                0x00000280       0x20 examples/light_switch/server/CMakeFiles/light_switch_server_nrf52840_xxAA_s140_6.0.0.dir/__/__/common/src/assertion_handler_weak.c.obj
 .debug_aranges
                0x000002a0       0x30 examples/light_switch/server/CMakeFiles/light_switch_server_nrf52840_xxAA_s140_6.0.0.dir/__/__/__/mesh/core/src/nrf_mesh_configure.c.obj
 .debug_aranges
                0x000002d0       0x38 examples/light_switch/server/CMakeFiles/light_switch_server_nrf52840_xxAA_s140_6.0.0.dir/__/__/__/mesh/core/src/msg_cache.c.obj
 .debug_aranges
                0x00000308      0x110 examples/light_switch/server/CMakeFiles/light_switch_server_nrf52840_xxAA_s140_6.0.0.dir/__/__/__/mesh/core/src/transport.c.obj
 .debug_aranges
                0x00000418       0x30 examples/light_switch/server/CMakeFiles/light_switch_server_nrf52840_xxAA_s140_6.0.0.dir/__/__/__/mesh/core/src/event.c.obj
 .debug_aranges
                0x00000448       0x68 examples/light_switch/server/CMakeFiles/light_switch_server_nrf52840_xxAA_s140_6.0.0.dir/__/__/__/mesh/core/src/packet_buffer.c.obj
 .debug_aranges
                0x000004b0       0xc8 examples/light_switch/server/CMakeFiles/light_switch_server_nrf52840_xxAA_s140_6.0.0.dir/__/__/__/mesh/core/src/flash_manager_defrag.c.obj
 .debug_aranges
                0x00000578       0x60 examples/light_switch/server/CMakeFiles/light_switch_server_nrf52840_xxAA_s140_6.0.0.dir/__/__/__/mesh/core/src/fifo.c.obj
 .debug_aranges
                0x000005d8       0x30 examples/light_switch/server/CMakeFiles/light_switch_server_nrf52840_xxAA_s140_6.0.0.dir/__/__/__/mesh/core/src/nrf_flash.c.obj
 .debug_aranges
                0x00000608       0x48 examples/light_switch/server/CMakeFiles/light_switch_server_nrf52840_xxAA_s140_6.0.0.dir/__/__/__/mesh/core/src/packet_mgr.c.obj
 .debug_aranges
                0x00000650       0xd8 examples/light_switch/server/CMakeFiles/light_switch_server_nrf52840_xxAA_s140_6.0.0.dir/__/__/__/mesh/core/src/net_state.c.obj
 .debug_aranges
                0x00000728       0x60 examples/light_switch/server/CMakeFiles/light_switch_server_nrf52840_xxAA_s140_6.0.0.dir/__/__/__/mesh/core/src/mesh_flash.c.obj
 .debug_aranges
                0x00000788       0x30 examples/light_switch/server/CMakeFiles/light_switch_server_nrf52840_xxAA_s140_6.0.0.dir/__/__/__/mesh/core/src/nrf_mesh_utils.c.obj
 .debug_aranges
                0x000007b8       0x90 examples/light_switch/server/CMakeFiles/light_switch_server_nrf52840_xxAA_s140_6.0.0.dir/__/__/__/mesh/core/src/nrf_mesh.c.obj
 .debug_aranges
                0x00000848       0x38 examples/light_switch/server/CMakeFiles/light_switch_server_nrf52840_xxAA_s140_6.0.0.dir/__/__/__/mesh/core/src/queue.c.obj
 .debug_aranges
                0x00000880       0x40 examples/light_switch/server/CMakeFiles/light_switch_server_nrf52840_xxAA_s140_6.0.0.dir/__/__/__/mesh/core/src/hal.c.obj
 .debug_aranges
                0x000008c0       0x30 examples/light_switch/server/CMakeFiles/light_switch_server_nrf52840_xxAA_s140_6.0.0.dir/__/__/__/mesh/core/src/aes_cmac.c.obj
 .debug_aranges
                0x000008f0       0x68 examples/light_switch/server/CMakeFiles/light_switch_server_nrf52840_xxAA_s140_6.0.0.dir/__/__/__/mesh/core/src/timer_scheduler.c.obj
 .debug_aranges
                0x00000958       0x60 examples/light_switch/server/CMakeFiles/light_switch_server_nrf52840_xxAA_s140_6.0.0.dir/__/__/__/mesh/core/src/timer.c.obj
 .debug_aranges
                0x000009b8       0x40 examples/light_switch/server/CMakeFiles/light_switch_server_nrf52840_xxAA_s140_6.0.0.dir/__/__/__/mesh/core/src/rand.c.obj
 .debug_aranges
                0x000009f8       0x20 examples/light_switch/server/CMakeFiles/light_switch_server_nrf52840_xxAA_s140_6.0.0.dir/__/__/__/mesh/core/src/mesh_opt.c.obj
 .debug_aranges
                0x00000a18       0xb8 examples/light_switch/server/CMakeFiles/light_switch_server_nrf52840_xxAA_s140_6.0.0.dir/__/__/__/mesh/core/src/timeslot.c.obj
 .debug_aranges
                0x00000ad0       0x98 examples/light_switch/server/CMakeFiles/light_switch_server_nrf52840_xxAA_s140_6.0.0.dir/__/__/__/mesh/core/src/bearer_event.c.obj
 .debug_aranges
                0x00000b68       0x78 examples/light_switch/server/CMakeFiles/light_switch_server_nrf52840_xxAA_s140_6.0.0.dir/__/__/__/mesh/core/src/enc.c.obj
 .debug_aranges
                0x00000be0       0x60 examples/light_switch/server/CMakeFiles/light_switch_server_nrf52840_xxAA_s140_6.0.0.dir/__/__/__/mesh/core/src/network.c.obj
 .debug_aranges
                0x00000c40       0x68 examples/light_switch/server/CMakeFiles/light_switch_server_nrf52840_xxAA_s140_6.0.0.dir/__/__/__/mesh/core/src/net_packet.c.obj
 .debug_aranges
                0x00000ca8       0x48 examples/light_switch/server/CMakeFiles/light_switch_server_nrf52840_xxAA_s140_6.0.0.dir/__/__/__/mesh/core/src/msqueue.c.obj
 .debug_aranges
                0x00000cf0       0x40 examples/light_switch/server/CMakeFiles/light_switch_server_nrf52840_xxAA_s140_6.0.0.dir/__/__/__/mesh/core/src/nrf_mesh_keygen.c.obj
 .debug_aranges
                0x00000d30       0x48 examples/light_switch/server/CMakeFiles/light_switch_server_nrf52840_xxAA_s140_6.0.0.dir/__/__/__/mesh/core/src/list.c.obj
 .debug_aranges
                0x00000d78       0x48 examples/light_switch/server/CMakeFiles/light_switch_server_nrf52840_xxAA_s140_6.0.0.dir/__/__/__/mesh/core/src/log.c.obj
 .debug_aranges
                0x00000dc0       0xf8 examples/light_switch/server/CMakeFiles/light_switch_server_nrf52840_xxAA_s140_6.0.0.dir/__/__/__/mesh/core/src/flash_manager.c.obj
 .debug_aranges
                0x00000eb8       0x50 examples/light_switch/server/CMakeFiles/light_switch_server_nrf52840_xxAA_s140_6.0.0.dir/__/__/__/mesh/core/src/ccm_soft.c.obj
 .debug_aranges
                0x00000f08       0x40 examples/light_switch/server/CMakeFiles/light_switch_server_nrf52840_xxAA_s140_6.0.0.dir/__/__/__/mesh/core/src/replay_cache.c.obj
 .debug_aranges
                0x00000f48       0x28 examples/light_switch/server/CMakeFiles/light_switch_server_nrf52840_xxAA_s140_6.0.0.dir/__/__/__/mesh/core/src/beacon.c.obj
 .debug_aranges
                0x00000f70       0x20 examples/light_switch/server/CMakeFiles/light_switch_server_nrf52840_xxAA_s140_6.0.0.dir/__/__/__/mesh/core/src/flash_manager_internal.c.obj
 .debug_aranges
                0x00000f90       0x58 examples/light_switch/server/CMakeFiles/light_switch_server_nrf52840_xxAA_s140_6.0.0.dir/__/__/__/mesh/core/src/core_tx.c.obj
 .debug_aranges
                0x00000fe8       0x98 examples/light_switch/server/CMakeFiles/light_switch_server_nrf52840_xxAA_s140_6.0.0.dir/__/__/__/mesh/core/src/heartbeat.c.obj
 .debug_aranges
                0x00001080       0x80 examples/light_switch/server/CMakeFiles/light_switch_server_nrf52840_xxAA_s140_6.0.0.dir/__/__/__/mesh/core/src/net_beacon.c.obj
 .debug_aranges
                0x00001100       0x90 examples/light_switch/server/CMakeFiles/light_switch_server_nrf52840_xxAA_s140_6.0.0.dir/__/__/__/mesh/core/src/mesh_config.c.obj
 .debug_aranges
                0x00001190       0x58 examples/light_switch/server/CMakeFiles/light_switch_server_nrf52840_xxAA_s140_6.0.0.dir/__/__/__/mesh/core/src/mesh_config_backend.c.obj
 .debug_aranges
                0x000011e8       0x80 examples/light_switch/server/CMakeFiles/light_switch_server_nrf52840_xxAA_s140_6.0.0.dir/__/__/__/mesh/core/src/mesh_config_flashman_glue.c.obj
 .debug_aranges
                0x00001268       0xa0 examples/light_switch/server/CMakeFiles/light_switch_server_nrf52840_xxAA_s140_6.0.0.dir/__/__/__/mesh/core/src/core_tx_adv.c.obj
 .debug_aranges
                0x00001308       0x30 examples/light_switch/server/CMakeFiles/light_switch_server_nrf52840_xxAA_s140_6.0.0.dir/__/__/__/mesh/bearer/src/ad_listener.c.obj
 .debug_aranges
                0x00001338       0x58 examples/light_switch/server/CMakeFiles/light_switch_server_nrf52840_xxAA_s140_6.0.0.dir/__/__/__/mesh/bearer/src/ad_type_filter.c.obj
 .debug_aranges
                0x00001390       0xb8 examples/light_switch/server/CMakeFiles/light_switch_server_nrf52840_xxAA_s140_6.0.0.dir/__/__/__/mesh/bearer/src/advertiser.c.obj
 .debug_aranges
                0x00001448       0x88 examples/light_switch/server/CMakeFiles/light_switch_server_nrf52840_xxAA_s140_6.0.0.dir/__/__/__/mesh/bearer/src/bearer_handler.c.obj
 .debug_aranges
                0x000014d0       0x30 examples/light_switch/server/CMakeFiles/light_switch_server_nrf52840_xxAA_s140_6.0.0.dir/__/__/__/mesh/bearer/src/broadcast.c.obj
 .debug_aranges
                0x00001500       0x38 examples/light_switch/server/CMakeFiles/light_switch_server_nrf52840_xxAA_s140_6.0.0.dir/__/__/__/mesh/bearer/src/filter_engine.c.obj
 .debug_aranges
                0x00001538       0x40 examples/light_switch/server/CMakeFiles/light_switch_server_nrf52840_xxAA_s140_6.0.0.dir/__/__/__/mesh/bearer/src/radio_config.c.obj
 .debug_aranges
                0x00001578       0xe8 examples/light_switch/server/CMakeFiles/light_switch_server_nrf52840_xxAA_s140_6.0.0.dir/__/__/__/mesh/bearer/src/scanner.c.obj
 .debug_aranges
                0x00001660       0x70 examples/light_switch/server/CMakeFiles/light_switch_server_nrf52840_xxAA_s140_6.0.0.dir/__/__/__/mesh/bearer/src/mesh_pa_lna.c.obj
 .debug_aranges
                0x000016d0       0x20 examples/light_switch/server/CMakeFiles/light_switch_server_nrf52840_xxAA_s140_6.0.0.dir/__/__/__/models/foundation/config/src/composition_data.c.obj
 .debug_aranges
                0x000016f0      0x218 examples/light_switch/server/CMakeFiles/light_switch_server_nrf52840_xxAA_s140_6.0.0.dir/__/__/__/models/foundation/config/src/config_server.c.obj
 .debug_aranges
                0x00001908       0x20 examples/light_switch/server/CMakeFiles/light_switch_server_nrf52840_xxAA_s140_6.0.0.dir/__/__/__/models/foundation/config/src/packed_index_list.c.obj
 .debug_aranges
                0x00001928       0xc8 examples/light_switch/server/CMakeFiles/light_switch_server_nrf52840_xxAA_s140_6.0.0.dir/__/__/__/models/foundation/health/src/health_server.c.obj
 .debug_aranges
                0x000019f0       0x48 examples/light_switch/server/CMakeFiles/light_switch_server_nrf52840_xxAA_s140_6.0.0.dir/__/__/__/models/model_spec/generic_onoff/src/generic_onoff_server.c.obj
 .debug_aranges
                0x00001a38       0x88 examples/light_switch/server/CMakeFiles/light_switch_server_nrf52840_xxAA_s140_6.0.0.dir/__/__/__/models/model_spec/common/src/model_common.c.obj
 .debug_aranges
                0x00001ac0       0x50 examples/light_switch/server/CMakeFiles/light_switch_server_nrf52840_xxAA_s140_6.0.0.dir/__/__/__/mesh/access/src/access_publish.c.obj
 .debug_aranges
                0x00001b10      0x1e0 examples/light_switch/server/CMakeFiles/light_switch_server_nrf52840_xxAA_s140_6.0.0.dir/__/__/__/mesh/access/src/access.c.obj
 .debug_aranges
                0x00001cf0       0x58 examples/light_switch/server/CMakeFiles/light_switch_server_nrf52840_xxAA_s140_6.0.0.dir/__/__/__/mesh/access/src/access_reliable.c.obj
 .debug_aranges
                0x00001d48       0x38 examples/light_switch/server/CMakeFiles/light_switch_server_nrf52840_xxAA_s140_6.0.0.dir/__/__/__/mesh/access/src/access_loopback.c.obj
 .debug_aranges
                0x00001d80      0x328 examples/light_switch/server/CMakeFiles/light_switch_server_nrf52840_xxAA_s140_6.0.0.dir/__/__/__/mesh/access/src/device_state_manager.c.obj
 .debug_aranges
                0x000020a8       0x70 examples/light_switch/server/CMakeFiles/light_switch_server_nrf52840_xxAA_s140_6.0.0.dir/__/__/__/mesh/prov/src/prov_provisionee.c.obj
 .debug_aranges
                0x00002118       0x88 examples/light_switch/server/CMakeFiles/light_switch_server_nrf52840_xxAA_s140_6.0.0.dir/__/__/__/mesh/prov/src/nrf_mesh_prov.c.obj
 .debug_aranges
                0x000021a0       0x80 examples/light_switch/server/CMakeFiles/light_switch_server_nrf52840_xxAA_s140_6.0.0.dir/__/__/__/mesh/prov/src/provisioning.c.obj
 .debug_aranges
                0x00002220       0x38 examples/light_switch/server/CMakeFiles/light_switch_server_nrf52840_xxAA_s140_6.0.0.dir/__/__/__/mesh/prov/src/prov_beacon.c.obj
 .debug_aranges
                0x00002258       0x90 examples/light_switch/server/CMakeFiles/light_switch_server_nrf52840_xxAA_s140_6.0.0.dir/__/__/__/mesh/prov/src/prov_utils.c.obj
 .debug_aranges
                0x000022e8       0xd0 examples/light_switch/server/CMakeFiles/light_switch_server_nrf52840_xxAA_s140_6.0.0.dir/__/__/__/mesh/prov/src/prov_bearer_adv.c.obj
 .debug_aranges
                0x000023b8       0x30 examples/light_switch/server/CMakeFiles/light_switch_server_nrf52840_xxAA_s140_6.0.0.dir/C_/sdks/nRF5_SDK_15.0.0_a53641a/modules/nrfx/mdk/system_nrf52840.c.obj
 .debug_aranges
                0x000023e8       0x28 examples/light_switch/server/CMakeFiles/light_switch_server_nrf52840_xxAA_s140_6.0.0.dir/C_/sdks/nRF5_SDK_15.0.0_a53641a/components/libraries/util/app_error.c.obj
 .debug_aranges
                0x00002410       0x48 examples/light_switch/server/CMakeFiles/light_switch_server_nrf52840_xxAA_s140_6.0.0.dir/C_/sdks/nRF5_SDK_15.0.0_a53641a/components/libraries/util/app_util_platform.c.obj
 .debug_aranges
                0x00002458       0x90 examples/light_switch/server/CMakeFiles/light_switch_server_nrf52840_xxAA_s140_6.0.0.dir/C_/sdks/nRF5_SDK_15.0.0_a53641a/components/libraries/timer/app_timer.c.obj
 .debug_aranges
                0x000024e8       0x20 examples/light_switch/server/CMakeFiles/light_switch_server_nrf52840_xxAA_s140_6.0.0.dir/C_/sdks/nRF5_SDK_15.0.0_a53641a/components/libraries/util/app_error_handler_gcc.c.obj
 .debug_aranges
                0x00002508       0xd8 external/rtt/librtt_nrf52840_xxAA.a(SEGGER_RTT.c.obj)
 .debug_aranges
                0x000025e0       0x38 external/rtt/librtt_nrf52840_xxAA.a(SEGGER_RTT_printf.c.obj)
 .debug_aranges
                0x00002618      0x1a8 external/micro-ecc/libuECC_nrf52840_xxAA.a(uECC.c.obj)

.debug_ranges   0x00000000     0x66e8
 .debug_ranges  0x00000000      0x240 examples/light_switch/server/CMakeFiles/light_switch_server_nrf52840_xxAA_s140_6.0.0.dir/src/main.c.obj
 .debug_ranges  0x00000240       0xd0 examples/light_switch/server/CMakeFiles/light_switch_server_nrf52840_xxAA_s140_6.0.0.dir/__/__/common/src/app_onoff.c.obj
 .debug_ranges  0x00000310       0x78 examples/light_switch/server/CMakeFiles/light_switch_server_nrf52840_xxAA_s140_6.0.0.dir/__/__/__/mesh/stack/src/mesh_stack.c.obj
 .debug_ranges  0x00000388       0xe8 examples/light_switch/server/CMakeFiles/light_switch_server_nrf52840_xxAA_s140_6.0.0.dir/__/__/common/src/mesh_softdevice_init.c.obj
 .debug_ranges  0x00000470       0x58 examples/light_switch/server/CMakeFiles/light_switch_server_nrf52840_xxAA_s140_6.0.0.dir/__/__/common/src/mesh_provisionee.c.obj
 .debug_ranges  0x000004c8       0x50 examples/light_switch/server/CMakeFiles/light_switch_server_nrf52840_xxAA_s140_6.0.0.dir/__/__/common/src/rtt_input.c.obj
 .debug_ranges  0x00000518       0x98 examples/light_switch/server/CMakeFiles/light_switch_server_nrf52840_xxAA_s140_6.0.0.dir/__/__/common/src/simple_hal.c.obj
 .debug_ranges  0x000005b0       0x10 examples/light_switch/server/CMakeFiles/light_switch_server_nrf52840_xxAA_s140_6.0.0.dir/__/__/common/src/mesh_app_utils.c.obj
 .debug_ranges  0x000005c0       0x18 examples/light_switch/server/CMakeFiles/light_switch_server_nrf52840_xxAA_s140_6.0.0.dir/__/__/nrf_mesh_weak.c.obj
 .debug_ranges  0x000005d8       0xb8 examples/light_switch/server/CMakeFiles/light_switch_server_nrf52840_xxAA_s140_6.0.0.dir/__/__/common/src/app_error_weak.c.obj
 .debug_ranges  0x00000690       0x10 examples/light_switch/server/CMakeFiles/light_switch_server_nrf52840_xxAA_s140_6.0.0.dir/__/__/common/src/assertion_handler_weak.c.obj
 .debug_ranges  0x000006a0       0x20 examples/light_switch/server/CMakeFiles/light_switch_server_nrf52840_xxAA_s140_6.0.0.dir/__/__/__/mesh/core/src/nrf_mesh_configure.c.obj
 .debug_ranges  0x000006c0       0x48 examples/light_switch/server/CMakeFiles/light_switch_server_nrf52840_xxAA_s140_6.0.0.dir/__/__/__/mesh/core/src/msg_cache.c.obj
 .debug_ranges  0x00000708      0x5d0 examples/light_switch/server/CMakeFiles/light_switch_server_nrf52840_xxAA_s140_6.0.0.dir/__/__/__/mesh/core/src/transport.c.obj
 .debug_ranges  0x00000cd8       0x50 examples/light_switch/server/CMakeFiles/light_switch_server_nrf52840_xxAA_s140_6.0.0.dir/__/__/__/mesh/core/src/event.c.obj
 .debug_ranges  0x00000d28      0x128 examples/light_switch/server/CMakeFiles/light_switch_server_nrf52840_xxAA_s140_6.0.0.dir/__/__/__/mesh/core/src/packet_buffer.c.obj
 .debug_ranges  0x00000e50      0x230 examples/light_switch/server/CMakeFiles/light_switch_server_nrf52840_xxAA_s140_6.0.0.dir/__/__/__/mesh/core/src/flash_manager_defrag.c.obj
 .debug_ranges  0x00001080       0x68 examples/light_switch/server/CMakeFiles/light_switch_server_nrf52840_xxAA_s140_6.0.0.dir/__/__/__/mesh/core/src/fifo.c.obj
 .debug_ranges  0x000010e8       0x38 examples/light_switch/server/CMakeFiles/light_switch_server_nrf52840_xxAA_s140_6.0.0.dir/__/__/__/mesh/core/src/nrf_flash.c.obj
 .debug_ranges  0x00001120       0xe0 examples/light_switch/server/CMakeFiles/light_switch_server_nrf52840_xxAA_s140_6.0.0.dir/__/__/__/mesh/core/src/packet_mgr.c.obj
 .debug_ranges  0x00001200      0x200 examples/light_switch/server/CMakeFiles/light_switch_server_nrf52840_xxAA_s140_6.0.0.dir/__/__/__/mesh/core/src/net_state.c.obj
 .debug_ranges  0x00001400      0x1c8 examples/light_switch/server/CMakeFiles/light_switch_server_nrf52840_xxAA_s140_6.0.0.dir/__/__/__/mesh/core/src/mesh_flash.c.obj
 .debug_ranges  0x000015c8       0x20 examples/light_switch/server/CMakeFiles/light_switch_server_nrf52840_xxAA_s140_6.0.0.dir/__/__/__/mesh/core/src/nrf_mesh_utils.c.obj
 .debug_ranges  0x000015e8      0x118 examples/light_switch/server/CMakeFiles/light_switch_server_nrf52840_xxAA_s140_6.0.0.dir/__/__/__/mesh/core/src/nrf_mesh.c.obj
 .debug_ranges  0x00001700       0x28 examples/light_switch/server/CMakeFiles/light_switch_server_nrf52840_xxAA_s140_6.0.0.dir/__/__/__/mesh/core/src/queue.c.obj
 .debug_ranges  0x00001728       0x30 examples/light_switch/server/CMakeFiles/light_switch_server_nrf52840_xxAA_s140_6.0.0.dir/__/__/__/mesh/core/src/hal.c.obj
 .debug_ranges  0x00001758      0x120 examples/light_switch/server/CMakeFiles/light_switch_server_nrf52840_xxAA_s140_6.0.0.dir/__/__/__/mesh/core/src/aes_cmac.c.obj
 .debug_ranges  0x00001878       0xa8 examples/light_switch/server/CMakeFiles/light_switch_server_nrf52840_xxAA_s140_6.0.0.dir/__/__/__/mesh/core/src/timer_scheduler.c.obj
 .debug_ranges  0x00001920       0xd8 examples/light_switch/server/CMakeFiles/light_switch_server_nrf52840_xxAA_s140_6.0.0.dir/__/__/__/mesh/core/src/timer.c.obj
 .debug_ranges  0x000019f8       0x30 examples/light_switch/server/CMakeFiles/light_switch_server_nrf52840_xxAA_s140_6.0.0.dir/__/__/__/mesh/core/src/rand.c.obj
 .debug_ranges  0x00001a28       0x10 examples/light_switch/server/CMakeFiles/light_switch_server_nrf52840_xxAA_s140_6.0.0.dir/__/__/__/mesh/core/src/mesh_opt.c.obj
 .debug_ranges  0x00001a38      0x168 examples/light_switch/server/CMakeFiles/light_switch_server_nrf52840_xxAA_s140_6.0.0.dir/__/__/__/mesh/core/src/timeslot.c.obj
 .debug_ranges  0x00001ba0      0x110 examples/light_switch/server/CMakeFiles/light_switch_server_nrf52840_xxAA_s140_6.0.0.dir/__/__/__/mesh/core/src/bearer_event.c.obj
 .debug_ranges  0x00001cb0       0xb8 examples/light_switch/server/CMakeFiles/light_switch_server_nrf52840_xxAA_s140_6.0.0.dir/__/__/__/mesh/core/src/enc.c.obj
 .debug_ranges  0x00001d68      0x148 examples/light_switch/server/CMakeFiles/light_switch_server_nrf52840_xxAA_s140_6.0.0.dir/__/__/__/mesh/core/src/network.c.obj
 .debug_ranges  0x00001eb0      0x160 examples/light_switch/server/CMakeFiles/light_switch_server_nrf52840_xxAA_s140_6.0.0.dir/__/__/__/mesh/core/src/net_packet.c.obj
 .debug_ranges  0x00002010       0x50 examples/light_switch/server/CMakeFiles/light_switch_server_nrf52840_xxAA_s140_6.0.0.dir/__/__/__/mesh/core/src/msqueue.c.obj
 .debug_ranges  0x00002060       0x30 examples/light_switch/server/CMakeFiles/light_switch_server_nrf52840_xxAA_s140_6.0.0.dir/__/__/__/mesh/core/src/nrf_mesh_keygen.c.obj
 .debug_ranges  0x00002090       0x78 examples/light_switch/server/CMakeFiles/light_switch_server_nrf52840_xxAA_s140_6.0.0.dir/__/__/__/mesh/core/src/list.c.obj
 .debug_ranges  0x00002108       0x38 examples/light_switch/server/CMakeFiles/light_switch_server_nrf52840_xxAA_s140_6.0.0.dir/__/__/__/mesh/core/src/log.c.obj
 .debug_ranges  0x00002140      0x388 examples/light_switch/server/CMakeFiles/light_switch_server_nrf52840_xxAA_s140_6.0.0.dir/__/__/__/mesh/core/src/flash_manager.c.obj
 .debug_ranges  0x000024c8       0xa0 examples/light_switch/server/CMakeFiles/light_switch_server_nrf52840_xxAA_s140_6.0.0.dir/__/__/__/mesh/core/src/ccm_soft.c.obj
 .debug_ranges  0x00002568       0x30 examples/light_switch/server/CMakeFiles/light_switch_server_nrf52840_xxAA_s140_6.0.0.dir/__/__/__/mesh/core/src/replay_cache.c.obj
 .debug_ranges  0x00002598       0x90 examples/light_switch/server/CMakeFiles/light_switch_server_nrf52840_xxAA_s140_6.0.0.dir/__/__/__/mesh/core/src/beacon.c.obj
 .debug_ranges  0x00002628       0x10 examples/light_switch/server/CMakeFiles/light_switch_server_nrf52840_xxAA_s140_6.0.0.dir/__/__/__/mesh/core/src/flash_manager_internal.c.obj
 .debug_ranges  0x00002638       0xf8 examples/light_switch/server/CMakeFiles/light_switch_server_nrf52840_xxAA_s140_6.0.0.dir/__/__/__/mesh/core/src/core_tx.c.obj
 .debug_ranges  0x00002730       0xf8 examples/light_switch/server/CMakeFiles/light_switch_server_nrf52840_xxAA_s140_6.0.0.dir/__/__/__/mesh/core/src/heartbeat.c.obj
 .debug_ranges  0x00002828      0x188 examples/light_switch/server/CMakeFiles/light_switch_server_nrf52840_xxAA_s140_6.0.0.dir/__/__/__/mesh/core/src/net_beacon.c.obj
 .debug_ranges  0x000029b0      0x208 examples/light_switch/server/CMakeFiles/light_switch_server_nrf52840_xxAA_s140_6.0.0.dir/__/__/__/mesh/core/src/mesh_config.c.obj
 .debug_ranges  0x00002bb8       0xe0 examples/light_switch/server/CMakeFiles/light_switch_server_nrf52840_xxAA_s140_6.0.0.dir/__/__/__/mesh/core/src/mesh_config_backend.c.obj
 .debug_ranges  0x00002c98       0x70 examples/light_switch/server/CMakeFiles/light_switch_server_nrf52840_xxAA_s140_6.0.0.dir/__/__/__/mesh/core/src/mesh_config_flashman_glue.c.obj
 .debug_ranges  0x00002d08      0x190 examples/light_switch/server/CMakeFiles/light_switch_server_nrf52840_xxAA_s140_6.0.0.dir/__/__/__/mesh/core/src/core_tx_adv.c.obj
 .debug_ranges  0x00002e98      0x110 examples/light_switch/server/CMakeFiles/light_switch_server_nrf52840_xxAA_s140_6.0.0.dir/__/__/__/mesh/bearer/src/ad_listener.c.obj
 .debug_ranges  0x00002fa8       0xd0 examples/light_switch/server/CMakeFiles/light_switch_server_nrf52840_xxAA_s140_6.0.0.dir/__/__/__/mesh/bearer/src/ad_type_filter.c.obj
 .debug_ranges  0x00003078      0x218 examples/light_switch/server/CMakeFiles/light_switch_server_nrf52840_xxAA_s140_6.0.0.dir/__/__/__/mesh/bearer/src/advertiser.c.obj
 .debug_ranges  0x00003290      0x180 examples/light_switch/server/CMakeFiles/light_switch_server_nrf52840_xxAA_s140_6.0.0.dir/__/__/__/mesh/bearer/src/bearer_handler.c.obj
 .debug_ranges  0x00003410       0xc0 examples/light_switch/server/CMakeFiles/light_switch_server_nrf52840_xxAA_s140_6.0.0.dir/__/__/__/mesh/bearer/src/broadcast.c.obj
 .debug_ranges  0x000034d0       0x48 examples/light_switch/server/CMakeFiles/light_switch_server_nrf52840_xxAA_s140_6.0.0.dir/__/__/__/mesh/bearer/src/filter_engine.c.obj
 .debug_ranges  0x00003518       0x48 examples/light_switch/server/CMakeFiles/light_switch_server_nrf52840_xxAA_s140_6.0.0.dir/__/__/__/mesh/bearer/src/radio_config.c.obj
 .debug_ranges  0x00003560      0x1a8 examples/light_switch/server/CMakeFiles/light_switch_server_nrf52840_xxAA_s140_6.0.0.dir/__/__/__/mesh/bearer/src/scanner.c.obj
 .debug_ranges  0x00003708       0xb8 examples/light_switch/server/CMakeFiles/light_switch_server_nrf52840_xxAA_s140_6.0.0.dir/__/__/__/mesh/bearer/src/mesh_pa_lna.c.obj
 .debug_ranges  0x000037c0       0xa8 examples/light_switch/server/CMakeFiles/light_switch_server_nrf52840_xxAA_s140_6.0.0.dir/__/__/__/models/foundation/config/src/composition_data.c.obj
 .debug_ranges  0x00003868      0x780 examples/light_switch/server/CMakeFiles/light_switch_server_nrf52840_xxAA_s140_6.0.0.dir/__/__/__/models/foundation/config/src/config_server.c.obj
 .debug_ranges  0x00003fe8       0x10 examples/light_switch/server/CMakeFiles/light_switch_server_nrf52840_xxAA_s140_6.0.0.dir/__/__/__/models/foundation/config/src/packed_index_list.c.obj
 .debug_ranges  0x00003ff8      0x260 examples/light_switch/server/CMakeFiles/light_switch_server_nrf52840_xxAA_s140_6.0.0.dir/__/__/__/models/foundation/health/src/health_server.c.obj
 .debug_ranges  0x00004258       0x58 examples/light_switch/server/CMakeFiles/light_switch_server_nrf52840_xxAA_s140_6.0.0.dir/__/__/__/models/model_spec/generic_onoff/src/generic_onoff_server.c.obj
 .debug_ranges  0x000042b0       0x78 examples/light_switch/server/CMakeFiles/light_switch_server_nrf52840_xxAA_s140_6.0.0.dir/__/__/__/models/model_spec/common/src/model_common.c.obj
 .debug_ranges  0x00004328      0x118 examples/light_switch/server/CMakeFiles/light_switch_server_nrf52840_xxAA_s140_6.0.0.dir/__/__/__/mesh/access/src/access_publish.c.obj
 .debug_ranges  0x00004440      0x798 examples/light_switch/server/CMakeFiles/light_switch_server_nrf52840_xxAA_s140_6.0.0.dir/__/__/__/mesh/access/src/access.c.obj
 .debug_ranges  0x00004bd8      0x188 examples/light_switch/server/CMakeFiles/light_switch_server_nrf52840_xxAA_s140_6.0.0.dir/__/__/__/mesh/access/src/access_reliable.c.obj
 .debug_ranges  0x00004d60       0x28 examples/light_switch/server/CMakeFiles/light_switch_server_nrf52840_xxAA_s140_6.0.0.dir/__/__/__/mesh/access/src/access_loopback.c.obj
 .debug_ranges  0x00004d88      0x7e8 examples/light_switch/server/CMakeFiles/light_switch_server_nrf52840_xxAA_s140_6.0.0.dir/__/__/__/mesh/access/src/device_state_manager.c.obj
 .debug_ranges  0x00005570      0x1b0 examples/light_switch/server/CMakeFiles/light_switch_server_nrf52840_xxAA_s140_6.0.0.dir/__/__/__/mesh/prov/src/prov_provisionee.c.obj
 .debug_ranges  0x00005720      0x130 examples/light_switch/server/CMakeFiles/light_switch_server_nrf52840_xxAA_s140_6.0.0.dir/__/__/__/mesh/prov/src/nrf_mesh_prov.c.obj
 .debug_ranges  0x00005850       0x70 examples/light_switch/server/CMakeFiles/light_switch_server_nrf52840_xxAA_s140_6.0.0.dir/__/__/__/mesh/prov/src/provisioning.c.obj
 .debug_ranges  0x000058c0       0x40 examples/light_switch/server/CMakeFiles/light_switch_server_nrf52840_xxAA_s140_6.0.0.dir/__/__/__/mesh/prov/src/prov_beacon.c.obj
 .debug_ranges  0x00005900       0xd8 examples/light_switch/server/CMakeFiles/light_switch_server_nrf52840_xxAA_s140_6.0.0.dir/__/__/__/mesh/prov/src/prov_utils.c.obj
 .debug_ranges  0x000059d8      0x4a0 examples/light_switch/server/CMakeFiles/light_switch_server_nrf52840_xxAA_s140_6.0.0.dir/__/__/__/mesh/prov/src/prov_bearer_adv.c.obj
 .debug_ranges  0x00005e78       0x20 examples/light_switch/server/CMakeFiles/light_switch_server_nrf52840_xxAA_s140_6.0.0.dir/C_/sdks/nRF5_SDK_15.0.0_a53641a/modules/nrfx/mdk/system_nrf52840.c.obj
 .debug_ranges  0x00005e98       0x18 examples/light_switch/server/CMakeFiles/light_switch_server_nrf52840_xxAA_s140_6.0.0.dir/C_/sdks/nRF5_SDK_15.0.0_a53641a/components/libraries/util/app_error.c.obj
 .debug_ranges  0x00005eb0       0x38 examples/light_switch/server/CMakeFiles/light_switch_server_nrf52840_xxAA_s140_6.0.0.dir/C_/sdks/nRF5_SDK_15.0.0_a53641a/components/libraries/util/app_util_platform.c.obj
 .debug_ranges  0x00005ee8      0x390 examples/light_switch/server/CMakeFiles/light_switch_server_nrf52840_xxAA_s140_6.0.0.dir/C_/sdks/nRF5_SDK_15.0.0_a53641a/components/libraries/timer/app_timer.c.obj
 .debug_ranges  0x00006278       0x10 examples/light_switch/server/CMakeFiles/light_switch_server_nrf52840_xxAA_s140_6.0.0.dir/C_/sdks/nRF5_SDK_15.0.0_a53641a/components/libraries/util/app_error_handler_gcc.c.obj
 .debug_ranges  0x00006288      0x130 external/rtt/librtt_nrf52840_xxAA.a(SEGGER_RTT.c.obj)
 .debug_ranges  0x000063b8       0x48 external/rtt/librtt_nrf52840_xxAA.a(SEGGER_RTT_printf.c.obj)
 .debug_ranges  0x00006400      0x2e8 external/micro-ecc/libuECC_nrf52840_xxAA.a(uECC.c.obj)

.debug_line     0x00000000    0x1b36a
 .debug_line    0x00000000      0x91d examples/light_switch/server/CMakeFiles/light_switch_server_nrf52840_xxAA_s140_6.0.0.dir/src/main.c.obj
 .debug_line    0x0000091d      0x626 examples/light_switch/server/CMakeFiles/light_switch_server_nrf52840_xxAA_s140_6.0.0.dir/__/__/common/src/app_onoff.c.obj
 .debug_line    0x00000f43      0x593 examples/light_switch/server/CMakeFiles/light_switch_server_nrf52840_xxAA_s140_6.0.0.dir/__/__/__/mesh/stack/src/mesh_stack.c.obj
 .debug_line    0x000014d6      0x423 examples/light_switch/server/CMakeFiles/light_switch_server_nrf52840_xxAA_s140_6.0.0.dir/__/__/common/src/mesh_softdevice_init.c.obj
 .debug_line    0x000018f9      0x548 examples/light_switch/server/CMakeFiles/light_switch_server_nrf52840_xxAA_s140_6.0.0.dir/__/__/common/src/mesh_provisionee.c.obj
 .debug_line    0x00001e41      0x380 examples/light_switch/server/CMakeFiles/light_switch_server_nrf52840_xxAA_s140_6.0.0.dir/__/__/common/src/rtt_input.c.obj
 .debug_line    0x000021c1      0x440 examples/light_switch/server/CMakeFiles/light_switch_server_nrf52840_xxAA_s140_6.0.0.dir/__/__/common/src/simple_hal.c.obj
 .debug_line    0x00002601      0x202 examples/light_switch/server/CMakeFiles/light_switch_server_nrf52840_xxAA_s140_6.0.0.dir/__/__/common/src/mesh_app_utils.c.obj
 .debug_line    0x00002803      0x224 examples/light_switch/server/CMakeFiles/light_switch_server_nrf52840_xxAA_s140_6.0.0.dir/__/__/nrf_mesh_weak.c.obj
 .debug_line    0x00002a27      0x46b examples/light_switch/server/CMakeFiles/light_switch_server_nrf52840_xxAA_s140_6.0.0.dir/__/__/common/src/app_error_weak.c.obj
 .debug_line    0x00002e92      0x225 examples/light_switch/server/CMakeFiles/light_switch_server_nrf52840_xxAA_s140_6.0.0.dir/__/__/common/src/assertion_handler_weak.c.obj
 .debug_line    0x000030b7      0x217 examples/light_switch/server/CMakeFiles/light_switch_server_nrf52840_xxAA_s140_6.0.0.dir/__/__/__/mesh/core/src/nrf_mesh_configure.c.obj
 .debug_line    0x000032ce      0x297 examples/light_switch/server/CMakeFiles/light_switch_server_nrf52840_xxAA_s140_6.0.0.dir/__/__/__/mesh/core/src/msg_cache.c.obj
 .debug_line    0x00003565      0xd16 examples/light_switch/server/CMakeFiles/light_switch_server_nrf52840_xxAA_s140_6.0.0.dir/__/__/__/mesh/core/src/transport.c.obj
 .debug_line    0x0000427b      0x396 examples/light_switch/server/CMakeFiles/light_switch_server_nrf52840_xxAA_s140_6.0.0.dir/__/__/__/mesh/core/src/event.c.obj
 .debug_line    0x00004611      0x506 examples/light_switch/server/CMakeFiles/light_switch_server_nrf52840_xxAA_s140_6.0.0.dir/__/__/__/mesh/core/src/packet_buffer.c.obj
 .debug_line    0x00004b17      0x70b examples/light_switch/server/CMakeFiles/light_switch_server_nrf52840_xxAA_s140_6.0.0.dir/__/__/__/mesh/core/src/flash_manager_defrag.c.obj
 .debug_line    0x00005222      0x361 examples/light_switch/server/CMakeFiles/light_switch_server_nrf52840_xxAA_s140_6.0.0.dir/__/__/__/mesh/core/src/fifo.c.obj
 .debug_line    0x00005583      0x275 examples/light_switch/server/CMakeFiles/light_switch_server_nrf52840_xxAA_s140_6.0.0.dir/__/__/__/mesh/core/src/nrf_flash.c.obj
 .debug_line    0x000057f8      0x44b examples/light_switch/server/CMakeFiles/light_switch_server_nrf52840_xxAA_s140_6.0.0.dir/__/__/__/mesh/core/src/packet_mgr.c.obj
 .debug_line    0x00005c43      0x738 examples/light_switch/server/CMakeFiles/light_switch_server_nrf52840_xxAA_s140_6.0.0.dir/__/__/__/mesh/core/src/net_state.c.obj
 .debug_line    0x0000637b      0x545 examples/light_switch/server/CMakeFiles/light_switch_server_nrf52840_xxAA_s140_6.0.0.dir/__/__/__/mesh/core/src/mesh_flash.c.obj
 .debug_line    0x000068c0      0x28b examples/light_switch/server/CMakeFiles/light_switch_server_nrf52840_xxAA_s140_6.0.0.dir/__/__/__/mesh/core/src/nrf_mesh_utils.c.obj
 .debug_line    0x00006b4b      0x7fe examples/light_switch/server/CMakeFiles/light_switch_server_nrf52840_xxAA_s140_6.0.0.dir/__/__/__/mesh/core/src/nrf_mesh.c.obj
 .debug_line    0x00007349      0x2c3 examples/light_switch/server/CMakeFiles/light_switch_server_nrf52840_xxAA_s140_6.0.0.dir/__/__/__/mesh/core/src/queue.c.obj
 .debug_line    0x0000760c      0x232 examples/light_switch/server/CMakeFiles/light_switch_server_nrf52840_xxAA_s140_6.0.0.dir/__/__/__/mesh/core/src/hal.c.obj
 .debug_line    0x0000783e      0x347 examples/light_switch/server/CMakeFiles/light_switch_server_nrf52840_xxAA_s140_6.0.0.dir/__/__/__/mesh/core/src/aes_cmac.c.obj
 .debug_line    0x00007b85      0x3b9 examples/light_switch/server/CMakeFiles/light_switch_server_nrf52840_xxAA_s140_6.0.0.dir/__/__/__/mesh/core/src/timer_scheduler.c.obj
 .debug_line    0x00007f3e      0x3a1 examples/light_switch/server/CMakeFiles/light_switch_server_nrf52840_xxAA_s140_6.0.0.dir/__/__/__/mesh/core/src/timer.c.obj
 .debug_line    0x000082df      0x268 examples/light_switch/server/CMakeFiles/light_switch_server_nrf52840_xxAA_s140_6.0.0.dir/__/__/__/mesh/core/src/rand.c.obj
 .debug_line    0x00008547      0x2b8 examples/light_switch/server/CMakeFiles/light_switch_server_nrf52840_xxAA_s140_6.0.0.dir/__/__/__/mesh/core/src/mesh_opt.c.obj
 .debug_line    0x000087ff      0x590 examples/light_switch/server/CMakeFiles/light_switch_server_nrf52840_xxAA_s140_6.0.0.dir/__/__/__/mesh/core/src/timeslot.c.obj
 .debug_line    0x00008d8f      0x567 examples/light_switch/server/CMakeFiles/light_switch_server_nrf52840_xxAA_s140_6.0.0.dir/__/__/__/mesh/core/src/bearer_event.c.obj
 .debug_line    0x000092f6      0x4c7 examples/light_switch/server/CMakeFiles/light_switch_server_nrf52840_xxAA_s140_6.0.0.dir/__/__/__/mesh/core/src/enc.c.obj
 .debug_line    0x000097bd      0x5dc examples/light_switch/server/CMakeFiles/light_switch_server_nrf52840_xxAA_s140_6.0.0.dir/__/__/__/mesh/core/src/network.c.obj
 .debug_line    0x00009d99      0x58e examples/light_switch/server/CMakeFiles/light_switch_server_nrf52840_xxAA_s140_6.0.0.dir/__/__/__/mesh/core/src/net_packet.c.obj
 .debug_line    0x0000a327      0x332 examples/light_switch/server/CMakeFiles/light_switch_server_nrf52840_xxAA_s140_6.0.0.dir/__/__/__/mesh/core/src/msqueue.c.obj
 .debug_line    0x0000a659      0x225 examples/light_switch/server/CMakeFiles/light_switch_server_nrf52840_xxAA_s140_6.0.0.dir/__/__/__/mesh/core/src/nrf_mesh_keygen.c.obj
 .debug_line    0x0000a87e      0x2cf examples/light_switch/server/CMakeFiles/light_switch_server_nrf52840_xxAA_s140_6.0.0.dir/__/__/__/mesh/core/src/list.c.obj
 .debug_line    0x0000ab4d      0x26f examples/light_switch/server/CMakeFiles/light_switch_server_nrf52840_xxAA_s140_6.0.0.dir/__/__/__/mesh/core/src/log.c.obj
 .debug_line    0x0000adbc      0x933 examples/light_switch/server/CMakeFiles/light_switch_server_nrf52840_xxAA_s140_6.0.0.dir/__/__/__/mesh/core/src/flash_manager.c.obj
 .debug_line    0x0000b6ef      0x3e2 examples/light_switch/server/CMakeFiles/light_switch_server_nrf52840_xxAA_s140_6.0.0.dir/__/__/__/mesh/core/src/ccm_soft.c.obj
 .debug_line    0x0000bad1      0x1b9 examples/light_switch/server/CMakeFiles/light_switch_server_nrf52840_xxAA_s140_6.0.0.dir/__/__/__/mesh/core/src/replay_cache.c.obj
 .debug_line    0x0000bc8a      0x4c1 examples/light_switch/server/CMakeFiles/light_switch_server_nrf52840_xxAA_s140_6.0.0.dir/__/__/__/mesh/core/src/beacon.c.obj
 .debug_line    0x0000c14b      0x2ab examples/light_switch/server/CMakeFiles/light_switch_server_nrf52840_xxAA_s140_6.0.0.dir/__/__/__/mesh/core/src/flash_manager_internal.c.obj
 .debug_line    0x0000c3f6      0x3d8 examples/light_switch/server/CMakeFiles/light_switch_server_nrf52840_xxAA_s140_6.0.0.dir/__/__/__/mesh/core/src/core_tx.c.obj
 .debug_line    0x0000c7ce      0x6a8 examples/light_switch/server/CMakeFiles/light_switch_server_nrf52840_xxAA_s140_6.0.0.dir/__/__/__/mesh/core/src/heartbeat.c.obj
 .debug_line    0x0000ce76      0x6e0 examples/light_switch/server/CMakeFiles/light_switch_server_nrf52840_xxAA_s140_6.0.0.dir/__/__/__/mesh/core/src/net_beacon.c.obj
 .debug_line    0x0000d556      0x5fa examples/light_switch/server/CMakeFiles/light_switch_server_nrf52840_xxAA_s140_6.0.0.dir/__/__/__/mesh/core/src/mesh_config.c.obj
 .debug_line    0x0000db50      0x4b7 examples/light_switch/server/CMakeFiles/light_switch_server_nrf52840_xxAA_s140_6.0.0.dir/__/__/__/mesh/core/src/mesh_config_backend.c.obj
 .debug_line    0x0000e007      0x510 examples/light_switch/server/CMakeFiles/light_switch_server_nrf52840_xxAA_s140_6.0.0.dir/__/__/__/mesh/core/src/mesh_config_flashman_glue.c.obj
 .debug_line    0x0000e517      0x661 examples/light_switch/server/CMakeFiles/light_switch_server_nrf52840_xxAA_s140_6.0.0.dir/__/__/__/mesh/core/src/core_tx_adv.c.obj
 .debug_line    0x0000eb78      0x370 examples/light_switch/server/CMakeFiles/light_switch_server_nrf52840_xxAA_s140_6.0.0.dir/__/__/__/mesh/bearer/src/ad_listener.c.obj
 .debug_line    0x0000eee8      0x41c examples/light_switch/server/CMakeFiles/light_switch_server_nrf52840_xxAA_s140_6.0.0.dir/__/__/__/mesh/bearer/src/ad_type_filter.c.obj
 .debug_line    0x0000f304      0x71e examples/light_switch/server/CMakeFiles/light_switch_server_nrf52840_xxAA_s140_6.0.0.dir/__/__/__/mesh/bearer/src/advertiser.c.obj
 .debug_line    0x0000fa22      0x5de examples/light_switch/server/CMakeFiles/light_switch_server_nrf52840_xxAA_s140_6.0.0.dir/__/__/__/mesh/bearer/src/bearer_handler.c.obj
 .debug_line    0x00010000      0x3af examples/light_switch/server/CMakeFiles/light_switch_server_nrf52840_xxAA_s140_6.0.0.dir/__/__/__/mesh/bearer/src/broadcast.c.obj
 .debug_line    0x000103af      0x35f examples/light_switch/server/CMakeFiles/light_switch_server_nrf52840_xxAA_s140_6.0.0.dir/__/__/__/mesh/bearer/src/filter_engine.c.obj
 .debug_line    0x0001070e      0x289 examples/light_switch/server/CMakeFiles/light_switch_server_nrf52840_xxAA_s140_6.0.0.dir/__/__/__/mesh/bearer/src/radio_config.c.obj
 .debug_line    0x00010997      0x70b examples/light_switch/server/CMakeFiles/light_switch_server_nrf52840_xxAA_s140_6.0.0.dir/__/__/__/mesh/bearer/src/scanner.c.obj
 .debug_line    0x000110a2      0x319 examples/light_switch/server/CMakeFiles/light_switch_server_nrf52840_xxAA_s140_6.0.0.dir/__/__/__/mesh/bearer/src/mesh_pa_lna.c.obj
 .debug_line    0x000113bb      0x2f5 examples/light_switch/server/CMakeFiles/light_switch_server_nrf52840_xxAA_s140_6.0.0.dir/__/__/__/models/foundation/config/src/composition_data.c.obj
 .debug_line    0x000116b0     0x13c0 examples/light_switch/server/CMakeFiles/light_switch_server_nrf52840_xxAA_s140_6.0.0.dir/__/__/__/models/foundation/config/src/config_server.c.obj
 .debug_line    0x00012a70       0xf0 examples/light_switch/server/CMakeFiles/light_switch_server_nrf52840_xxAA_s140_6.0.0.dir/__/__/__/models/foundation/config/src/packed_index_list.c.obj
 .debug_line    0x00012b60      0x688 examples/light_switch/server/CMakeFiles/light_switch_server_nrf52840_xxAA_s140_6.0.0.dir/__/__/__/models/foundation/health/src/health_server.c.obj
 .debug_line    0x000131e8      0x48e examples/light_switch/server/CMakeFiles/light_switch_server_nrf52840_xxAA_s140_6.0.0.dir/__/__/__/models/model_spec/generic_onoff/src/generic_onoff_server.c.obj
 .debug_line    0x00013676      0x50e examples/light_switch/server/CMakeFiles/light_switch_server_nrf52840_xxAA_s140_6.0.0.dir/__/__/__/models/model_spec/common/src/model_common.c.obj
 .debug_line    0x00013b84      0x44b examples/light_switch/server/CMakeFiles/light_switch_server_nrf52840_xxAA_s140_6.0.0.dir/__/__/__/mesh/access/src/access_publish.c.obj
 .debug_line    0x00013fcf      0xf7e examples/light_switch/server/CMakeFiles/light_switch_server_nrf52840_xxAA_s140_6.0.0.dir/__/__/__/mesh/access/src/access.c.obj
 .debug_line    0x00014f4d      0x56d examples/light_switch/server/CMakeFiles/light_switch_server_nrf52840_xxAA_s140_6.0.0.dir/__/__/__/mesh/access/src/access_reliable.c.obj
 .debug_line    0x000154ba      0x3a1 examples/light_switch/server/CMakeFiles/light_switch_server_nrf52840_xxAA_s140_6.0.0.dir/__/__/__/mesh/access/src/access_loopback.c.obj
 .debug_line    0x0001585b     0x146d examples/light_switch/server/CMakeFiles/light_switch_server_nrf52840_xxAA_s140_6.0.0.dir/__/__/__/mesh/access/src/device_state_manager.c.obj
 .debug_line    0x00016cc8      0x6a3 examples/light_switch/server/CMakeFiles/light_switch_server_nrf52840_xxAA_s140_6.0.0.dir/__/__/__/mesh/prov/src/prov_provisionee.c.obj
 .debug_line    0x0001736b      0x58e examples/light_switch/server/CMakeFiles/light_switch_server_nrf52840_xxAA_s140_6.0.0.dir/__/__/__/mesh/prov/src/nrf_mesh_prov.c.obj
 .debug_line    0x000178f9      0x3eb examples/light_switch/server/CMakeFiles/light_switch_server_nrf52840_xxAA_s140_6.0.0.dir/__/__/__/mesh/prov/src/provisioning.c.obj
 .debug_line    0x00017ce4      0x49a examples/light_switch/server/CMakeFiles/light_switch_server_nrf52840_xxAA_s140_6.0.0.dir/__/__/__/mesh/prov/src/prov_beacon.c.obj
 .debug_line    0x0001817e      0x53f examples/light_switch/server/CMakeFiles/light_switch_server_nrf52840_xxAA_s140_6.0.0.dir/__/__/__/mesh/prov/src/prov_utils.c.obj
 .debug_line    0x000186bd      0xb46 examples/light_switch/server/CMakeFiles/light_switch_server_nrf52840_xxAA_s140_6.0.0.dir/__/__/__/mesh/prov/src/prov_bearer_adv.c.obj
 .debug_line    0x00019203      0x1fb examples/light_switch/server/CMakeFiles/light_switch_server_nrf52840_xxAA_s140_6.0.0.dir/C_/sdks/nRF5_SDK_15.0.0_a53641a/modules/nrfx/mdk/system_nrf52840.c.obj
 .debug_line    0x000193fe      0x25d examples/light_switch/server/CMakeFiles/light_switch_server_nrf52840_xxAA_s140_6.0.0.dir/C_/sdks/nRF5_SDK_15.0.0_a53641a/components/libraries/util/app_error.c.obj
 .debug_line    0x0001965b      0x337 examples/light_switch/server/CMakeFiles/light_switch_server_nrf52840_xxAA_s140_6.0.0.dir/C_/sdks/nRF5_SDK_15.0.0_a53641a/components/libraries/util/app_util_platform.c.obj
 .debug_line    0x00019992      0x6b9 examples/light_switch/server/CMakeFiles/light_switch_server_nrf52840_xxAA_s140_6.0.0.dir/C_/sdks/nRF5_SDK_15.0.0_a53641a/components/libraries/timer/app_timer.c.obj
 .debug_line    0x0001a04b      0x202 examples/light_switch/server/CMakeFiles/light_switch_server_nrf52840_xxAA_s140_6.0.0.dir/C_/sdks/nRF5_SDK_15.0.0_a53641a/components/libraries/util/app_error_handler_gcc.c.obj
 .debug_line    0x0001a24d      0x4b4 external/rtt/librtt_nrf52840_xxAA.a(SEGGER_RTT.c.obj)
 .debug_line    0x0001a701      0x276 external/rtt/librtt_nrf52840_xxAA.a(SEGGER_RTT_printf.c.obj)
 .debug_line    0x0001a977      0x9f3 external/micro-ecc/libuECC_nrf52840_xxAA.a(uECC.c.obj)

.debug_str      0x00000000    0x15c3a
 .debug_str     0x00000000     0x25f5 examples/light_switch/server/CMakeFiles/light_switch_server_nrf52840_xxAA_s140_6.0.0.dir/src/main.c.obj
                               0x2a5a (size before relaxing)
 .debug_str     0x000025f5      0x1d0 examples/light_switch/server/CMakeFiles/light_switch_server_nrf52840_xxAA_s140_6.0.0.dir/__/__/common/src/app_onoff.c.obj
                               0x1133 (size before relaxing)
 .debug_str     0x000027c5     0x1089 examples/light_switch/server/CMakeFiles/light_switch_server_nrf52840_xxAA_s140_6.0.0.dir/__/__/__/mesh/stack/src/mesh_stack.c.obj
                               0x29f2 (size before relaxing)
 .debug_str     0x0000384e      0x6b8 examples/light_switch/server/CMakeFiles/light_switch_server_nrf52840_xxAA_s140_6.0.0.dir/__/__/common/src/mesh_softdevice_init.c.obj
                               0x1632 (size before relaxing)
 .debug_str     0x00003f06     0x19d5 examples/light_switch/server/CMakeFiles/light_switch_server_nrf52840_xxAA_s140_6.0.0.dir/__/__/common/src/mesh_provisionee.c.obj
                               0x2713 (size before relaxing)
 .debug_str     0x000058db      0x136 examples/light_switch/server/CMakeFiles/light_switch_server_nrf52840_xxAA_s140_6.0.0.dir/__/__/common/src/rtt_input.c.obj
                                0x86a (size before relaxing)
 .debug_str     0x00005a11      0x1ce examples/light_switch/server/CMakeFiles/light_switch_server_nrf52840_xxAA_s140_6.0.0.dir/__/__/common/src/simple_hal.c.obj
                                0xdd0 (size before relaxing)
 .debug_str     0x00005bdf      0x189 examples/light_switch/server/CMakeFiles/light_switch_server_nrf52840_xxAA_s140_6.0.0.dir/__/__/common/src/mesh_app_utils.c.obj
                                0x7b9 (size before relaxing)
 .debug_str     0x00005d68       0x3c examples/light_switch/server/CMakeFiles/light_switch_server_nrf52840_xxAA_s140_6.0.0.dir/__/__/nrf_mesh_weak.c.obj
                                0x649 (size before relaxing)
 .debug_str     0x00005da4       0xa0 examples/light_switch/server/CMakeFiles/light_switch_server_nrf52840_xxAA_s140_6.0.0.dir/__/__/common/src/app_error_weak.c.obj
                                0x85d (size before relaxing)
 .debug_str     0x00005e44       0x30 examples/light_switch/server/CMakeFiles/light_switch_server_nrf52840_xxAA_s140_6.0.0.dir/__/__/common/src/assertion_handler_weak.c.obj
                                0x672 (size before relaxing)
 .debug_str     0x00005e74       0x75 examples/light_switch/server/CMakeFiles/light_switch_server_nrf52840_xxAA_s140_6.0.0.dir/__/__/__/mesh/core/src/nrf_mesh_configure.c.obj
                                0x7ed (size before relaxing)
 .debug_str     0x00005ee9       0xbb examples/light_switch/server/CMakeFiles/light_switch_server_nrf52840_xxAA_s140_6.0.0.dir/__/__/__/mesh/core/src/msg_cache.c.obj
                                0x6e6 (size before relaxing)
 .debug_str     0x00005fa4     0x15c8 examples/light_switch/server/CMakeFiles/light_switch_server_nrf52840_xxAA_s140_6.0.0.dir/__/__/__/mesh/core/src/transport.c.obj
                               0x3293 (size before relaxing)
 .debug_str     0x0000756c      0x106 examples/light_switch/server/CMakeFiles/light_switch_server_nrf52840_xxAA_s140_6.0.0.dir/__/__/__/mesh/core/src/event.c.obj
                               0x193f (size before relaxing)
 .debug_str     0x00007672      0x30d examples/light_switch/server/CMakeFiles/light_switch_server_nrf52840_xxAA_s140_6.0.0.dir/__/__/__/mesh/core/src/packet_buffer.c.obj
                                0xb48 (size before relaxing)
 .debug_str     0x0000797f      0x914 examples/light_switch/server/CMakeFiles/light_switch_server_nrf52840_xxAA_s140_6.0.0.dir/__/__/__/mesh/core/src/flash_manager_defrag.c.obj
                               0x11ba (size before relaxing)
 .debug_str     0x00008293       0xa5 examples/light_switch/server/CMakeFiles/light_switch_server_nrf52840_xxAA_s140_6.0.0.dir/__/__/__/mesh/core/src/fifo.c.obj
                                0x6db (size before relaxing)
 .debug_str     0x00008338       0xd9 examples/light_switch/server/CMakeFiles/light_switch_server_nrf52840_xxAA_s140_6.0.0.dir/__/__/__/mesh/core/src/nrf_flash.c.obj
                                0x721 (size before relaxing)
 .debug_str     0x00008411      0x287 examples/light_switch/server/CMakeFiles/light_switch_server_nrf52840_xxAA_s140_6.0.0.dir/__/__/__/mesh/core/src/packet_mgr.c.obj
                                0x9d2 (size before relaxing)
 .debug_str     0x00008698      0x582 examples/light_switch/server/CMakeFiles/light_switch_server_nrf52840_xxAA_s140_6.0.0.dir/__/__/__/mesh/core/src/net_state.c.obj
                               0x22e9 (size before relaxing)
 .debug_str     0x00008c1a      0x387 examples/light_switch/server/CMakeFiles/light_switch_server_nrf52840_xxAA_s140_6.0.0.dir/__/__/__/mesh/core/src/mesh_flash.c.obj
                                0xd36 (size before relaxing)
 .debug_str     0x00008fa1       0x9b examples/light_switch/server/CMakeFiles/light_switch_server_nrf52840_xxAA_s140_6.0.0.dir/__/__/__/mesh/core/src/nrf_mesh_utils.c.obj
                                0x77e (size before relaxing)
 .debug_str     0x0000903c      0x60c examples/light_switch/server/CMakeFiles/light_switch_server_nrf52840_xxAA_s140_6.0.0.dir/__/__/__/mesh/core/src/nrf_mesh.c.obj
                               0x22fe (size before relaxing)
 .debug_str     0x00009648       0x53 examples/light_switch/server/CMakeFiles/light_switch_server_nrf52840_xxAA_s140_6.0.0.dir/__/__/__/mesh/core/src/queue.c.obj
                                0x6b0 (size before relaxing)
 .debug_str     0x0000969b       0xac examples/light_switch/server/CMakeFiles/light_switch_server_nrf52840_xxAA_s140_6.0.0.dir/__/__/__/mesh/core/src/hal.c.obj
                                0xb08 (size before relaxing)
 .debug_str     0x00009747      0x16e examples/light_switch/server/CMakeFiles/light_switch_server_nrf52840_xxAA_s140_6.0.0.dir/__/__/__/mesh/core/src/aes_cmac.c.obj
                                0xc3c (size before relaxing)
 .debug_str     0x000098b5      0x13b examples/light_switch/server/CMakeFiles/light_switch_server_nrf52840_xxAA_s140_6.0.0.dir/__/__/__/mesh/core/src/timer_scheduler.c.obj
                                0x8ad (size before relaxing)
 .debug_str     0x000099f0      0x216 examples/light_switch/server/CMakeFiles/light_switch_server_nrf52840_xxAA_s140_6.0.0.dir/__/__/__/mesh/core/src/timer.c.obj
                                0x8ae (size before relaxing)
 .debug_str     0x00009c06       0xac examples/light_switch/server/CMakeFiles/light_switch_server_nrf52840_xxAA_s140_6.0.0.dir/__/__/__/mesh/core/src/rand.c.obj
                                0x76e (size before relaxing)
 .debug_str     0x00009cb2      0x165 examples/light_switch/server/CMakeFiles/light_switch_server_nrf52840_xxAA_s140_6.0.0.dir/__/__/__/mesh/core/src/mesh_opt.c.obj
                                0xac2 (size before relaxing)
 .debug_str     0x00009e17      0x8fe examples/light_switch/server/CMakeFiles/light_switch_server_nrf52840_xxAA_s140_6.0.0.dir/__/__/__/mesh/core/src/timeslot.c.obj
                               0x194c (size before relaxing)
 .debug_str     0x0000a715      0x2a7 examples/light_switch/server/CMakeFiles/light_switch_server_nrf52840_xxAA_s140_6.0.0.dir/__/__/__/mesh/core/src/bearer_event.c.obj
                                0xf47 (size before relaxing)
 .debug_str     0x0000a9bc      0x169 examples/light_switch/server/CMakeFiles/light_switch_server_nrf52840_xxAA_s140_6.0.0.dir/__/__/__/mesh/core/src/enc.c.obj
                                0xf13 (size before relaxing)
 .debug_str     0x0000ab25      0x336 examples/light_switch/server/CMakeFiles/light_switch_server_nrf52840_xxAA_s140_6.0.0.dir/__/__/__/mesh/core/src/network.c.obj
                               0x165c (size before relaxing)
 .debug_str     0x0000ae5b      0x30f examples/light_switch/server/CMakeFiles/light_switch_server_nrf52840_xxAA_s140_6.0.0.dir/__/__/__/mesh/core/src/net_packet.c.obj
                                0xeb3 (size before relaxing)
 .debug_str     0x0000b16a       0x53 examples/light_switch/server/CMakeFiles/light_switch_server_nrf52840_xxAA_s140_6.0.0.dir/__/__/__/mesh/core/src/msqueue.c.obj
                                0x6ec (size before relaxing)
 .debug_str     0x0000b1bd       0xc8 examples/light_switch/server/CMakeFiles/light_switch_server_nrf52840_xxAA_s140_6.0.0.dir/__/__/__/mesh/core/src/nrf_mesh_keygen.c.obj
                                0x397 (size before relaxing)
 .debug_str     0x0000b285       0x6a examples/light_switch/server/CMakeFiles/light_switch_server_nrf52840_xxAA_s140_6.0.0.dir/__/__/__/mesh/core/src/list.c.obj
                                0x2be (size before relaxing)
 .debug_str     0x0000b2ef       0xf7 examples/light_switch/server/CMakeFiles/light_switch_server_nrf52840_xxAA_s140_6.0.0.dir/__/__/__/mesh/core/src/log.c.obj
                                0x7d0 (size before relaxing)
 .debug_str     0x0000b3e6      0x566 examples/light_switch/server/CMakeFiles/light_switch_server_nrf52840_xxAA_s140_6.0.0.dir/__/__/__/mesh/core/src/flash_manager.c.obj
                               0x15a5 (size before relaxing)
 .debug_str     0x0000b94c       0xd2 examples/light_switch/server/CMakeFiles/light_switch_server_nrf52840_xxAA_s140_6.0.0.dir/__/__/__/mesh/core/src/ccm_soft.c.obj
                                0xd1c (size before relaxing)
 .debug_str     0x0000ba1e       0x92 examples/light_switch/server/CMakeFiles/light_switch_server_nrf52840_xxAA_s140_6.0.0.dir/__/__/__/mesh/core/src/replay_cache.c.obj
                                0x68d (size before relaxing)
 .debug_str     0x0000bab0       0xd4 examples/light_switch/server/CMakeFiles/light_switch_server_nrf52840_xxAA_s140_6.0.0.dir/__/__/__/mesh/core/src/beacon.c.obj
                               0x116a (size before relaxing)
 .debug_str     0x0000bb84       0x38 examples/light_switch/server/CMakeFiles/light_switch_server_nrf52840_xxAA_s140_6.0.0.dir/__/__/__/mesh/core/src/flash_manager_internal.c.obj
                                0x7d1 (size before relaxing)
 .debug_str     0x0000bbbc      0x2be examples/light_switch/server/CMakeFiles/light_switch_server_nrf52840_xxAA_s140_6.0.0.dir/__/__/__/mesh/core/src/core_tx.c.obj
                                0xc1c (size before relaxing)
 .debug_str     0x0000be7a      0x645 examples/light_switch/server/CMakeFiles/light_switch_server_nrf52840_xxAA_s140_6.0.0.dir/__/__/__/mesh/core/src/heartbeat.c.obj
                               0x255c (size before relaxing)
 .debug_str     0x0000c4bf      0x2b2 examples/light_switch/server/CMakeFiles/light_switch_server_nrf52840_xxAA_s140_6.0.0.dir/__/__/__/mesh/core/src/net_beacon.c.obj
                               0x25cd (size before relaxing)
 .debug_str     0x0000c771      0x467 examples/light_switch/server/CMakeFiles/light_switch_server_nrf52840_xxAA_s140_6.0.0.dir/__/__/__/mesh/core/src/mesh_config.c.obj
                               0x2293 (size before relaxing)
 .debug_str     0x0000cbd8      0x23f examples/light_switch/server/CMakeFiles/light_switch_server_nrf52840_xxAA_s140_6.0.0.dir/__/__/__/mesh/core/src/mesh_config_backend.c.obj
                               0x1047 (size before relaxing)
 .debug_str     0x0000ce17       0xa0 examples/light_switch/server/CMakeFiles/light_switch_server_nrf52840_xxAA_s140_6.0.0.dir/__/__/__/mesh/core/src/mesh_config_flashman_glue.c.obj
                               0x203a (size before relaxing)
 .debug_str     0x0000ceb7      0x393 examples/light_switch/server/CMakeFiles/light_switch_server_nrf52840_xxAA_s140_6.0.0.dir/__/__/__/mesh/core/src/core_tx_adv.c.obj
                               0x1920 (size before relaxing)
 .debug_str     0x0000d24a      0x185 examples/light_switch/server/CMakeFiles/light_switch_server_nrf52840_xxAA_s140_6.0.0.dir/__/__/__/mesh/bearer/src/ad_listener.c.obj
                                0xc0e (size before relaxing)
 .debug_str     0x0000d3cf      0x15c examples/light_switch/server/CMakeFiles/light_switch_server_nrf52840_xxAA_s140_6.0.0.dir/__/__/__/mesh/bearer/src/ad_type_filter.c.obj
                                0x9cc (size before relaxing)
 .debug_str     0x0000d52b      0x2ef examples/light_switch/server/CMakeFiles/light_switch_server_nrf52840_xxAA_s140_6.0.0.dir/__/__/__/mesh/bearer/src/advertiser.c.obj
                               0x15e0 (size before relaxing)
 .debug_str     0x0000d81a      0x4e3 examples/light_switch/server/CMakeFiles/light_switch_server_nrf52840_xxAA_s140_6.0.0.dir/__/__/__/mesh/bearer/src/bearer_handler.c.obj
                               0x132a (size before relaxing)
 .debug_str     0x0000dcfd      0x219 examples/light_switch/server/CMakeFiles/light_switch_server_nrf52840_xxAA_s140_6.0.0.dir/__/__/__/mesh/bearer/src/broadcast.c.obj
                               0x1189 (size before relaxing)
 .debug_str     0x0000df16       0x72 examples/light_switch/server/CMakeFiles/light_switch_server_nrf52840_xxAA_s140_6.0.0.dir/__/__/__/mesh/bearer/src/filter_engine.c.obj
                                0x839 (size before relaxing)
 .debug_str     0x0000df88       0x79 examples/light_switch/server/CMakeFiles/light_switch_server_nrf52840_xxAA_s140_6.0.0.dir/__/__/__/mesh/bearer/src/radio_config.c.obj
                                0x928 (size before relaxing)
 .debug_str     0x0000e001      0x49c examples/light_switch/server/CMakeFiles/light_switch_server_nrf52840_xxAA_s140_6.0.0.dir/__/__/__/mesh/bearer/src/scanner.c.obj
                               0x1b43 (size before relaxing)
 .debug_str     0x0000e49d      0x15f examples/light_switch/server/CMakeFiles/light_switch_server_nrf52840_xxAA_s140_6.0.0.dir/__/__/__/mesh/bearer/src/mesh_pa_lna.c.obj
                                0x922 (size before relaxing)
 .debug_str     0x0000e5fc      0x248 examples/light_switch/server/CMakeFiles/light_switch_server_nrf52840_xxAA_s140_6.0.0.dir/__/__/__/models/foundation/config/src/composition_data.c.obj
                                0x8e8 (size before relaxing)
 .debug_str     0x0000e844     0x2795 examples/light_switch/server/CMakeFiles/light_switch_server_nrf52840_xxAA_s140_6.0.0.dir/__/__/__/models/foundation/config/src/config_server.c.obj
                               0x51aa (size before relaxing)
 .debug_str     0x00010fd9       0x74 examples/light_switch/server/CMakeFiles/light_switch_server_nrf52840_xxAA_s140_6.0.0.dir/__/__/__/models/foundation/config/src/packed_index_list.c.obj
                                0x258 (size before relaxing)
 .debug_str     0x0001104d      0x633 examples/light_switch/server/CMakeFiles/light_switch_server_nrf52840_xxAA_s140_6.0.0.dir/__/__/__/models/foundation/health/src/health_server.c.obj
                               0x1659 (size before relaxing)
 .debug_str     0x00011680      0x236 examples/light_switch/server/CMakeFiles/light_switch_server_nrf52840_xxAA_s140_6.0.0.dir/__/__/__/models/model_spec/generic_onoff/src/generic_onoff_server.c.obj
                               0x1173 (size before relaxing)
 .debug_str     0x000118b6      0x1e2 examples/light_switch/server/CMakeFiles/light_switch_server_nrf52840_xxAA_s140_6.0.0.dir/__/__/__/models/model_spec/common/src/model_common.c.obj
                                0xe47 (size before relaxing)
 .debug_str     0x00011a98      0x25c examples/light_switch/server/CMakeFiles/light_switch_server_nrf52840_xxAA_s140_6.0.0.dir/__/__/__/mesh/access/src/access_publish.c.obj
                                0xb8e (size before relaxing)
 .debug_str     0x00011cf4      0x8ec examples/light_switch/server/CMakeFiles/light_switch_server_nrf52840_xxAA_s140_6.0.0.dir/__/__/__/mesh/access/src/access.c.obj
                               0x322a (size before relaxing)
 .debug_str     0x000125e0      0x20e examples/light_switch/server/CMakeFiles/light_switch_server_nrf52840_xxAA_s140_6.0.0.dir/__/__/__/mesh/access/src/access_reliable.c.obj
                                0xf9c (size before relaxing)
 .debug_str     0x000127ee       0x87 examples/light_switch/server/CMakeFiles/light_switch_server_nrf52840_xxAA_s140_6.0.0.dir/__/__/__/mesh/access/src/access_loopback.c.obj
                                0xbb5 (size before relaxing)
 .debug_str     0x00012875      0xcf4 examples/light_switch/server/CMakeFiles/light_switch_server_nrf52840_xxAA_s140_6.0.0.dir/__/__/__/mesh/access/src/device_state_manager.c.obj
                               0x3442 (size before relaxing)
 .debug_str     0x00013569      0x613 examples/light_switch/server/CMakeFiles/light_switch_server_nrf52840_xxAA_s140_6.0.0.dir/__/__/__/mesh/prov/src/prov_provisionee.c.obj
                               0x2312 (size before relaxing)
 .debug_str     0x00013b7c      0x22d examples/light_switch/server/CMakeFiles/light_switch_server_nrf52840_xxAA_s140_6.0.0.dir/__/__/__/mesh/prov/src/nrf_mesh_prov.c.obj
                               0x1ec5 (size before relaxing)
 .debug_str     0x00013da9       0xc8 examples/light_switch/server/CMakeFiles/light_switch_server_nrf52840_xxAA_s140_6.0.0.dir/__/__/__/mesh/prov/src/provisioning.c.obj
                                0xf56 (size before relaxing)
 .debug_str     0x00013e71       0xb1 examples/light_switch/server/CMakeFiles/light_switch_server_nrf52840_xxAA_s140_6.0.0.dir/__/__/__/mesh/prov/src/prov_beacon.c.obj
                               0x1a8b (size before relaxing)
 .debug_str     0x00013f22      0x27f examples/light_switch/server/CMakeFiles/light_switch_server_nrf52840_xxAA_s140_6.0.0.dir/__/__/__/mesh/prov/src/prov_utils.c.obj
                               0x22a7 (size before relaxing)
 .debug_str     0x000141a1      0x40b examples/light_switch/server/CMakeFiles/light_switch_server_nrf52840_xxAA_s140_6.0.0.dir/__/__/__/mesh/prov/src/prov_bearer_adv.c.obj
                               0x1c27 (size before relaxing)
 .debug_str     0x000145ac      0x3be examples/light_switch/server/CMakeFiles/light_switch_server_nrf52840_xxAA_s140_6.0.0.dir/C_/sdks/nRF5_SDK_15.0.0_a53641a/modules/nrfx/mdk/system_nrf52840.c.obj
                                0x914 (size before relaxing)
 .debug_str     0x0001496a       0x9f examples/light_switch/server/CMakeFiles/light_switch_server_nrf52840_xxAA_s140_6.0.0.dir/C_/sdks/nRF5_SDK_15.0.0_a53641a/components/libraries/util/app_error.c.obj
                                0x727 (size before relaxing)
 .debug_str     0x00014a09      0x1e5 examples/light_switch/server/CMakeFiles/light_switch_server_nrf52840_xxAA_s140_6.0.0.dir/C_/sdks/nRF5_SDK_15.0.0_a53641a/components/libraries/util/app_util_platform.c.obj
                                0xc90 (size before relaxing)
 .debug_str     0x00014bee      0x5cb examples/light_switch/server/CMakeFiles/light_switch_server_nrf52840_xxAA_s140_6.0.0.dir/C_/sdks/nRF5_SDK_15.0.0_a53641a/components/libraries/timer/app_timer.c.obj
                               0x1298 (size before relaxing)
 .debug_str     0x000151b9       0x52 examples/light_switch/server/CMakeFiles/light_switch_server_nrf52840_xxAA_s140_6.0.0.dir/C_/sdks/nRF5_SDK_15.0.0_a53641a/components/libraries/util/app_error_handler_gcc.c.obj
                                0x68c (size before relaxing)
 .debug_str     0x0001520b      0x2bf external/rtt/librtt_nrf52840_xxAA.a(SEGGER_RTT.c.obj)
                                0x922 (size before relaxing)
 .debug_str     0x000154ca       0xdf external/rtt/librtt_nrf52840_xxAA.a(SEGGER_RTT_printf.c.obj)
                                0x792 (size before relaxing)
 .debug_str     0x000155a9      0x691 external/micro-ecc/libuECC_nrf52840_xxAA.a(uECC.c.obj)
                                0x880 (size before relaxing)

.debug_frame    0x00000000     0x7980
 .debug_frame   0x00000000      0x13c examples/light_switch/server/CMakeFiles/light_switch_server_nrf52840_xxAA_s140_6.0.0.dir/src/main.c.obj
 .debug_frame   0x0000013c      0x104 examples/light_switch/server/CMakeFiles/light_switch_server_nrf52840_xxAA_s140_6.0.0.dir/__/__/common/src/app_onoff.c.obj
 .debug_frame   0x00000240       0xec examples/light_switch/server/CMakeFiles/light_switch_server_nrf52840_xxAA_s140_6.0.0.dir/__/__/__/mesh/stack/src/mesh_stack.c.obj
 .debug_frame   0x0000032c       0x90 examples/light_switch/server/CMakeFiles/light_switch_server_nrf52840_xxAA_s140_6.0.0.dir/__/__/common/src/mesh_softdevice_init.c.obj
 .debug_frame   0x000003bc       0x80 examples/light_switch/server/CMakeFiles/light_switch_server_nrf52840_xxAA_s140_6.0.0.dir/__/__/common/src/mesh_provisionee.c.obj
 .debug_frame   0x0000043c       0x60 examples/light_switch/server/CMakeFiles/light_switch_server_nrf52840_xxAA_s140_6.0.0.dir/__/__/common/src/rtt_input.c.obj
 .debug_frame   0x0000049c       0xc8 examples/light_switch/server/CMakeFiles/light_switch_server_nrf52840_xxAA_s140_6.0.0.dir/__/__/common/src/simple_hal.c.obj
 .debug_frame   0x00000564       0x2c examples/light_switch/server/CMakeFiles/light_switch_server_nrf52840_xxAA_s140_6.0.0.dir/__/__/common/src/mesh_app_utils.c.obj
 .debug_frame   0x00000590       0x30 examples/light_switch/server/CMakeFiles/light_switch_server_nrf52840_xxAA_s140_6.0.0.dir/__/__/nrf_mesh_weak.c.obj
 .debug_frame   0x000005c0       0x34 examples/light_switch/server/CMakeFiles/light_switch_server_nrf52840_xxAA_s140_6.0.0.dir/__/__/common/src/app_error_weak.c.obj
 .debug_frame   0x000005f4       0x28 examples/light_switch/server/CMakeFiles/light_switch_server_nrf52840_xxAA_s140_6.0.0.dir/__/__/common/src/assertion_handler_weak.c.obj
 .debug_frame   0x0000061c       0x4c examples/light_switch/server/CMakeFiles/light_switch_server_nrf52840_xxAA_s140_6.0.0.dir/__/__/__/mesh/core/src/nrf_mesh_configure.c.obj
 .debug_frame   0x00000668       0x6c examples/light_switch/server/CMakeFiles/light_switch_server_nrf52840_xxAA_s140_6.0.0.dir/__/__/__/mesh/core/src/msg_cache.c.obj
 .debug_frame   0x000006d4      0x3fc examples/light_switch/server/CMakeFiles/light_switch_server_nrf52840_xxAA_s140_6.0.0.dir/__/__/__/mesh/core/src/transport.c.obj
 .debug_frame   0x00000ad0       0x68 examples/light_switch/server/CMakeFiles/light_switch_server_nrf52840_xxAA_s140_6.0.0.dir/__/__/__/mesh/core/src/event.c.obj
 .debug_frame   0x00000b38      0x12c examples/light_switch/server/CMakeFiles/light_switch_server_nrf52840_xxAA_s140_6.0.0.dir/__/__/__/mesh/core/src/packet_buffer.c.obj
 .debug_frame   0x00000c64      0x24c examples/light_switch/server/CMakeFiles/light_switch_server_nrf52840_xxAA_s140_6.0.0.dir/__/__/__/mesh/core/src/flash_manager_defrag.c.obj
 .debug_frame   0x00000eb0       0xd0 examples/light_switch/server/CMakeFiles/light_switch_server_nrf52840_xxAA_s140_6.0.0.dir/__/__/__/mesh/core/src/fifo.c.obj
 .debug_frame   0x00000f80       0x54 examples/light_switch/server/CMakeFiles/light_switch_server_nrf52840_xxAA_s140_6.0.0.dir/__/__/__/mesh/core/src/nrf_flash.c.obj
 .debug_frame   0x00000fd4       0xa0 examples/light_switch/server/CMakeFiles/light_switch_server_nrf52840_xxAA_s140_6.0.0.dir/__/__/__/mesh/core/src/packet_mgr.c.obj
 .debug_frame   0x00001074      0x2b0 examples/light_switch/server/CMakeFiles/light_switch_server_nrf52840_xxAA_s140_6.0.0.dir/__/__/__/mesh/core/src/net_state.c.obj
 .debug_frame   0x00001324      0x150 examples/light_switch/server/CMakeFiles/light_switch_server_nrf52840_xxAA_s140_6.0.0.dir/__/__/__/mesh/core/src/mesh_flash.c.obj
 .debug_frame   0x00001474       0x50 examples/light_switch/server/CMakeFiles/light_switch_server_nrf52840_xxAA_s140_6.0.0.dir/__/__/__/mesh/core/src/nrf_mesh_utils.c.obj
 .debug_frame   0x000014c4      0x188 examples/light_switch/server/CMakeFiles/light_switch_server_nrf52840_xxAA_s140_6.0.0.dir/__/__/__/mesh/core/src/nrf_mesh.c.obj
 .debug_frame   0x0000164c       0x74 examples/light_switch/server/CMakeFiles/light_switch_server_nrf52840_xxAA_s140_6.0.0.dir/__/__/__/mesh/core/src/queue.c.obj
 .debug_frame   0x000016c0       0x68 examples/light_switch/server/CMakeFiles/light_switch_server_nrf52840_xxAA_s140_6.0.0.dir/__/__/__/mesh/core/src/hal.c.obj
 .debug_frame   0x00001728       0x6c examples/light_switch/server/CMakeFiles/light_switch_server_nrf52840_xxAA_s140_6.0.0.dir/__/__/__/mesh/core/src/aes_cmac.c.obj
 .debug_frame   0x00001794      0x110 examples/light_switch/server/CMakeFiles/light_switch_server_nrf52840_xxAA_s140_6.0.0.dir/__/__/__/mesh/core/src/timer_scheduler.c.obj
 .debug_frame   0x000018a4      0x10c examples/light_switch/server/CMakeFiles/light_switch_server_nrf52840_xxAA_s140_6.0.0.dir/__/__/__/mesh/core/src/timer.c.obj
 .debug_frame   0x000019b0       0x84 examples/light_switch/server/CMakeFiles/light_switch_server_nrf52840_xxAA_s140_6.0.0.dir/__/__/__/mesh/core/src/rand.c.obj
 .debug_frame   0x00001a34       0x20 examples/light_switch/server/CMakeFiles/light_switch_server_nrf52840_xxAA_s140_6.0.0.dir/__/__/__/mesh/core/src/mesh_opt.c.obj
 .debug_frame   0x00001a54      0x1a0 examples/light_switch/server/CMakeFiles/light_switch_server_nrf52840_xxAA_s140_6.0.0.dir/__/__/__/mesh/core/src/timeslot.c.obj
 .debug_frame   0x00001bf4      0x1c0 examples/light_switch/server/CMakeFiles/light_switch_server_nrf52840_xxAA_s140_6.0.0.dir/__/__/__/mesh/core/src/bearer_event.c.obj
 .debug_frame   0x00001db4      0x15c examples/light_switch/server/CMakeFiles/light_switch_server_nrf52840_xxAA_s140_6.0.0.dir/__/__/__/mesh/core/src/enc.c.obj
 .debug_frame   0x00001f10      0x128 examples/light_switch/server/CMakeFiles/light_switch_server_nrf52840_xxAA_s140_6.0.0.dir/__/__/__/mesh/core/src/network.c.obj
 .debug_frame   0x00002038      0x114 examples/light_switch/server/CMakeFiles/light_switch_server_nrf52840_xxAA_s140_6.0.0.dir/__/__/__/mesh/core/src/net_packet.c.obj
 .debug_frame   0x0000214c       0xb4 examples/light_switch/server/CMakeFiles/light_switch_server_nrf52840_xxAA_s140_6.0.0.dir/__/__/__/mesh/core/src/msqueue.c.obj
 .debug_frame   0x00002200       0xb4 examples/light_switch/server/CMakeFiles/light_switch_server_nrf52840_xxAA_s140_6.0.0.dir/__/__/__/mesh/core/src/nrf_mesh_keygen.c.obj
 .debug_frame   0x000022b4       0xc8 examples/light_switch/server/CMakeFiles/light_switch_server_nrf52840_xxAA_s140_6.0.0.dir/__/__/__/mesh/core/src/list.c.obj
 .debug_frame   0x0000237c       0xb0 examples/light_switch/server/CMakeFiles/light_switch_server_nrf52840_xxAA_s140_6.0.0.dir/__/__/__/mesh/core/src/log.c.obj
 .debug_frame   0x0000242c      0x320 examples/light_switch/server/CMakeFiles/light_switch_server_nrf52840_xxAA_s140_6.0.0.dir/__/__/__/mesh/core/src/flash_manager.c.obj
 .debug_frame   0x0000274c       0xf4 examples/light_switch/server/CMakeFiles/light_switch_server_nrf52840_xxAA_s140_6.0.0.dir/__/__/__/mesh/core/src/ccm_soft.c.obj
 .debug_frame   0x00002840       0x80 examples/light_switch/server/CMakeFiles/light_switch_server_nrf52840_xxAA_s140_6.0.0.dir/__/__/__/mesh/core/src/replay_cache.c.obj
 .debug_frame   0x000028c0       0x60 examples/light_switch/server/CMakeFiles/light_switch_server_nrf52840_xxAA_s140_6.0.0.dir/__/__/__/mesh/core/src/beacon.c.obj
 .debug_frame   0x00002920       0x34 examples/light_switch/server/CMakeFiles/light_switch_server_nrf52840_xxAA_s140_6.0.0.dir/__/__/__/mesh/core/src/flash_manager_internal.c.obj
 .debug_frame   0x00002954       0xf0 examples/light_switch/server/CMakeFiles/light_switch_server_nrf52840_xxAA_s140_6.0.0.dir/__/__/__/mesh/core/src/core_tx.c.obj
 .debug_frame   0x00002a44      0x1b8 examples/light_switch/server/CMakeFiles/light_switch_server_nrf52840_xxAA_s140_6.0.0.dir/__/__/__/mesh/core/src/heartbeat.c.obj
 .debug_frame   0x00002bfc      0x190 examples/light_switch/server/CMakeFiles/light_switch_server_nrf52840_xxAA_s140_6.0.0.dir/__/__/__/mesh/core/src/net_beacon.c.obj
 .debug_frame   0x00002d8c      0x1d0 examples/light_switch/server/CMakeFiles/light_switch_server_nrf52840_xxAA_s140_6.0.0.dir/__/__/__/mesh/core/src/mesh_config.c.obj
 .debug_frame   0x00002f5c      0x110 examples/light_switch/server/CMakeFiles/light_switch_server_nrf52840_xxAA_s140_6.0.0.dir/__/__/__/mesh/core/src/mesh_config_backend.c.obj
 .debug_frame   0x0000306c      0x164 examples/light_switch/server/CMakeFiles/light_switch_server_nrf52840_xxAA_s140_6.0.0.dir/__/__/__/mesh/core/src/mesh_config_flashman_glue.c.obj
 .debug_frame   0x000031d0      0x200 examples/light_switch/server/CMakeFiles/light_switch_server_nrf52840_xxAA_s140_6.0.0.dir/__/__/__/mesh/core/src/core_tx_adv.c.obj
 .debug_frame   0x000033d0       0x6c examples/light_switch/server/CMakeFiles/light_switch_server_nrf52840_xxAA_s140_6.0.0.dir/__/__/__/mesh/bearer/src/ad_listener.c.obj
 .debug_frame   0x0000343c       0xa8 examples/light_switch/server/CMakeFiles/light_switch_server_nrf52840_xxAA_s140_6.0.0.dir/__/__/__/mesh/bearer/src/ad_type_filter.c.obj
 .debug_frame   0x000034e4      0x284 examples/light_switch/server/CMakeFiles/light_switch_server_nrf52840_xxAA_s140_6.0.0.dir/__/__/__/mesh/bearer/src/advertiser.c.obj
 .debug_frame   0x00003768      0x1c8 examples/light_switch/server/CMakeFiles/light_switch_server_nrf52840_xxAA_s140_6.0.0.dir/__/__/__/mesh/bearer/src/bearer_handler.c.obj
 .debug_frame   0x00003930       0x7c examples/light_switch/server/CMakeFiles/light_switch_server_nrf52840_xxAA_s140_6.0.0.dir/__/__/__/mesh/bearer/src/broadcast.c.obj
 .debug_frame   0x000039ac       0x74 examples/light_switch/server/CMakeFiles/light_switch_server_nrf52840_xxAA_s140_6.0.0.dir/__/__/__/mesh/bearer/src/filter_engine.c.obj
 .debug_frame   0x00003a20       0x94 examples/light_switch/server/CMakeFiles/light_switch_server_nrf52840_xxAA_s140_6.0.0.dir/__/__/__/mesh/bearer/src/radio_config.c.obj
 .debug_frame   0x00003ab4      0x2cc examples/light_switch/server/CMakeFiles/light_switch_server_nrf52840_xxAA_s140_6.0.0.dir/__/__/__/mesh/bearer/src/scanner.c.obj
 .debug_frame   0x00003d80      0x10c examples/light_switch/server/CMakeFiles/light_switch_server_nrf52840_xxAA_s140_6.0.0.dir/__/__/__/mesh/bearer/src/mesh_pa_lna.c.obj
 .debug_frame   0x00003e8c       0x40 examples/light_switch/server/CMakeFiles/light_switch_server_nrf52840_xxAA_s140_6.0.0.dir/__/__/__/models/foundation/config/src/composition_data.c.obj
 .debug_frame   0x00003ecc      0x8d8 examples/light_switch/server/CMakeFiles/light_switch_server_nrf52840_xxAA_s140_6.0.0.dir/__/__/__/models/foundation/config/src/config_server.c.obj
 .debug_frame   0x000047a4       0x2c examples/light_switch/server/CMakeFiles/light_switch_server_nrf52840_xxAA_s140_6.0.0.dir/__/__/__/models/foundation/config/src/packed_index_list.c.obj
 .debug_frame   0x000047d0      0x2a0 examples/light_switch/server/CMakeFiles/light_switch_server_nrf52840_xxAA_s140_6.0.0.dir/__/__/__/models/foundation/health/src/health_server.c.obj
 .debug_frame   0x00004a70       0xc8 examples/light_switch/server/CMakeFiles/light_switch_server_nrf52840_xxAA_s140_6.0.0.dir/__/__/__/models/model_spec/generic_onoff/src/generic_onoff_server.c.obj
 .debug_frame   0x00004b38      0x138 examples/light_switch/server/CMakeFiles/light_switch_server_nrf52840_xxAA_s140_6.0.0.dir/__/__/__/models/model_spec/common/src/model_common.c.obj
 .debug_frame   0x00004c70      0x114 examples/light_switch/server/CMakeFiles/light_switch_server_nrf52840_xxAA_s140_6.0.0.dir/__/__/__/mesh/access/src/access_publish.c.obj
 .debug_frame   0x00004d84      0x5e4 examples/light_switch/server/CMakeFiles/light_switch_server_nrf52840_xxAA_s140_6.0.0.dir/__/__/__/mesh/access/src/access.c.obj
 .debug_frame   0x00005368      0x138 examples/light_switch/server/CMakeFiles/light_switch_server_nrf52840_xxAA_s140_6.0.0.dir/__/__/__/mesh/access/src/access_reliable.c.obj
 .debug_frame   0x000054a0       0x70 examples/light_switch/server/CMakeFiles/light_switch_server_nrf52840_xxAA_s140_6.0.0.dir/__/__/__/mesh/access/src/access_loopback.c.obj
 .debug_frame   0x00005510      0xae0 examples/light_switch/server/CMakeFiles/light_switch_server_nrf52840_xxAA_s140_6.0.0.dir/__/__/__/mesh/access/src/device_state_manager.c.obj
 .debug_frame   0x00005ff0      0x198 examples/light_switch/server/CMakeFiles/light_switch_server_nrf52840_xxAA_s140_6.0.0.dir/__/__/__/mesh/prov/src/prov_provisionee.c.obj
 .debug_frame   0x00006188      0x160 examples/light_switch/server/CMakeFiles/light_switch_server_nrf52840_xxAA_s140_6.0.0.dir/__/__/__/mesh/prov/src/nrf_mesh_prov.c.obj
 .debug_frame   0x000062e8      0x170 examples/light_switch/server/CMakeFiles/light_switch_server_nrf52840_xxAA_s140_6.0.0.dir/__/__/__/mesh/prov/src/provisioning.c.obj
 .debug_frame   0x00006458       0x84 examples/light_switch/server/CMakeFiles/light_switch_server_nrf52840_xxAA_s140_6.0.0.dir/__/__/__/mesh/prov/src/prov_beacon.c.obj
 .debug_frame   0x000064dc      0x1b0 examples/light_switch/server/CMakeFiles/light_switch_server_nrf52840_xxAA_s140_6.0.0.dir/__/__/__/mesh/prov/src/prov_utils.c.obj
 .debug_frame   0x0000668c      0x32c examples/light_switch/server/CMakeFiles/light_switch_server_nrf52840_xxAA_s140_6.0.0.dir/__/__/__/mesh/prov/src/prov_bearer_adv.c.obj
 .debug_frame   0x000069b8       0x48 examples/light_switch/server/CMakeFiles/light_switch_server_nrf52840_xxAA_s140_6.0.0.dir/C_/sdks/nRF5_SDK_15.0.0_a53641a/modules/nrfx/mdk/system_nrf52840.c.obj
 .debug_frame   0x00006a00       0x44 examples/light_switch/server/CMakeFiles/light_switch_server_nrf52840_xxAA_s140_6.0.0.dir/C_/sdks/nRF5_SDK_15.0.0_a53641a/components/libraries/util/app_error.c.obj
 .debug_frame   0x00006a44       0x84 examples/light_switch/server/CMakeFiles/light_switch_server_nrf52840_xxAA_s140_6.0.0.dir/C_/sdks/nRF5_SDK_15.0.0_a53641a/components/libraries/util/app_util_platform.c.obj
 .debug_frame   0x00006ac8      0x16c examples/light_switch/server/CMakeFiles/light_switch_server_nrf52840_xxAA_s140_6.0.0.dir/C_/sdks/nRF5_SDK_15.0.0_a53641a/components/libraries/timer/app_timer.c.obj
 .debug_frame   0x00006c34       0x20 examples/light_switch/server/CMakeFiles/light_switch_server_nrf52840_xxAA_s140_6.0.0.dir/C_/sdks/nRF5_SDK_15.0.0_a53641a/components/libraries/util/app_error_handler_gcc.c.obj
 .debug_frame   0x00006c54      0x2d8 external/rtt/librtt_nrf52840_xxAA.a(SEGGER_RTT.c.obj)
 .debug_frame   0x00006f2c       0xac external/rtt/librtt_nrf52840_xxAA.a(SEGGER_RTT_printf.c.obj)
 .debug_frame   0x00006fd8      0x684 external/micro-ecc/libuECC_nrf52840_xxAA.a(uECC.c.obj)
 .debug_frame   0x0000765c       0x2c c:/arm_gcc/bin/../lib/gcc/arm-none-eabi/6.3.1/thumb/v7e-m/fpv4-sp/hard\libgcc.a(_aeabi_uldivmod.o)
 .debug_frame   0x00007688       0x34 c:/arm_gcc/bin/../lib/gcc/arm-none-eabi/6.3.1/thumb/v7e-m/fpv4-sp/hard\libgcc.a(_udivmoddi4.o)
 .debug_frame   0x000076bc       0x28 c:/arm_gcc/bin/../lib/gcc/arm-none-eabi/6.3.1/../../../../arm-none-eabi/lib/thumb/v7e-m/fpv4-sp/hard\libg_nano.a(lib_a-exit.o)
 .debug_frame   0x000076e4       0x2c c:/arm_gcc/bin/../lib/gcc/arm-none-eabi/6.3.1/../../../../arm-none-eabi/lib/thumb/v7e-m/fpv4-sp/hard\libg_nano.a(lib_a-init.o)
 .debug_frame   0x00007710       0x30 c:/arm_gcc/bin/../lib/gcc/arm-none-eabi/6.3.1/../../../../arm-none-eabi/lib/thumb/v7e-m/fpv4-sp/hard\libg_nano.a(lib_a-malloc.o)
 .debug_frame   0x00007740       0x28 c:/arm_gcc/bin/../lib/gcc/arm-none-eabi/6.3.1/../../../../arm-none-eabi/lib/thumb/v7e-m/fpv4-sp/hard\libg_nano.a(lib_a-memcmp.o)
 .debug_frame   0x00007768       0x28 c:/arm_gcc/bin/../lib/gcc/arm-none-eabi/6.3.1/../../../../arm-none-eabi/lib/thumb/v7e-m/fpv4-sp/hard\libg_nano.a(lib_a-memcpy-stub.o)
 .debug_frame   0x00007790       0x20 c:/arm_gcc/bin/../lib/gcc/arm-none-eabi/6.3.1/../../../../arm-none-eabi/lib/thumb/v7e-m/fpv4-sp/hard\libg_nano.a(lib_a-memset.o)
 .debug_frame   0x000077b0       0x38 c:/arm_gcc/bin/../lib/gcc/arm-none-eabi/6.3.1/../../../../arm-none-eabi/lib/thumb/v7e-m/fpv4-sp/hard\libg_nano.a(lib_a-nano-freer.o)
 .debug_frame   0x000077e8       0x2c c:/arm_gcc/bin/../lib/gcc/arm-none-eabi/6.3.1/../../../../arm-none-eabi/lib/thumb/v7e-m/fpv4-sp/hard\libg_nano.a(lib_a-nano-mallocr.o)
 .debug_frame   0x00007814       0x2c c:/arm_gcc/bin/../lib/gcc/arm-none-eabi/6.3.1/../../../../arm-none-eabi/lib/thumb/v7e-m/fpv4-sp/hard\libg_nano.a(lib_a-sbrkr.o)
 .debug_frame   0x00007840       0x20 c:/arm_gcc/bin/../lib/gcc/arm-none-eabi/6.3.1/../../../../arm-none-eabi/lib/thumb/v7e-m/fpv4-sp/hard\libg_nano.a(lib_a-strcpy.o)
 .debug_frame   0x00007860       0x34 c:/arm_gcc/bin/../lib/gcc/arm-none-eabi/6.3.1/../../../../arm-none-eabi/lib/thumb/v7e-m/fpv4-sp/hard\libg_nano.a(lib_a-strrchr.o)
 .debug_frame   0x00007894       0x30 c:/arm_gcc/bin/../lib/gcc/arm-none-eabi/6.3.1/../../../../arm-none-eabi/lib/thumb/v7e-m/fpv4-sp/hard\libg_nano.a(lib_a-mlock.o)
 .debug_frame   0x000078c4       0x5c c:/arm_gcc/bin/../lib/gcc/arm-none-eabi/6.3.1/../../../../arm-none-eabi/lib/thumb/v7e-m/fpv4-sp/hard\libg_nano.a(lib_a-reent.o)
 .debug_frame   0x00007920       0x20 c:/arm_gcc/bin/../lib/gcc/arm-none-eabi/6.3.1/../../../../arm-none-eabi/lib/thumb/v7e-m/fpv4-sp/hard\libg_nano.a(lib_a-strchr.o)
 .debug_frame   0x00007940       0x20 c:/arm_gcc/bin/../lib/gcc/arm-none-eabi/6.3.1/../../../../arm-none-eabi/lib/thumb/v7e-m/fpv4-sp/hard\libnosys.a(sbrk.o)
 .debug_frame   0x00007960       0x20 c:/arm_gcc/bin/../lib/gcc/arm-none-eabi/6.3.1/../../../../arm-none-eabi/lib/thumb/v7e-m/fpv4-sp/hard\libnosys.a(_exit.o)
